TN:
SF:/home/PIDORA666/Desktop/LABA3/LABA3-master/Hash.cpp
FN:16,38,_ZN4Hash6HPrintEv
FN:3,7,_ZN4HashC2Ev
FN:40,46,_ZN4Hash6HtransENSt7__cxx1112basic_stringIcSt11char_traitsIcESaIcEEE
FN:48,71,_ZN4Hash5HPushENSt7__cxx1112basic_stringIcSt11char_traitsIcESaIcEEES5_
FN:73,95,_ZN4Hash4HGetENSt7__cxx1112basic_stringIcSt11char_traitsIcESaIcEEE
FN:8,15,_ZN4Hash8is_emptyEv
FN:97,127,_ZN4Hash4HPopENSt7__cxx1112basic_stringIcSt11char_traitsIcESaIcEEE
FNDA:2,_ZN4Hash6HPrintEv
FNDA:6,_ZN4HashC2Ev
FNDA:239,_ZN4Hash6HtransENSt7__cxx1112basic_stringIcSt11char_traitsIcESaIcEEE
FNDA:121,_ZN4Hash5HPushENSt7__cxx1112basic_stringIcSt11char_traitsIcESaIcEEES5_
FNDA:114,_ZN4Hash4HGetENSt7__cxx1112basic_stringIcSt11char_traitsIcESaIcEEE
FNDA:120,_ZN4Hash8is_emptyEv
FNDA:4,_ZN4Hash4HPopENSt7__cxx1112basic_stringIcSt11char_traitsIcESaIcEEE
FNF:7
FNH:7
DA:3,6
DA:4,48
DA:5,42
DA:7,6
DA:8,120
DA:9,149
DA:10,148
DA:11,119
DA:14,1
DA:16,2
DA:17,2
DA:18,2
DA:19,1
DA:20,1
DA:22,1
DA:23,8
DA:24,7
DA:25,7
DA:26,7
DA:27,2
DA:28,2
DA:29,4
DA:30,2
DA:31,2
DA:33,2
DA:35,7
DA:37,1
DA:40,239
DA:41,239
DA:42,1376
DA:43,1137
DA:45,239
DA:48,121
DA:49,121
DA:50,121
DA:51,121
DA:52,102
DA:53,2
DA:54,2
DA:55,2
DA:56,2
DA:58,100
DA:59,678
DA:60,579
DA:61,1
DA:62,1
DA:63,1
DA:64,1
DA:66,578
DA:69,118
DA:70,118
DA:73,114
DA:74,114
DA:75,0
DA:76,0
DA:78,114
DA:79,114
DA:80,1
DA:81,2
DA:83,113
DA:84,118
DA:85,115
DA:86,110
DA:88,5
DA:90,3
DA:91,3
DA:92,6
DA:94,0
DA:97,4
DA:98,4
DA:99,0
DA:100,0
DA:102,4
DA:103,4
DA:104,0
DA:105,0
DA:107,4
DA:108,4
DA:109,2
DA:110,2
DA:111,2
DA:112,2
DA:114,2
DA:115,1
DA:116,1
DA:117,1
DA:118,1
DA:119,1
DA:121,0
DA:123,1
DA:124,1
DA:125,1
LF:92
LH:84
end_of_record
TN:
SF:/home/PIDORA666/Desktop/LABA3/LABA3-master/Header.h
FN:55,55,_ZN3StkC2Ev
FNDA:5,_ZN3StkC2Ev
FNF:1
FNH:1
DA:55,5
DA:131,9
LF:2
LH:2
end_of_record
TN:
SF:/home/PIDORA666/Desktop/LABA3/LABA3-master/ListD.cpp
FN:118,144,_ZN6LIST_d5LdGETENSt7__cxx1112basic_stringIcSt11char_traitsIcESaIcEEE
FN:21,33,_ZN6LIST_d10LdPUSH_endENSt7__cxx1112basic_stringIcSt11char_traitsIcESaIcEEE
FN:3,5,_ZN6LIST_d8is_emptyEv
FN:35,46,_ZN6LIST_d12LdPUSH_frontENSt7__cxx1112basic_stringIcSt11char_traitsIcESaIcEEE
FN:48,62,_ZN6LIST_d10LdPOP_headEv
FN:64,77,_ZN6LIST_d9LdPOP_endEv
FN:7,19,_ZN6LIST_d7LdPRINTEv
FN:79,116,_ZN6LIST_d10LdPOP_dataENSt7__cxx1112basic_stringIcSt11char_traitsIcESaIcEEE
FNDA:14,_ZN6LIST_d5LdGETENSt7__cxx1112basic_stringIcSt11char_traitsIcESaIcEEE
FNDA:110,_ZN6LIST_d10LdPUSH_endENSt7__cxx1112basic_stringIcSt11char_traitsIcESaIcEEE
FNDA:345,_ZN6LIST_d8is_emptyEv
FNDA:6,_ZN6LIST_d12LdPUSH_frontENSt7__cxx1112basic_stringIcSt11char_traitsIcESaIcEEE
FNDA:105,_ZN6LIST_d10LdPOP_headEv
FNDA:101,_ZN6LIST_d9LdPOP_endEv
FNDA:2,_ZN6LIST_d7LdPRINTEv
FNDA:3,_ZN6LIST_d10LdPOP_dataENSt7__cxx1112basic_stringIcSt11char_traitsIcESaIcEEE
FNF:8
FNH:8
DA:3,345
DA:4,345
DA:7,2
DA:8,2
DA:9,2
DA:10,1
DA:11,1
DA:13,1
DA:14,2
DA:15,1
DA:16,1
DA:18,1
DA:21,110
DA:22,110
DA:23,110
DA:24,105
DA:25,105
DA:26,105
DA:29,5
DA:30,5
DA:31,5
DA:35,6
DA:36,6
DA:37,6
DA:38,5
DA:39,5
DA:40,5
DA:43,1
DA:44,1
DA:46,6
DA:48,105
DA:49,105
DA:50,0
DA:51,0
DA:53,105
DA:54,100
DA:55,100
DA:56,100
DA:58,5
DA:59,5
DA:60,5
DA:61,5
DA:64,101
DA:65,101
DA:66,0
DA:67,0
DA:69,101
DA:70,101
DA:71,100
DA:72,100
DA:74,1
DA:75,1
DA:76,1
DA:79,3
DA:81,3
DA:82,3
DA:83,3
DA:84,0
DA:85,0
DA:87,3
DA:88,5
DA:89,4
DA:90,4
DA:91,0
DA:94,1
DA:95,1
DA:97,7
DA:98,4
DA:99,1
DA:100,1
DA:101,1
DA:102,1
DA:103,1
DA:105,4
DA:107,3
DA:108,0
DA:109,0
DA:111,3
DA:112,1
DA:113,1
DA:118,14
DA:119,14
DA:120,14
DA:121,14
DA:122,14
DA:123,1
DA:124,1
DA:126,13
DA:127,22
DA:128,9
DA:129,3
DA:130,3
DA:132,9
DA:133,9
DA:135,13
DA:136,5
DA:137,5
DA:139,13
DA:140,5
DA:141,5
DA:143,8
LF:101
LH:92
end_of_record
TN:
SF:/home/PIDORA666/Desktop/LABA3/LABA3-master/ListS.cpp
FN:127,153,_ZN6LIST_S5LsGETENSt7__cxx1112basic_stringIcSt11char_traitsIcESaIcEEE
FN:21,34,_ZN6LIST_S10LsPUSH_endENSt7__cxx1112basic_stringIcSt11char_traitsIcESaIcEEE
FN:3,5,_ZN6LIST_S8is_emptyEv
FN:36,45,_ZN6LIST_S12LsPUSH_frontENSt7__cxx1112basic_stringIcSt11char_traitsIcESaIcEEE
FN:47,55,_ZN6LIST_S10LsPOP_headEv
FN:57,74,_ZN6LIST_S9LsPOP_endEv
FN:7,19,_ZN6LIST_S7LsPRINTEv
FN:76,124,_ZN6LIST_S10LsPOP_dataENSt7__cxx1112basic_stringIcSt11char_traitsIcESaIcEEE
FNDA:21,_ZN6LIST_S5LsGETENSt7__cxx1112basic_stringIcSt11char_traitsIcESaIcEEE
FNDA:114,_ZN6LIST_S10LsPUSH_endENSt7__cxx1112basic_stringIcSt11char_traitsIcESaIcEEE
FNDA:359,_ZN6LIST_S8is_emptyEv
FNDA:3,_ZN6LIST_S12LsPUSH_frontENSt7__cxx1112basic_stringIcSt11char_traitsIcESaIcEEE
FNDA:103,_ZN6LIST_S10LsPOP_headEv
FNDA:104,_ZN6LIST_S9LsPOP_endEv
FNDA:2,_ZN6LIST_S7LsPRINTEv
FNDA:5,_ZN6LIST_S10LsPOP_dataENSt7__cxx1112basic_stringIcSt11char_traitsIcESaIcEEE
FNF:8
FNH:8
DA:3,359
DA:4,359
DA:7,2
DA:8,2
DA:9,2
DA:10,1
DA:11,1
DA:13,1
DA:14,2
DA:15,1
DA:16,1
DA:18,1
DA:21,114
DA:22,114
DA:23,114
DA:24,114
DA:25,105
DA:26,105
DA:29,14
DA:30,5
DA:32,9
DA:36,3
DA:37,3
DA:38,3
DA:39,2
DA:40,2
DA:43,1
DA:45,3
DA:47,103
DA:48,103
DA:49,0
DA:50,0
DA:52,103
DA:53,103
DA:54,103
DA:57,104
DA:59,104
DA:60,104
DA:61,0
DA:62,0
DA:64,104
DA:65,101
DA:66,101
DA:68,6
DA:69,3
DA:71,3
DA:72,3
DA:73,3
DA:76,5
DA:77,5
DA:78,5
DA:79,5
DA:80,1
DA:81,1
DA:83,4
DA:84,2
DA:85,1
DA:86,1
DA:87,0
DA:89,1
DA:92,4
DA:93,2
DA:95,4
DA:96,3
DA:97,1
DA:98,1
DA:99,1
DA:100,1
DA:102,3
DA:103,3
DA:104,1
DA:107,2
DA:108,0
DA:110,2
DA:111,1
DA:112,0
DA:113,0
DA:116,1
DA:117,1
DA:118,1
DA:120,2
DA:121,0
DA:122,0
DA:127,21
DA:128,21
DA:129,21
DA:130,21
DA:131,21
DA:132,3
DA:133,3
DA:135,18
DA:136,36
DA:137,18
DA:138,4
DA:139,4
DA:141,18
DA:142,18
DA:144,18
DA:145,6
DA:146,6
DA:148,18
DA:149,8
DA:150,8
DA:152,10
LF:104
LH:94
end_of_record
TN:
SF:/home/PIDORA666/Desktop/LABA3/LABA3-master/TEST.cpp
FN:104,104,_ZL21test_push_end_invokerv
FN:104,104,_ZN13test_push_end11test_methodEv
FN:124,146,_ZL23test_push_index_invokerv
FN:124,146,_ZN15test_push_index11test_methodEv
FN:14,20,_Z12runBenchmarkIZN20BenchmarkListPushPop11test_methodEvEUlvE_EvRKNSt7__cxx1112basic_stringIcSt11char_traitsIcESaIcEEET_
FN:14,20,_Z12runBenchmarkIZN21BenchmarkQueuePushPop11test_methodEvEUlvE_EvRKNSt7__cxx1112basic_stringIcSt11char_traitsIcESaIcEEET_
FN:14,20,_Z12runBenchmarkIZN21BenchmarkStackPushPop11test_methodEvEUlvE_EvRKNSt7__cxx1112basic_stringIcSt11char_traitsIcESaIcEEET_
FN:14,20,_Z12runBenchmarkIZN22BenchmarkHashInsertGet11test_methodEvEUlvE_EvRKNSt7__cxx1112basic_stringIcSt11char_traitsIcESaIcEEET_
FN:14,20,_Z12runBenchmarkIZN23BenchmarkTreeInsertFind11test_methodEvEUlvE_EvRKNSt7__cxx1112basic_stringIcSt11char_traitsIcESaIcEEET_
FN:14,20,_Z12runBenchmarkIZN24BenchmarkMassivePopIndex11test_methodEvEUlvE_EvRKNSt7__cxx1112basic_stringIcSt11char_traitsIcESaIcEEET_
FN:14,20,_Z12runBenchmarkIZN24BenchmarkMassivePushBack11test_methodEvEUlvE_EvRKNSt7__cxx1112basic_stringIcSt11char_traitsIcESaIcEEET_
FN:14,20,_Z12runBenchmarkIZN26BenchmarkDoubleListPushPop11test_methodEvEUlvE_EvRKNSt7__cxx1112basic_stringIcSt11char_traitsIcESaIcEEET_
FN:148,165,_ZL22test_pop_index_invokerv
FN:148,165,_ZN14test_pop_index11test_methodEv
FN:167,180,_ZL26test_replace_index_invokerv
FN:167,180,_ZN18test_replace_index11test_methodEv
FN:181,186,_ZL17test_size_invokerv
FN:181,186,_ZN9test_size11test_methodEv
FN:188,193,_ZL22test_empty_get_invokerv
FN:188,193,_ZN14test_empty_get11test_methodEv
FN:196,196,_ZL32BenchmarkMassivePushBack_invokerv
FN:196,196,_ZN24BenchmarkMassivePushBack11test_methodEv
FN:198,202,_ZZN24BenchmarkMassivePushBack11test_methodEvENKUlvE_clEv
FN:205,215,_ZL32BenchmarkMassivePopIndex_invokerv
FN:205,215,_ZN24BenchmarkMassivePopIndex11test_methodEv
FN:210,214,_ZZN24BenchmarkMassivePopIndex11test_methodEvENKUlvE_clEv
FN:22,22,_ZL23test_push_stack_invokerv
FN:22,22,_ZN15test_push_stack11test_methodEv
FN:220,229,_ZL27test_insert_and_get_invokerv
FN:220,229,_ZN19test_insert_and_get11test_methodEv
FN:231,231,_ZL25test_update_value_invokerv
FN:231,231,_ZN17test_update_value11test_methodEv
FN:258,289,_ZL19test_remove_invokerv
FN:258,289,_ZN11test_remove11test_methodEv
FN:28,28,_ZL22test_pop_stack_invokerv
FN:28,28,_ZN14test_pop_stack11test_methodEv
FN:291,299,_ZL23test_print_hash_invokerv
FN:291,299,_ZN15test_print_hash11test_methodEv
FN:301,309,_ZL31test_collision_handling_invokerv
FN:301,309,_ZN23test_collision_handling11test_methodEv
FN:312,312,_ZL30BenchmarkHashInsertGet_invokerv
FN:312,312,_ZN22BenchmarkHashInsertGet11test_methodEv
FN:314,319,_ZZN22BenchmarkHashInsertGet11test_methodEvENKUlvE_clEv
FN:323,334,_ZL17test_push_invokerv
FN:323,334,_ZN9test_push11test_methodEv
FN:335,343,_ZL17test_find_invokerv
FN:335,343,_ZN9test_find11test_methodEv
FN:345,352,_ZL16test_bin_invokerv
FN:345,352,_ZN8test_bin11test_methodEv
FN:354,357,_ZL17test_emty_invokerv
FN:354,357,_ZN9test_emty11test_methodEv
FN:359,367,_ZL31BenchmarkTreeInsertFind_invokerv
FN:359,367,_ZN23BenchmarkTreeInsertFind11test_methodEv
FN:361,366,_ZZN23BenchmarkTreeInsertFind11test_methodEvENKUlvE_clEv
FN:369,374,_ZL21test_print_ls_invokerv
FN:369,374,_ZN13test_print_ls11test_methodEv
FN:375,375,_ZL24test_push_end_ls_invokerv
FN:375,375,_ZN16test_push_end_ls11test_methodEv
FN:38,38,_ZL24test_print_stack_invokerv
FN:38,38,_ZN16test_print_stack11test_methodEv
FN:388,395,_ZL22test_push_head_invokerv
FN:388,395,_ZN14test_push_head11test_methodEv
FN:397,405,_ZL22test_pop_front_invokerv
FN:397,405,_ZN14test_pop_front11test_methodEv
FN:407,419,_ZL20test_pop_end_invokerv
FN:407,419,_ZN12test_pop_end11test_methodEv
FN:421,421,_ZL22test_pop_znach_invokerv
FN:421,421,_ZN14test_pop_znach11test_methodEv
FN:444,447,_ZL23test_empty_list_invokerv
FN:444,447,_ZN15test_empty_list11test_methodEv
FN:45,45,_ZL24test_empty_stack_invokerv
FN:45,45,_ZN16test_empty_stack11test_methodEv
FN:450,458,_ZL28BenchmarkListPushPop_invokerv
FN:450,458,_ZN20BenchmarkListPushPop11test_methodEv
FN:452,457,_ZZN20BenchmarkListPushPop11test_methodEvENKUlvE_clEv
FN:460,465,_ZL21test_print_ld_invokerv
FN:460,465,_ZN13test_print_ld11test_methodEv
FN:466,475,_ZL24test_push_end_ld_invokerv
FN:466,475,_ZN16test_push_end_ld11test_methodEv
FN:477,484,_ZL25test_push_head_ld_invokerv
FN:477,484,_ZN17test_push_head_ld11test_methodEv
FN:486,494,_ZL25test_pop_front_ld_invokerv
FN:486,494,_ZN17test_pop_front_ld11test_methodEv
FN:49,49,_ZL29BenchmarkStackPushPop_invokerv
FN:49,49,_ZN21BenchmarkStackPushPop11test_methodEv
FN:496,504,_ZL23test_pop_end_ld_invokerv
FN:496,504,_ZN15test_pop_end_ld11test_methodEv
FN:506,506,_ZL25test_pop_znach_ld_invokerv
FN:506,506,_ZN17test_pop_znach_ld11test_methodEv
FN:51,56,_ZZN21BenchmarkStackPushPop11test_methodEvENKUlvE_clEv
FN:522,525,_ZL26test_empty_list_ld_invokerv
FN:522,525,_ZN18test_empty_list_ld11test_methodEv
FN:527,527,_ZL34BenchmarkDoubleListPushPop_invokerv
FN:527,527,_ZN26BenchmarkDoubleListPushPop11test_methodEv
FN:529,534,_ZZN26BenchmarkDoubleListPushPop11test_methodEvENKUlvE_clEv
FN:60,65,_ZL20test_print_q_invokerv
FN:60,65,_ZN12test_print_q11test_methodEv
FN:66,70,_ZL23test_push_queue_invokerv
FN:66,70,_ZN15test_push_queue11test_methodEv
FN:72,80,_ZL22test_pop_queue_invokerv
FN:72,80,_ZN14test_pop_queue11test_methodEv
FN:82,82,_ZL24test_empty_queue_invokerv
FN:82,82,_ZN16test_empty_queue11test_methodEv
FN:87,87,_ZL29BenchmarkQueuePushPop_invokerv
FN:87,87,_ZN21BenchmarkQueuePushPop11test_methodEv
FN:89,94,_ZZN21BenchmarkQueuePushPop11test_methodEvENKUlvE_clEv
FN:98,98,_ZL22test_print_mas_invokerv
FN:98,98,_ZN14test_print_mas11test_methodEv
FNDA:1,_ZL21test_push_end_invokerv
FNDA:1,_ZN13test_push_end11test_methodEv
FNDA:1,_ZL23test_push_index_invokerv
FNDA:1,_ZN15test_push_index11test_methodEv
FNDA:1,_Z12runBenchmarkIZN20BenchmarkListPushPop11test_methodEvEUlvE_EvRKNSt7__cxx1112basic_stringIcSt11char_traitsIcESaIcEEET_
FNDA:1,_Z12runBenchmarkIZN21BenchmarkQueuePushPop11test_methodEvEUlvE_EvRKNSt7__cxx1112basic_stringIcSt11char_traitsIcESaIcEEET_
FNDA:1,_Z12runBenchmarkIZN21BenchmarkStackPushPop11test_methodEvEUlvE_EvRKNSt7__cxx1112basic_stringIcSt11char_traitsIcESaIcEEET_
FNDA:1,_Z12runBenchmarkIZN22BenchmarkHashInsertGet11test_methodEvEUlvE_EvRKNSt7__cxx1112basic_stringIcSt11char_traitsIcESaIcEEET_
FNDA:1,_Z12runBenchmarkIZN23BenchmarkTreeInsertFind11test_methodEvEUlvE_EvRKNSt7__cxx1112basic_stringIcSt11char_traitsIcESaIcEEET_
FNDA:1,_Z12runBenchmarkIZN24BenchmarkMassivePopIndex11test_methodEvEUlvE_EvRKNSt7__cxx1112basic_stringIcSt11char_traitsIcESaIcEEET_
FNDA:1,_Z12runBenchmarkIZN24BenchmarkMassivePushBack11test_methodEvEUlvE_EvRKNSt7__cxx1112basic_stringIcSt11char_traitsIcESaIcEEET_
FNDA:1,_Z12runBenchmarkIZN26BenchmarkDoubleListPushPop11test_methodEvEUlvE_EvRKNSt7__cxx1112basic_stringIcSt11char_traitsIcESaIcEEET_
FNDA:1,_ZL22test_pop_index_invokerv
FNDA:1,_ZN14test_pop_index11test_methodEv
FNDA:1,_ZL26test_replace_index_invokerv
FNDA:1,_ZN18test_replace_index11test_methodEv
FNDA:1,_ZL17test_size_invokerv
FNDA:1,_ZN9test_size11test_methodEv
FNDA:1,_ZL22test_empty_get_invokerv
FNDA:1,_ZN14test_empty_get11test_methodEv
FNDA:1,_ZL32BenchmarkMassivePushBack_invokerv
FNDA:1,_ZN24BenchmarkMassivePushBack11test_methodEv
FNDA:1,_ZZN24BenchmarkMassivePushBack11test_methodEvENKUlvE_clEv
FNDA:1,_ZL32BenchmarkMassivePopIndex_invokerv
FNDA:1,_ZN24BenchmarkMassivePopIndex11test_methodEv
FNDA:1,_ZZN24BenchmarkMassivePopIndex11test_methodEvENKUlvE_clEv
FNDA:1,_ZL23test_push_stack_invokerv
FNDA:1,_ZN15test_push_stack11test_methodEv
FNDA:1,_ZL27test_insert_and_get_invokerv
FNDA:1,_ZN19test_insert_and_get11test_methodEv
FNDA:1,_ZL25test_update_value_invokerv
FNDA:1,_ZN17test_update_value11test_methodEv
FNDA:1,_ZL19test_remove_invokerv
FNDA:1,_ZN11test_remove11test_methodEv
FNDA:1,_ZL22test_pop_stack_invokerv
FNDA:1,_ZN14test_pop_stack11test_methodEv
FNDA:1,_ZL23test_print_hash_invokerv
FNDA:1,_ZN15test_print_hash11test_methodEv
FNDA:1,_ZL31test_collision_handling_invokerv
FNDA:1,_ZN23test_collision_handling11test_methodEv
FNDA:1,_ZL30BenchmarkHashInsertGet_invokerv
FNDA:1,_ZN22BenchmarkHashInsertGet11test_methodEv
FNDA:1,_ZZN22BenchmarkHashInsertGet11test_methodEvENKUlvE_clEv
FNDA:1,_ZL17test_push_invokerv
FNDA:1,_ZN9test_push11test_methodEv
FNDA:1,_ZL17test_find_invokerv
FNDA:1,_ZN9test_find11test_methodEv
FNDA:1,_ZL16test_bin_invokerv
FNDA:1,_ZN8test_bin11test_methodEv
FNDA:1,_ZL17test_emty_invokerv
FNDA:1,_ZN9test_emty11test_methodEv
FNDA:1,_ZL31BenchmarkTreeInsertFind_invokerv
FNDA:1,_ZN23BenchmarkTreeInsertFind11test_methodEv
FNDA:1,_ZZN23BenchmarkTreeInsertFind11test_methodEvENKUlvE_clEv
FNDA:1,_ZL21test_print_ls_invokerv
FNDA:1,_ZN13test_print_ls11test_methodEv
FNDA:1,_ZL24test_push_end_ls_invokerv
FNDA:1,_ZN16test_push_end_ls11test_methodEv
FNDA:1,_ZL24test_print_stack_invokerv
FNDA:1,_ZN16test_print_stack11test_methodEv
FNDA:1,_ZL22test_push_head_invokerv
FNDA:1,_ZN14test_push_head11test_methodEv
FNDA:1,_ZL22test_pop_front_invokerv
FNDA:1,_ZN14test_pop_front11test_methodEv
FNDA:1,_ZL20test_pop_end_invokerv
FNDA:1,_ZN12test_pop_end11test_methodEv
FNDA:1,_ZL22test_pop_znach_invokerv
FNDA:1,_ZN14test_pop_znach11test_methodEv
FNDA:1,_ZL23test_empty_list_invokerv
FNDA:1,_ZN15test_empty_list11test_methodEv
FNDA:1,_ZL24test_empty_stack_invokerv
FNDA:1,_ZN16test_empty_stack11test_methodEv
FNDA:1,_ZL28BenchmarkListPushPop_invokerv
FNDA:1,_ZN20BenchmarkListPushPop11test_methodEv
FNDA:1,_ZZN20BenchmarkListPushPop11test_methodEvENKUlvE_clEv
FNDA:1,_ZL21test_print_ld_invokerv
FNDA:1,_ZN13test_print_ld11test_methodEv
FNDA:1,_ZL24test_push_end_ld_invokerv
FNDA:1,_ZN16test_push_end_ld11test_methodEv
FNDA:1,_ZL25test_push_head_ld_invokerv
FNDA:1,_ZN17test_push_head_ld11test_methodEv
FNDA:1,_ZL25test_pop_front_ld_invokerv
FNDA:1,_ZN17test_pop_front_ld11test_methodEv
FNDA:1,_ZL29BenchmarkStackPushPop_invokerv
FNDA:1,_ZN21BenchmarkStackPushPop11test_methodEv
FNDA:1,_ZL23test_pop_end_ld_invokerv
FNDA:1,_ZN15test_pop_end_ld11test_methodEv
FNDA:1,_ZL25test_pop_znach_ld_invokerv
FNDA:1,_ZN17test_pop_znach_ld11test_methodEv
FNDA:1,_ZZN21BenchmarkStackPushPop11test_methodEvENKUlvE_clEv
FNDA:1,_ZL26test_empty_list_ld_invokerv
FNDA:1,_ZN18test_empty_list_ld11test_methodEv
FNDA:1,_ZL34BenchmarkDoubleListPushPop_invokerv
FNDA:1,_ZN26BenchmarkDoubleListPushPop11test_methodEv
FNDA:1,_ZZN26BenchmarkDoubleListPushPop11test_methodEvENKUlvE_clEv
FNDA:1,_ZL20test_print_q_invokerv
FNDA:1,_ZN12test_print_q11test_methodEv
FNDA:1,_ZL23test_push_queue_invokerv
FNDA:1,_ZN15test_push_queue11test_methodEv
FNDA:1,_ZL22test_pop_queue_invokerv
FNDA:1,_ZN14test_pop_queue11test_methodEv
FNDA:1,_ZL24test_empty_queue_invokerv
FNDA:1,_ZN16test_empty_queue11test_methodEv
FNDA:1,_ZL29BenchmarkQueuePushPop_invokerv
FNDA:1,_ZN21BenchmarkQueuePushPop11test_methodEv
FNDA:1,_ZZN21BenchmarkQueuePushPop11test_methodEvENKUlvE_clEv
FNDA:1,_ZL22test_print_mas_invokerv
FNDA:1,_ZN14test_print_mas11test_methodEv
FNF:108
FNH:108
DA:14,8
DA:15,8
DA:16,8
DA:17,8
DA:18,8
DA:19,8
DA:20,8
DA:22,2
DA:23,1
DA:24,2
DA:26,1
DA:27,1
DA:28,2
DA:29,1
DA:30,2
DA:31,1
DA:32,1
DA:33,1
DA:34,1
DA:35,1
DA:36,1
DA:37,1
DA:38,2
DA:39,1
DA:40,1
DA:41,2
DA:42,1
DA:44,1
DA:45,2
DA:46,1
DA:47,1
DA:48,1
DA:49,2
DA:50,1
DA:51,3
DA:52,101
DA:53,200
DA:54,100
DA:56,1
DA:57,1
DA:60,2
DA:61,1
DA:62,1
DA:63,2
DA:64,1
DA:65,1
DA:66,2
DA:67,1
DA:68,2
DA:69,1
DA:70,1
DA:72,2
DA:73,1
DA:74,2
DA:75,1
DA:76,1
DA:77,1
DA:78,1
DA:79,1
DA:80,1
DA:82,2
DA:83,1
DA:84,1
DA:85,1
DA:87,2
DA:88,1
DA:89,3
DA:90,101
DA:91,200
DA:92,100
DA:94,1
DA:95,1
DA:98,2
DA:99,1
DA:100,1
DA:101,2
DA:102,1
DA:103,1
DA:104,2
DA:105,1
DA:106,2
DA:107,1
DA:108,1
DA:110,1
DA:111,1
DA:112,1
DA:113,1
DA:114,8
DA:115,7
DA:116,7
DA:118,1
DA:119,1
DA:120,1
DA:122,1
DA:124,2
DA:125,1
DA:126,1
DA:127,1
DA:129,1
DA:130,1
DA:131,1
DA:132,1
DA:133,1
DA:134,1
DA:135,1
DA:136,1
DA:137,1
DA:138,1
DA:139,9
DA:140,8
DA:141,8
DA:143,1
DA:144,1
DA:145,1
DA:146,1
DA:148,2
DA:149,1
DA:150,2
DA:151,1
DA:152,1
DA:154,1
DA:155,1
DA:156,1
DA:158,1
DA:159,1
DA:160,1
DA:161,1
DA:162,1
DA:163,1
DA:165,1
DA:167,2
DA:168,1
DA:169,2
DA:170,1
DA:171,1
DA:173,1
DA:174,1
DA:175,1
DA:177,1
DA:178,1
DA:179,1
DA:180,1
DA:181,2
DA:182,1
DA:183,1
DA:185,1
DA:186,1
DA:188,2
DA:189,1
DA:190,1
DA:191,1
DA:192,1
DA:193,1
DA:196,2
DA:197,1
DA:198,3
DA:199,11
DA:200,30
DA:202,1
DA:203,1
DA:205,2
DA:206,1
DA:207,11
DA:208,20
DA:210,3
DA:211,11
DA:212,10
DA:214,1
DA:215,1
DA:220,2
DA:221,1
DA:222,4
DA:223,4
DA:224,4
DA:225,2
DA:227,1
DA:229,1
DA:231,2
DA:232,1
DA:233,4
DA:234,4
DA:235,4
DA:236,2
DA:238,1
DA:240,4
DA:241,2
DA:243,1
DA:244,4
DA:245,2
DA:247,1
DA:248,4
DA:249,2
DA:250,1
DA:251,4
DA:252,4
DA:253,4
DA:254,2
DA:255,1
DA:256,1
DA:258,2
DA:259,1
DA:260,4
DA:261,4
DA:263,2
DA:265,1
DA:267,2
DA:269,2
DA:271,1
DA:273,2
DA:275,1
DA:276,4
DA:277,2
DA:278,2
DA:279,1
DA:280,4
DA:281,4
DA:282,2
DA:283,2
DA:284,1
DA:285,2
DA:286,2
DA:287,1
DA:289,1
DA:291,2
DA:292,1
DA:293,1
DA:294,1
DA:295,4
DA:296,3
DA:297,1
DA:298,1
DA:299,1
DA:301,2
DA:302,1
DA:303,4
DA:304,4
DA:305,2
DA:306,1
DA:307,2
DA:308,1
DA:309,1
DA:312,2
DA:313,1
DA:314,3
DA:315,101
DA:316,100
DA:317,100
DA:319,1
DA:320,1
DA:323,2
DA:324,1
DA:325,2
DA:326,2
DA:327,2
DA:328,2
DA:329,2
DA:330,2
DA:331,1
DA:332,2
DA:333,1
DA:334,1
DA:335,2
DA:336,1
DA:337,2
DA:338,1
DA:339,1
DA:340,3
DA:341,3
DA:342,3
DA:343,1
DA:345,2
DA:346,1
DA:347,2
DA:348,2
DA:349,1
DA:350,2
DA:351,1
DA:352,1
DA:354,2
DA:355,1
DA:356,1
DA:357,1
DA:359,2
DA:360,1
DA:361,3
DA:362,101
DA:363,100
DA:364,100
DA:366,1
DA:367,1
DA:369,2
DA:370,1
DA:371,1
DA:372,2
DA:373,1
DA:374,1
DA:375,2
DA:376,1
DA:377,2
DA:378,2
DA:379,2
DA:381,3
DA:382,3
DA:383,3
DA:384,3
DA:386,1
DA:388,2
DA:389,1
DA:390,2
DA:391,2
DA:392,3
DA:393,3
DA:394,3
DA:395,1
DA:397,2
DA:398,1
DA:399,2
DA:400,1
DA:402,1
DA:403,3
DA:404,3
DA:405,1
DA:407,2
DA:408,1
DA:409,2
DA:410,2
DA:411,1
DA:413,1
DA:414,3
DA:415,3
DA:416,1
DA:417,1
DA:418,3
DA:419,1
DA:421,2
DA:422,1
DA:423,2
DA:424,3
DA:425,2
DA:426,2
DA:427,2
DA:428,2
DA:429,3
DA:430,3
DA:431,3
DA:432,2
DA:433,3
DA:434,3
DA:435,3
DA:436,2
DA:437,2
DA:438,2
DA:439,2
DA:440,2
DA:441,3
DA:442,1
DA:444,2
DA:445,1
DA:446,3
DA:447,1
DA:450,2
DA:451,1
DA:452,3
DA:453,101
DA:454,200
DA:455,100
DA:457,1
DA:458,1
DA:460,2
DA:461,1
DA:462,1
DA:463,2
DA:464,1
DA:465,1
DA:466,2
DA:467,1
DA:468,2
DA:469,2
DA:471,3
DA:472,3
DA:473,3
DA:475,1
DA:477,2
DA:478,1
DA:479,2
DA:480,2
DA:481,3
DA:482,3
DA:483,3
DA:484,1
DA:486,2
DA:487,1
DA:488,2
DA:489,1
DA:491,1
DA:492,3
DA:493,3
DA:494,1
DA:496,2
DA:497,1
DA:498,2
DA:499,1
DA:501,1
DA:502,3
DA:503,3
DA:504,1
DA:506,2
DA:507,1
DA:508,2
DA:509,2
DA:510,2
DA:511,2
DA:512,3
DA:513,3
DA:514,3
DA:515,2
DA:516,2
DA:517,2
DA:518,2
DA:519,2
DA:520,1
DA:521,1
DA:522,2
DA:523,1
DA:524,3
DA:525,1
DA:527,2
DA:528,1
DA:529,3
DA:530,101
DA:531,200
DA:532,100
DA:534,1
DA:535,1
LF:434
LH:434
end_of_record
TN:
SF:/home/PIDORA666/Desktop/LABA3/LABA3-master/Tree.cpp
FN:29,55,_ZN4Tree5TFindEP5TNodeNSt7__cxx1112basic_stringIcSt11char_traitsIcESaIcEEE
FN:3,5,_ZN4Tree8is_emptyEv
FN:57,75,_ZN4Tree7is_fullEP5TNode
FN:7,27,_ZN4Tree5TPushEP5TNodeNSt7__cxx1112basic_stringIcSt11char_traitsIcESaIcEEE
FN:76,85,_ZN4Tree10print_TreeEP5TNodei
FNDA:106,_ZN4Tree5TFindEP5TNodeNSt7__cxx1112basic_stringIcSt11char_traitsIcESaIcEEE
FNDA:967,_ZN4Tree8is_emptyEv
FNDA:4,_ZN4Tree7is_fullEP5TNode
FNDA:856,_ZN4Tree5TPushEP5TNodeNSt7__cxx1112basic_stringIcSt11char_traitsIcESaIcEEE
FNDA:5,_ZN4Tree10print_TreeEP5TNodei
FNF:5
FNH:5
DA:3,967
DA:4,967
DA:7,856
DA:8,856
DA:9,4
DA:10,4
DA:12,852
DA:13,54
DA:14,54
DA:16,798
DA:17,51
DA:18,51
DA:20,747
DA:21,617
DA:22,617
DA:24,130
DA:25,130
DA:29,106
DA:30,106
DA:31,0
DA:32,0
DA:34,106
DA:35,3
DA:37,103
DA:38,850
DA:39,849
DA:40,849
DA:41,52
DA:42,52
DA:44,797
DA:45,50
DA:46,50
DA:48,747
DA:49,617
DA:51,130
DA:54,103
DA:57,4
DA:58,4
DA:59,0
DA:60,0
DA:62,4
DA:63,0
DA:65,4
DA:66,2
DA:69,2
DA:70,1
DA:73,1
DA:76,5
DA:78,5
DA:80,2
DA:81,6
DA:82,2
DA:83,2
DA:85,5
LF:54
LH:49
end_of_record
TN:
SF:/home/PIDORA666/Desktop/LABA3/LABA3-master/massive.cpp
FN:106,119,_ZN7Massive4MGetB5cxx11Ei
FN:121,123,_ZN7Massive4SizeEv
FN:13,15,_ZN7Massive8is_emptyEv
FN:17,29,_ZN7Massive6MPrintEv
FN:3,7,_ZN7MassiveC2Ev
FN:31,43,_ZN7Massive9MPushbackENSt7__cxx1112basic_stringIcSt11char_traitsIcESaIcEEE
FN:45,75,_ZN7Massive8MPushindEiNSt7__cxx1112basic_stringIcSt11char_traitsIcESaIcEEE
FN:77,91,_ZN7Massive7MPopindEi
FN:9,11,_ZN7MassiveixB5cxx11Ei
FN:93,104,_ZN7Massive7MChangeEiNSt7__cxx1112basic_stringIcSt11char_traitsIcESaIcEEE
FNDA:14,_ZN7Massive4MGetB5cxx11Ei
FNDA:1,_ZN7Massive4SizeEv
FNDA:33,_ZN7Massive8is_emptyEv
FNDA:2,_ZN7Massive6MPrintEv
FNDA:9,_ZN7MassiveC2Ev
FNDA:44,_ZN7Massive9MPushbackENSt7__cxx1112basic_stringIcSt11char_traitsIcESaIcEEE
FNDA:4,_ZN7Massive8MPushindEiNSt7__cxx1112basic_stringIcSt11char_traitsIcESaIcEEE
FNDA:12,_ZN7Massive7MPopindEi
FNDA:2,_ZN7MassiveixB5cxx11Ei
FNDA:1,_ZN7Massive7MChangeEiNSt7__cxx1112basic_stringIcSt11char_traitsIcESaIcEEE
FNF:10
FNH:10
DA:3,99
DA:4,99
DA:5,90
DA:7,9
DA:9,2
DA:10,2
DA:13,33
DA:14,33
DA:17,2
DA:18,2
DA:19,1
DA:20,1
DA:22,1
DA:23,1
DA:24,2
DA:25,1
DA:26,1
DA:28,1
DA:31,44
DA:32,44
DA:33,44
DA:34,84
DA:35,40
DA:36,36
DA:38,44
DA:39,4
DA:41,44
DA:42,44
DA:45,4
DA:46,4
DA:47,1
DA:48,1
DA:50,3
DA:51,1
DA:52,1
DA:54,2
DA:55,2
DA:56,21
DA:57,10
DA:58,9
DA:60,1
DA:61,1
DA:62,0
DA:64,21
DA:65,1
DA:66,1
DA:69,2
DA:70,1
DA:73,1
DA:74,1
DA:77,12
DA:78,12
DA:79,0
DA:80,0
DA:82,12
DA:83,1
DA:84,1
DA:86,11
DA:87,57
DA:88,46
DA:89,46
DA:93,1
DA:94,11
DA:95,1
DA:96,0
DA:97,0
DA:99,1
DA:100,0
DA:101,0
DA:103,1
DA:106,14
DA:107,14
DA:108,1
DA:109,2
DA:111,13
DA:112,2
DA:113,4
DA:116,11
DA:117,11
DA:118,11
DA:121,1
DA:122,1
LF:82
LH:75
end_of_record
TN:
SF:/home/PIDORA666/Desktop/LABA3/LABA3-master/queue.cpp
FN:21,31,_ZN5Queue5QPushENSt7__cxx1112basic_stringIcSt11char_traitsIcESaIcEEE
FN:3,5,_ZN5Queue8is_emptyEv
FN:33,41,_ZN5Queue4QPopEv
FN:7,20,_ZN5Queue6QPrintEv
FNDA:104,_ZN5Queue5QPushENSt7__cxx1112basic_stringIcSt11char_traitsIcESaIcEEE
FNDA:212,_ZN5Queue8is_emptyEv
FNDA:102,_ZN5Queue4QPopEv
FNDA:2,_ZN5Queue6QPrintEv
FNF:4
FNH:4
DA:3,212
DA:4,212
DA:7,2
DA:8,2
DA:9,1
DA:10,1
DA:12,1
DA:13,1
DA:15,2
DA:16,1
DA:17,1
DA:19,1
DA:21,104
DA:22,104
DA:23,104
DA:24,103
DA:25,103
DA:27,1
DA:28,1
DA:29,1
DA:31,104
DA:33,102
DA:34,102
DA:35,0
DA:36,0
DA:38,102
DA:39,102
DA:40,102
LF:28
LH:26
end_of_record
TN:
SF:/home/PIDORA666/Desktop/LABA3/LABA3-master/stack.cpp
FN:15,23,_ZN3Stk4SPOPEv
FN:25,38,_ZN3Stk10printStackEv
FN:4,6,_ZN3Stk8is_emptyEv
FN:8,13,_ZN3Stk5SPUSHENSt7__cxx1112basic_stringIcSt11char_traitsIcESaIcEEE
FNDA:103,_ZN3Stk4SPOPEv
FNDA:2,_ZN3Stk10printStackEv
FNDA:109,_ZN3Stk8is_emptyEv
FNDA:104,_ZN3Stk5SPUSHENSt7__cxx1112basic_stringIcSt11char_traitsIcESaIcEEE
FNF:4
FNH:4
DA:4,109
DA:5,109
DA:8,104
DA:9,104
DA:10,104
DA:11,104
DA:12,104
DA:13,104
DA:15,103
DA:16,103
DA:17,1
DA:18,1
DA:20,102
DA:21,102
DA:22,102
DA:25,2
DA:26,2
DA:27,1
DA:28,1
DA:30,1
DA:31,1
DA:32,2
DA:33,1
DA:34,1
DA:36,1
DA:37,1
LF:26
LH:26
end_of_record
TN:
SF:/usr/include/boost/algorithm/cxx11/all_of.hpp
FN:31,37,_ZN5boost9algorithm6all_ofIN9__gnu_cxx17__normal_iteratorIPcNSt7__cxx1112basic_stringIcSt11char_traitsIcESaIcEEEEEPFbcEEEbT_SE_T0_
FNDA:215,_ZN5boost9algorithm6all_ofIN9__gnu_cxx17__normal_iteratorIPcNSt7__cxx1112basic_stringIcSt11char_traitsIcESaIcEEEEEPFbcEEEbT_SE_T0_
FNF:1
FNH:1
DA:31,215
DA:33,1131
DA:34,916
DA:35,0
DA:36,215
LF:5
LH:4
end_of_record
TN:
SF:/usr/include/boost/bind/arg.hpp
FN:39,41,_ZN5boost3argILi1EEC1Ev
FNDA:0,_ZN5boost3argILi1EEC1Ev
FNF:1
FNH:0
DA:39,0
DA:41,0
LF:2
LH:0
end_of_record
TN:
SF:/usr/include/boost/bind/bind.hpp
FN:102,102,_ZN5boost3_bi5valueINS_10shared_ptrINS_9unit_test17test_unit_fixtureEEEEC2ERKS5_
FN:102,102,_ZN5boost3_bi5valueINS_9unit_test13output_formatEEC2ERKS3_
FN:102,102,_ZN5boost3_bi5valueINS_9unit_test17test_case_counter19readonly_property43EEC2ERKS4_
FN:102,102,_ZN5boost3_bi5valueIPFPNS_9unit_test10test_suiteEiPPcEEC2ERKS8_
FN:102,102,_ZN5boost3_bi5valueIPNS_9unit_test13test_observerEEC2ERKS4_
FN:102,102,_ZN5boost3_bi5valueIPNS_9unit_test15unit_test_log_tEEC2ERKS4_
FN:102,102,_ZN5boost3_bi5valueImEC2ERKm
FN:104,104,_ZN5boost3_bi5valueINS_10shared_ptrINS_9unit_test17test_unit_fixtureEEEE3getEv
FN:104,104,_ZN5boost3_bi5valueINS_9unit_test13output_formatEE3getEv
FN:104,104,_ZN5boost3_bi5valueINS_9unit_test17test_case_counter19readonly_property43EE3getEv
FN:104,104,_ZN5boost3_bi5valueIPFPNS_9unit_test10test_suiteEiPPcEE3getEv
FN:104,104,_ZN5boost3_bi5valueIPNS_9unit_test13test_observerEE3getEv
FN:104,104,_ZN5boost3_bi5valueIPNS_9unit_test15unit_test_log_tEE3getEv
FN:104,104,_ZN5boost3_bi5valueImE3getEv
FN:1267,1267,_ZN5boost3_bi6bind_tIbNS_4_mfi4cmf1IbNS_9unit_test9framework4impl11name_filter9componentERKNS4_9test_unitEEENS0_5list2INS_3argILi1EEENS_17reference_wrapperISA_EEEEEC2ESC_RKSI_
FN:1267,1267,_ZN5boost3_bi6bind_tIvNS_4_mfi3mf0IvNS_9unit_test17test_unit_fixtureEEENS0_5list1INS0_5valueINS_10shared_ptrIS5_EEEEEEEC2ES6_RKSC_
FN:1267,1267,_ZN5boost3_bi6bind_tIvNS_4_mfi3mf1IvNS_9unit_test15unit_test_log_tERSoEENS0_5list2INS0_5valueIPS5_EENS_17reference_wrapperISoEEEEEC2ES7_RKSE_
FN:1267,1267,_ZN5boost3_bi6bind_tIvNS_4_mfi3mf2IvNS_9unit_test13test_observerEmmEENS0_5list3INS0_5valueIPS5_EENS8_INS4_17test_case_counter19readonly_property43EEENS8_ImEEEEEC2ES6_RKSF_
FN:1267,1267,_ZN5boost3_bi6bind_tIvNS_4_mfi3mf2IvNS_9unit_test15unit_test_log_tENS4_13output_formatERSoEENS0_5list3INS0_5valueIPS5_EENSA_IS6_EENS_17reference_wrapperISoEEEEEC2ES8_RKSG_
FN:1267,1267,_ZN5boost3_bi6bind_tIvPFvPFPNS_9unit_test10test_suiteEiPPcEENS0_5list1INS0_5valueIS8_EEEEEC2ESA_RKSE_
FN:1267,1267,_ZN5boost3_bi6bind_tIvPFvRSoENS0_5list1INS_17reference_wrapperISoEEEEEC2ES4_RKS8_
FN:1271,1275,_ZN5boost3_bi6bind_tIvNS_4_mfi3mf0IvNS_9unit_test17test_unit_fixtureEEENS0_5list1INS0_5valueINS_10shared_ptrIS5_EEEEEEEclEv
FN:1271,1275,_ZN5boost3_bi6bind_tIvNS_4_mfi3mf1IvNS_9unit_test15unit_test_log_tERSoEENS0_5list2INS0_5valueIPS5_EENS_17reference_wrapperISoEEEEEclEv
FN:1271,1275,_ZN5boost3_bi6bind_tIvNS_4_mfi3mf2IvNS_9unit_test13test_observerEmmEENS0_5list3INS0_5valueIPS5_EENS8_INS4_17test_case_counter19readonly_property43EEENS8_ImEEEEEclEv
FN:1271,1275,_ZN5boost3_bi6bind_tIvNS_4_mfi3mf2IvNS_9unit_test15unit_test_log_tENS4_13output_formatERSoEENS0_5list3INS0_5valueIPS5_EENSA_IS6_EENS_17reference_wrapperISoEEEEEclEv
FN:1271,1275,_ZN5boost3_bi6bind_tIvPFvPFPNS_9unit_test10test_suiteEiPPcEENS0_5list1INS0_5valueIS8_EEEEEclEv
FN:1271,1275,_ZN5boost3_bi6bind_tIvPFvRSoENS0_5list1INS_17reference_wrapperISoEEEEEclEv
FN:1283,1287,_ZN5boost3_bi6bind_tIbNS_4_mfi4cmf1IbNS_9unit_test9framework4impl11name_filter9componentERKNS4_9test_unitEEENS0_5list2INS_3argILi1EEENS_17reference_wrapperISA_EEEEEclIRKS8_EEbOT_
FN:132,135,_ZN5boost3_bi9unwrapperINS_4_mfi3mf0IvNS_9unit_test17test_unit_fixtureEEEE6unwrapERS6_l
FN:132,135,_ZN5boost3_bi9unwrapperINS_4_mfi3mf1IvNS_9unit_test15unit_test_log_tERSoEEE6unwrapERS7_l
FN:132,135,_ZN5boost3_bi9unwrapperINS_4_mfi3mf2IvNS_9unit_test13test_observerEmmEEE6unwrapERS6_l
FN:132,135,_ZN5boost3_bi9unwrapperINS_4_mfi3mf2IvNS_9unit_test15unit_test_log_tENS4_13output_formatERSoEEE6unwrapERS8_l
FN:132,135,_ZN5boost3_bi9unwrapperINS_4_mfi4cmf1IbNS_9unit_test9framework4impl11name_filter9componentERKNS4_9test_unitEEEE6unwrapERSC_l
FN:132,135,_ZN5boost3_bi9unwrapperIPFvPFPNS_9unit_test10test_suiteEiPPcEEE6unwrapERSA_l
FN:132,135,_ZN5boost3_bi9unwrapperIPFvRSoEE6unwrapERS4_l
FN:154,154,_ZN5boost3_bi5list0C2Ev
FN:156,156,_ZNK5boost3_bi5list0ixINS_10shared_ptrINS_9unit_test17test_unit_fixtureEEEEERT_RNS0_5valueIS7_EE
FN:156,156,_ZNK5boost3_bi5list0ixINS_9unit_test13output_formatEEERT_RNS0_5valueIS5_EE
FN:156,156,_ZNK5boost3_bi5list0ixINS_9unit_test17test_case_counter19readonly_property43EEERT_RNS0_5valueIS6_EE
FN:156,156,_ZNK5boost3_bi5list0ixIPFPNS_9unit_test10test_suiteEiPPcEEERT_RNS0_5valueISA_EE
FN:156,156,_ZNK5boost3_bi5list0ixIPNS_9unit_test13test_observerEEERT_RNS0_5valueIS6_EE
FN:156,156,_ZNK5boost3_bi5list0ixIPNS_9unit_test15unit_test_log_tEEERT_RNS0_5valueIS6_EE
FN:156,156,_ZNK5boost3_bi5list0ixImEERT_RNS0_5valueIS3_EE
FN:160,160,_ZNK5boost3_bi5list0ixISoEERT_RKNS_17reference_wrapperIS3_EE
FN:211,211,_ZN5boost3_bi5list1INS0_5valueINS_10shared_ptrINS_9unit_test17test_unit_fixtureEEEEEEC2ES7_
FN:211,211,_ZN5boost3_bi5list1INS0_5valueIPFPNS_9unit_test10test_suiteEiPPcEEEEC2ESA_
FN:211,211,_ZN5boost3_bi5list1INS_17reference_wrapperISoEEEC2ES3_
FN:237,240,_ZN5boost3_bi5list1INS0_5valueINS_10shared_ptrINS_9unit_test17test_unit_fixtureEEEEEEclINS_4_mfi3mf0IvS5_EENS0_5list0EEEvNS0_4typeIvEERT_RT0_i
FN:237,240,_ZN5boost3_bi5list1INS0_5valueIPFPNS_9unit_test10test_suiteEiPPcEEEEclIPFvS9_ENS0_5list0EEEvNS0_4typeIvEERT_RT0_i
FN:237,240,_ZN5boost3_bi5list1INS_17reference_wrapperISoEEEclIPFvRSoENS0_5list0EEEvNS0_4typeIvEERT_RT0_i
FN:269,269,_ZN5boost3_bi5list2INS0_5valueIPNS_9unit_test15unit_test_log_tEEENS_17reference_wrapperISoEEEC2ES6_S8_
FN:269,269,_ZN5boost3_bi5list2INS_3argILi1EEENS_17reference_wrapperIKNS_9unit_test9test_unitEEEEC2ES3_S8_
FN:287,290,_ZN5boost3_bi5list2INS_3argILi1EEENS_17reference_wrapperIKNS_9unit_test9test_unitEEEEclIbNS_4_mfi4cmf1IbNS5_9framework4impl11name_filter9componentERS7_EENS0_7rrlist1IRKSG_EEEET_NS0_4typeISN_EERT0_RT1_l
FN:297,300,_ZN5boost3_bi5list2INS0_5valueIPNS_9unit_test15unit_test_log_tEEENS_17reference_wrapperISoEEEclINS_4_mfi3mf1IvS4_RSoEENS0_5list0EEEvNS0_4typeIvEERT_RT0_i
FN:346,346,_ZN5boost3_bi5list3INS0_5valueIPNS_9unit_test13test_observerEEENS2_INS3_17test_case_counter19readonly_property43EEENS2_ImEEEC2ES6_S9_SA_
FN:346,346,_ZN5boost3_bi5list3INS0_5valueIPNS_9unit_test15unit_test_log_tEEENS2_INS3_13output_formatEEENS_17reference_wrapperISoEEEC2ES6_S8_SA_
FN:376,379,_ZN5boost3_bi5list3INS0_5valueIPNS_9unit_test13test_observerEEENS2_INS3_17test_case_counter19readonly_property43EEENS2_ImEEEclINS_4_mfi3mf2IvS4_mmEENS0_5list0EEEvNS0_4typeIvEERT_RT0_i
FN:376,379,_ZN5boost3_bi5list3INS0_5valueIPNS_9unit_test15unit_test_log_tEEENS2_INS3_13output_formatEEENS_17reference_wrapperISoEEEclINS_4_mfi3mf2IvS4_S7_RSoEENS0_5list0EEEvNS0_4typeIvEERT_RT0_i
FN:858,858,_ZN5boost3_bi7rrlist1IRKNS_9unit_test9framework4impl11name_filter9componentEEC2ES8_
FN:862,862,_ZNK5boost3_bi7rrlist1IRKNS_9unit_test9framework4impl11name_filter9componentEEixEPFNS_3argILi1EEEvE
FN:868,868,_ZNK5boost3_bi7rrlist1IRKNS_9unit_test9framework4impl11name_filter9componentEEixIKNS2_9test_unitEEERT_RKNS_17reference_wrapperISD_EE
FNDA:0,_ZN5boost3_bi5valueINS_10shared_ptrINS_9unit_test17test_unit_fixtureEEEEC2ERKS5_
FNDA:0,_ZN5boost3_bi5valueINS_9unit_test13output_formatEEC2ERKS3_
FNDA:3,_ZN5boost3_bi5valueINS_9unit_test17test_case_counter19readonly_property43EEC2ERKS4_
FNDA:1,_ZN5boost3_bi5valueIPFPNS_9unit_test10test_suiteEiPPcEEC2ERKS8_
FNDA:3,_ZN5boost3_bi5valueIPNS_9unit_test13test_observerEEC2ERKS4_
FNDA:0,_ZN5boost3_bi5valueIPNS_9unit_test15unit_test_log_tEEC2ERKS4_
FNDA:3,_ZN5boost3_bi5valueImEC2ERKm
FNDA:0,_ZN5boost3_bi5valueINS_10shared_ptrINS_9unit_test17test_unit_fixtureEEEE3getEv
FNDA:0,_ZN5boost3_bi5valueINS_9unit_test13output_formatEE3getEv
FNDA:3,_ZN5boost3_bi5valueINS_9unit_test17test_case_counter19readonly_property43EE3getEv
FNDA:1,_ZN5boost3_bi5valueIPFPNS_9unit_test10test_suiteEiPPcEE3getEv
FNDA:3,_ZN5boost3_bi5valueIPNS_9unit_test13test_observerEE3getEv
FNDA:0,_ZN5boost3_bi5valueIPNS_9unit_test15unit_test_log_tEE3getEv
FNDA:3,_ZN5boost3_bi5valueImE3getEv
FNDA:0,_ZN5boost3_bi6bind_tIbNS_4_mfi4cmf1IbNS_9unit_test9framework4impl11name_filter9componentERKNS4_9test_unitEEENS0_5list2INS_3argILi1EEENS_17reference_wrapperISA_EEEEEC2ESC_RKSI_
FNDA:0,_ZN5boost3_bi6bind_tIvNS_4_mfi3mf0IvNS_9unit_test17test_unit_fixtureEEENS0_5list1INS0_5valueINS_10shared_ptrIS5_EEEEEEEC2ES6_RKSC_
FNDA:0,_ZN5boost3_bi6bind_tIvNS_4_mfi3mf1IvNS_9unit_test15unit_test_log_tERSoEENS0_5list2INS0_5valueIPS5_EENS_17reference_wrapperISoEEEEEC2ES7_RKSE_
FNDA:3,_ZN5boost3_bi6bind_tIvNS_4_mfi3mf2IvNS_9unit_test13test_observerEmmEENS0_5list3INS0_5valueIPS5_EENS8_INS4_17test_case_counter19readonly_property43EEENS8_ImEEEEEC2ES6_RKSF_
FNDA:0,_ZN5boost3_bi6bind_tIvNS_4_mfi3mf2IvNS_9unit_test15unit_test_log_tENS4_13output_formatERSoEENS0_5list3INS0_5valueIPS5_EENSA_IS6_EENS_17reference_wrapperISoEEEEEC2ES8_RKSG_
FNDA:1,_ZN5boost3_bi6bind_tIvPFvPFPNS_9unit_test10test_suiteEiPPcEENS0_5list1INS0_5valueIS8_EEEEEC2ESA_RKSE_
FNDA:0,_ZN5boost3_bi6bind_tIvPFvRSoENS0_5list1INS_17reference_wrapperISoEEEEEC2ES4_RKS8_
FNDA:0,_ZN5boost3_bi6bind_tIvNS_4_mfi3mf0IvNS_9unit_test17test_unit_fixtureEEENS0_5list1INS0_5valueINS_10shared_ptrIS5_EEEEEEEclEv
FNDA:0,_ZN5boost3_bi6bind_tIvNS_4_mfi3mf1IvNS_9unit_test15unit_test_log_tERSoEENS0_5list2INS0_5valueIPS5_EENS_17reference_wrapperISoEEEEEclEv
FNDA:3,_ZN5boost3_bi6bind_tIvNS_4_mfi3mf2IvNS_9unit_test13test_observerEmmEENS0_5list3INS0_5valueIPS5_EENS8_INS4_17test_case_counter19readonly_property43EEENS8_ImEEEEEclEv
FNDA:0,_ZN5boost3_bi6bind_tIvNS_4_mfi3mf2IvNS_9unit_test15unit_test_log_tENS4_13output_formatERSoEENS0_5list3INS0_5valueIPS5_EENSA_IS6_EENS_17reference_wrapperISoEEEEEclEv
FNDA:1,_ZN5boost3_bi6bind_tIvPFvPFPNS_9unit_test10test_suiteEiPPcEENS0_5list1INS0_5valueIS8_EEEEEclEv
FNDA:0,_ZN5boost3_bi6bind_tIvPFvRSoENS0_5list1INS_17reference_wrapperISoEEEEEclEv
FNDA:0,_ZN5boost3_bi6bind_tIbNS_4_mfi4cmf1IbNS_9unit_test9framework4impl11name_filter9componentERKNS4_9test_unitEEENS0_5list2INS_3argILi1EEENS_17reference_wrapperISA_EEEEEclIRKS8_EEbOT_
FNDA:0,_ZN5boost3_bi9unwrapperINS_4_mfi3mf0IvNS_9unit_test17test_unit_fixtureEEEE6unwrapERS6_l
FNDA:0,_ZN5boost3_bi9unwrapperINS_4_mfi3mf1IvNS_9unit_test15unit_test_log_tERSoEEE6unwrapERS7_l
FNDA:3,_ZN5boost3_bi9unwrapperINS_4_mfi3mf2IvNS_9unit_test13test_observerEmmEEE6unwrapERS6_l
FNDA:0,_ZN5boost3_bi9unwrapperINS_4_mfi3mf2IvNS_9unit_test15unit_test_log_tENS4_13output_formatERSoEEE6unwrapERS8_l
FNDA:0,_ZN5boost3_bi9unwrapperINS_4_mfi4cmf1IbNS_9unit_test9framework4impl11name_filter9componentERKNS4_9test_unitEEEE6unwrapERSC_l
FNDA:1,_ZN5boost3_bi9unwrapperIPFvPFPNS_9unit_test10test_suiteEiPPcEEE6unwrapERSA_l
FNDA:0,_ZN5boost3_bi9unwrapperIPFvRSoEE6unwrapERS4_l
FNDA:4,_ZN5boost3_bi5list0C2Ev
FNDA:0,_ZNK5boost3_bi5list0ixINS_10shared_ptrINS_9unit_test17test_unit_fixtureEEEEERT_RNS0_5valueIS7_EE
FNDA:0,_ZNK5boost3_bi5list0ixINS_9unit_test13output_formatEEERT_RNS0_5valueIS5_EE
FNDA:3,_ZNK5boost3_bi5list0ixINS_9unit_test17test_case_counter19readonly_property43EEERT_RNS0_5valueIS6_EE
FNDA:1,_ZNK5boost3_bi5list0ixIPFPNS_9unit_test10test_suiteEiPPcEEERT_RNS0_5valueISA_EE
FNDA:3,_ZNK5boost3_bi5list0ixIPNS_9unit_test13test_observerEEERT_RNS0_5valueIS6_EE
FNDA:0,_ZNK5boost3_bi5list0ixIPNS_9unit_test15unit_test_log_tEEERT_RNS0_5valueIS6_EE
FNDA:3,_ZNK5boost3_bi5list0ixImEERT_RNS0_5valueIS3_EE
FNDA:0,_ZNK5boost3_bi5list0ixISoEERT_RKNS_17reference_wrapperIS3_EE
FNDA:0,_ZN5boost3_bi5list1INS0_5valueINS_10shared_ptrINS_9unit_test17test_unit_fixtureEEEEEEC2ES7_
FNDA:1,_ZN5boost3_bi5list1INS0_5valueIPFPNS_9unit_test10test_suiteEiPPcEEEEC2ESA_
FNDA:0,_ZN5boost3_bi5list1INS_17reference_wrapperISoEEEC2ES3_
FNDA:0,_ZN5boost3_bi5list1INS0_5valueINS_10shared_ptrINS_9unit_test17test_unit_fixtureEEEEEEclINS_4_mfi3mf0IvS5_EENS0_5list0EEEvNS0_4typeIvEERT_RT0_i
FNDA:1,_ZN5boost3_bi5list1INS0_5valueIPFPNS_9unit_test10test_suiteEiPPcEEEEclIPFvS9_ENS0_5list0EEEvNS0_4typeIvEERT_RT0_i
FNDA:0,_ZN5boost3_bi5list1INS_17reference_wrapperISoEEEclIPFvRSoENS0_5list0EEEvNS0_4typeIvEERT_RT0_i
FNDA:0,_ZN5boost3_bi5list2INS0_5valueIPNS_9unit_test15unit_test_log_tEEENS_17reference_wrapperISoEEEC2ES6_S8_
FNDA:0,_ZN5boost3_bi5list2INS_3argILi1EEENS_17reference_wrapperIKNS_9unit_test9test_unitEEEEC2ES3_S8_
FNDA:0,_ZN5boost3_bi5list2INS_3argILi1EEENS_17reference_wrapperIKNS_9unit_test9test_unitEEEEclIbNS_4_mfi4cmf1IbNS5_9framework4impl11name_filter9componentERS7_EENS0_7rrlist1IRKSG_EEEET_NS0_4typeISN_EERT0_RT1_l
FNDA:0,_ZN5boost3_bi5list2INS0_5valueIPNS_9unit_test15unit_test_log_tEEENS_17reference_wrapperISoEEEclINS_4_mfi3mf1IvS4_RSoEENS0_5list0EEEvNS0_4typeIvEERT_RT0_i
FNDA:3,_ZN5boost3_bi5list3INS0_5valueIPNS_9unit_test13test_observerEEENS2_INS3_17test_case_counter19readonly_property43EEENS2_ImEEEC2ES6_S9_SA_
FNDA:0,_ZN5boost3_bi5list3INS0_5valueIPNS_9unit_test15unit_test_log_tEEENS2_INS3_13output_formatEEENS_17reference_wrapperISoEEEC2ES6_S8_SA_
FNDA:3,_ZN5boost3_bi5list3INS0_5valueIPNS_9unit_test13test_observerEEENS2_INS3_17test_case_counter19readonly_property43EEENS2_ImEEEclINS_4_mfi3mf2IvS4_mmEENS0_5list0EEEvNS0_4typeIvEERT_RT0_i
FNDA:0,_ZN5boost3_bi5list3INS0_5valueIPNS_9unit_test15unit_test_log_tEEENS2_INS3_13output_formatEEENS_17reference_wrapperISoEEEclINS_4_mfi3mf2IvS4_S7_RSoEENS0_5list0EEEvNS0_4typeIvEERT_RT0_i
FNDA:0,_ZN5boost3_bi7rrlist1IRKNS_9unit_test9framework4impl11name_filter9componentEEC2ES8_
FNDA:0,_ZNK5boost3_bi7rrlist1IRKNS_9unit_test9framework4impl11name_filter9componentEEixEPFNS_3argILi1EEEvE
FNDA:0,_ZNK5boost3_bi7rrlist1IRKNS_9unit_test9framework4impl11name_filter9componentEEixIKNS2_9test_unitEEERT_RKNS_17reference_wrapperISD_EE
FNF:61
FNH:23
DA:102,10
DA:104,10
DA:132,4
DA:134,4
DA:154,4
DA:156,10
DA:160,0
DA:211,1
DA:237,1
DA:239,1
DA:240,1
DA:269,0
DA:287,0
DA:289,0
DA:297,0
DA:299,0
DA:300,0
DA:346,3
DA:376,3
DA:378,3
DA:379,3
DA:858,0
DA:862,0
DA:868,0
DA:1267,4
DA:1271,4
DA:1273,4
DA:1274,8
DA:1283,0
DA:1285,0
DA:1286,0
LF:31
LH:18
end_of_record
TN:
SF:/usr/include/boost/bind/bind_cc.hpp
FN:26,31,_ZN5boost4bindIvPFPNS_9unit_test10test_suiteEiPPcES7_EENS_3_bi6bind_tIT_PFSA_T0_ENS8_9list_av_1IT1_E4typeEEESD_SF_
FN:26,31,_ZN5boost4bindIvRSoNS_17reference_wrapperISoEEEENS_3_bi6bind_tIT_PFS6_T0_ENS4_9list_av_1IT1_E4typeEEES9_SB_
FNDA:1,_ZN5boost4bindIvPFPNS_9unit_test10test_suiteEiPPcES7_EENS_3_bi6bind_tIT_PFSA_T0_ENS8_9list_av_1IT1_E4typeEEESD_SF_
FNDA:0,_ZN5boost4bindIvRSoNS_17reference_wrapperISoEEEENS_3_bi6bind_tIT_PFS6_T0_ENS4_9list_av_1IT1_E4typeEEES9_SB_
FNF:2
FNH:1
DA:26,1
DA:30,1
LF:2
LH:2
end_of_record
TN:
SF:/usr/include/boost/bind/bind_mf_cc.hpp
FN:113,118,_ZN5boost4bindIvNS_9unit_test13test_observerEmmPS2_NS1_17test_case_counter19readonly_property43EmEENS_3_bi6bind_tIT_NS_4_mfi3mf2IS8_T0_T1_T2_EENS6_9list_av_3IT3_T4_T5_E4typeEEEMSB_FS8_SC_SD_ESG_SH_SI_
FN:113,118,_ZN5boost4bindIvNS_9unit_test15unit_test_log_tENS1_13output_formatERSoPS2_S3_NS_17reference_wrapperISoEEEENS_3_bi6bind_tIT_NS_4_mfi3mf2ISA_T0_T1_T2_EENS8_9list_av_3IT3_T4_T5_E4typeEEEMSD_FSA_SE_SF_ESI_SJ_SK_
FN:20,25,_ZN5boost4bindIvNS_9unit_test17test_unit_fixtureENS_10shared_ptrIS2_EEEENS_3_bi6bind_tIT_NS_4_mfi3mf0IS7_T0_EENS5_9list_av_1IT1_E4typeEEEMSA_FS7_vESD_
FN:65,70,_ZN5boost4bindIvNS_9unit_test15unit_test_log_tERSoPS2_NS_17reference_wrapperISoEEEENS_3_bi6bind_tIT_NS_4_mfi3mf1IS9_T0_T1_EENS7_9list_av_2IT2_T3_E4typeEEEMSC_FS9_SD_ESG_SH_
FN:76,81,_ZN5boost4bindIbNS_9unit_test9framework4impl11name_filter9componentERKNS1_9test_unitENS_3argILi1EEENS_17reference_wrapperIS7_EEEENS_3_bi6bind_tIT_NS_4_mfi4cmf1ISF_T0_T1_EENSD_9list_av_2IT2_T3_E4typeEEEMSI_KFSF_SJ_ESM_SN_
FNDA:3,_ZN5boost4bindIvNS_9unit_test13test_observerEmmPS2_NS1_17test_case_counter19readonly_property43EmEENS_3_bi6bind_tIT_NS_4_mfi3mf2IS8_T0_T1_T2_EENS6_9list_av_3IT3_T4_T5_E4typeEEEMSB_FS8_SC_SD_ESG_SH_SI_
FNDA:0,_ZN5boost4bindIvNS_9unit_test15unit_test_log_tENS1_13output_formatERSoPS2_S3_NS_17reference_wrapperISoEEEENS_3_bi6bind_tIT_NS_4_mfi3mf2ISA_T0_T1_T2_EENS8_9list_av_3IT3_T4_T5_E4typeEEEMSD_FSA_SE_SF_ESI_SJ_SK_
FNDA:0,_ZN5boost4bindIvNS_9unit_test17test_unit_fixtureENS_10shared_ptrIS2_EEEENS_3_bi6bind_tIT_NS_4_mfi3mf0IS7_T0_EENS5_9list_av_1IT1_E4typeEEEMSA_FS7_vESD_
FNDA:0,_ZN5boost4bindIvNS_9unit_test15unit_test_log_tERSoPS2_NS_17reference_wrapperISoEEEENS_3_bi6bind_tIT_NS_4_mfi3mf1IS9_T0_T1_EENS7_9list_av_2IT2_T3_E4typeEEEMSC_FS9_SD_ESG_SH_
FNDA:0,_ZN5boost4bindIbNS_9unit_test9framework4impl11name_filter9componentERKNS1_9test_unitENS_3argILi1EEENS_17reference_wrapperIS7_EEEENS_3_bi6bind_tIT_NS_4_mfi4cmf1ISF_T0_T1_EENSD_9list_av_2IT2_T3_E4typeEEEMSI_KFSF_SJ_ESM_SN_
FNF:5
FNH:1
DA:20,0
DA:24,0
DA:65,0
DA:69,0
DA:76,0
DA:80,0
DA:113,3
DA:117,3
LF:8
LH:2
end_of_record
TN:
SF:/usr/include/boost/bind/mem_fn_template.hpp
FN:161,161,_ZN5boost4_mfi3mf1IvNS_9unit_test15unit_test_log_tERSoEC2EMS3_FvS4_E
FN:163,166,_ZNK5boost4_mfi3mf1IvNS_9unit_test15unit_test_log_tERSoEclEPS3_S4_
FN:227,227,_ZN5boost4_mfi4cmf1IbNS_9unit_test9framework4impl11name_filter9componentERKNS2_9test_unitEEC2EMS6_KFbS9_E
FN:235,238,_ZNK5boost4_mfi4cmf1IbNS_9unit_test9framework4impl11name_filter9componentERKNS2_9test_unitEEclERKS6_S9_
FN:276,276,_ZN5boost4_mfi3mf2IvNS_9unit_test13test_observerEmmEC2EMS3_FvmmE
FN:276,276,_ZN5boost4_mfi3mf2IvNS_9unit_test15unit_test_log_tENS2_13output_formatERSoEC2EMS3_FvS4_S5_E
FN:278,281,_ZNK5boost4_mfi3mf2IvNS_9unit_test13test_observerEmmEclEPS3_mm
FN:278,281,_ZNK5boost4_mfi3mf2IvNS_9unit_test15unit_test_log_tENS2_13output_formatERSoEclEPS3_S4_S5_
FN:38,41,_ZNK5boost4_mfi3mf0IvNS_9unit_test17test_unit_fixtureEE4callINS_10shared_ptrIS3_EEEEvRT_PKv
FN:45,45,_ZN5boost4_mfi3mf0IvNS_9unit_test17test_unit_fixtureEEC2EMS3_FvvE
FN:52,56,_ZNK5boost4_mfi3mf0IvNS_9unit_test17test_unit_fixtureEEclINS_10shared_ptrIS3_EEEEvRT_
FNDA:0,_ZN5boost4_mfi3mf1IvNS_9unit_test15unit_test_log_tERSoEC2EMS3_FvS4_E
FNDA:0,_ZNK5boost4_mfi3mf1IvNS_9unit_test15unit_test_log_tERSoEclEPS3_S4_
FNDA:0,_ZN5boost4_mfi4cmf1IbNS_9unit_test9framework4impl11name_filter9componentERKNS2_9test_unitEEC2EMS6_KFbS9_E
FNDA:0,_ZNK5boost4_mfi4cmf1IbNS_9unit_test9framework4impl11name_filter9componentERKNS2_9test_unitEEclERKS6_S9_
FNDA:3,_ZN5boost4_mfi3mf2IvNS_9unit_test13test_observerEmmEC2EMS3_FvmmE
FNDA:0,_ZN5boost4_mfi3mf2IvNS_9unit_test15unit_test_log_tENS2_13output_formatERSoEC2EMS3_FvS4_S5_E
FNDA:3,_ZNK5boost4_mfi3mf2IvNS_9unit_test13test_observerEmmEclEPS3_mm
FNDA:0,_ZNK5boost4_mfi3mf2IvNS_9unit_test15unit_test_log_tENS2_13output_formatERSoEclEPS3_S4_S5_
FNDA:0,_ZNK5boost4_mfi3mf0IvNS_9unit_test17test_unit_fixtureEE4callINS_10shared_ptrIS3_EEEEvRT_PKv
FNDA:0,_ZN5boost4_mfi3mf0IvNS_9unit_test17test_unit_fixtureEEC2EMS3_FvvE
FNDA:0,_ZNK5boost4_mfi3mf0IvNS_9unit_test17test_unit_fixtureEEclINS_10shared_ptrIS3_EEEEvRT_
FNF:11
FNH:2
DA:38,0
DA:40,0
DA:45,0
DA:52,0
DA:54,0
DA:55,0
DA:161,0
DA:163,0
DA:165,0
DA:227,0
DA:235,0
DA:237,0
DA:276,3
DA:278,3
DA:280,3
LF:15
LH:3
end_of_record
TN:
SF:/usr/include/boost/bind/storage.hpp
FN:130,130,_ZN5boost3_bi8storage3INS0_5valueIPNS_9unit_test13test_observerEEENS2_INS3_17test_case_counter19readonly_property43EEENS2_ImEEEC2ES6_S9_SA_
FN:130,130,_ZN5boost3_bi8storage3INS0_5valueIPNS_9unit_test15unit_test_log_tEEENS2_INS3_13output_formatEEENS_17reference_wrapperISoEEEC2ES6_S8_SA_
FN:43,43,_ZN5boost3_bi8storage1INS0_5valueINS_10shared_ptrINS_9unit_test17test_unit_fixtureEEEEEEC2ES7_
FN:43,43,_ZN5boost3_bi8storage1INS0_5valueIPFPNS_9unit_test10test_suiteEiPPcEEEEC2ESA_
FN:43,43,_ZN5boost3_bi8storage1INS0_5valueIPNS_9unit_test13test_observerEEEEC2ES6_
FN:43,43,_ZN5boost3_bi8storage1INS0_5valueIPNS_9unit_test15unit_test_log_tEEEEC2ES6_
FN:43,43,_ZN5boost3_bi8storage1INS_17reference_wrapperISoEEEC2ES3_
FN:57,57,_ZN5boost3_bi8storage1INS_3argILi1EEEEC2ES3_
FN:61,61,_ZN5boost3_bi8storage1INS_3argILi1EEEE3a1_Ev
FN:81,81,_ZN5boost3_bi8storage2INS0_5valueIPNS_9unit_test13test_observerEEENS2_INS3_17test_case_counter19readonly_property43EEEEC2ES6_S9_
FN:81,81,_ZN5boost3_bi8storage2INS0_5valueIPNS_9unit_test15unit_test_log_tEEENS2_INS3_13output_formatEEEEC2ES6_S8_
FN:81,81,_ZN5boost3_bi8storage2INS0_5valueIPNS_9unit_test15unit_test_log_tEEENS_17reference_wrapperISoEEEC2ES6_S8_
FN:81,81,_ZN5boost3_bi8storage2INS_3argILi1EEENS_17reference_wrapperIKNS_9unit_test9test_unitEEEEC2ES3_S8_
FNDA:3,_ZN5boost3_bi8storage3INS0_5valueIPNS_9unit_test13test_observerEEENS2_INS3_17test_case_counter19readonly_property43EEENS2_ImEEEC2ES6_S9_SA_
FNDA:0,_ZN5boost3_bi8storage3INS0_5valueIPNS_9unit_test15unit_test_log_tEEENS2_INS3_13output_formatEEENS_17reference_wrapperISoEEEC2ES6_S8_SA_
FNDA:0,_ZN5boost3_bi8storage1INS0_5valueINS_10shared_ptrINS_9unit_test17test_unit_fixtureEEEEEEC2ES7_
FNDA:1,_ZN5boost3_bi8storage1INS0_5valueIPFPNS_9unit_test10test_suiteEiPPcEEEEC2ESA_
FNDA:3,_ZN5boost3_bi8storage1INS0_5valueIPNS_9unit_test13test_observerEEEEC2ES6_
FNDA:0,_ZN5boost3_bi8storage1INS0_5valueIPNS_9unit_test15unit_test_log_tEEEEC2ES6_
FNDA:0,_ZN5boost3_bi8storage1INS_17reference_wrapperISoEEEC2ES3_
FNDA:0,_ZN5boost3_bi8storage1INS_3argILi1EEEEC2ES3_
FNDA:0,_ZN5boost3_bi8storage1INS_3argILi1EEEE3a1_Ev
FNDA:3,_ZN5boost3_bi8storage2INS0_5valueIPNS_9unit_test13test_observerEEENS2_INS3_17test_case_counter19readonly_property43EEEEC2ES6_S9_
FNDA:0,_ZN5boost3_bi8storage2INS0_5valueIPNS_9unit_test15unit_test_log_tEEENS2_INS3_13output_formatEEEEC2ES6_S8_
FNDA:0,_ZN5boost3_bi8storage2INS0_5valueIPNS_9unit_test15unit_test_log_tEEENS_17reference_wrapperISoEEEC2ES6_S8_
FNDA:0,_ZN5boost3_bi8storage2INS_3argILi1EEENS_17reference_wrapperIKNS_9unit_test9test_unitEEEEC2ES3_S8_
FNF:13
FNH:4
DA:43,4
DA:57,0
DA:61,0
DA:81,3
DA:130,3
LF:5
LH:3
end_of_record
TN:
SF:/usr/include/boost/core/addressof.hpp
FN:38,41,_ZN5boost9addressofIKNS_7runtime16parameter_cla_idEEEPT_RS4_
FN:38,41,_ZN5boost9addressofIKNS_9unit_test9test_unitEEEPT_RS4_
FN:38,41,_ZN5boost9addressofIKNSt7__cxx1112basic_stringIcSt11char_traitsIcESaIcEEEEEPT_RS8_
FN:38,41,_ZN5boost9addressofIKSt6vectorINSt7__cxx1112basic_stringIcSt11char_traitsIcESaIcEEESaIS7_EEEEPT_RSB_
FN:38,41,_ZN5boost9addressofINS_3_bi6bind_tIvNS_4_mfi3mf0IvNS_9unit_test17test_unit_fixtureEEENS1_5list1INS1_5valueINS_10shared_ptrIS6_EEEEEEEEEEPT_RSF_
FN:38,41,_ZN5boost9addressofINS_3_bi6bind_tIvNS_4_mfi3mf1IvNS_9unit_test15unit_test_log_tERSoEENS1_5list2INS1_5valueIPS6_EENS_17reference_wrapperISoEEEEEEEEPT_RSH_
FN:38,41,_ZN5boost9addressofINS_3_bi6bind_tIvNS_4_mfi3mf2IvNS_9unit_test13test_observerEmmEENS1_5list3INS1_5valueIPS6_EENS9_INS5_17test_case_counter19readonly_property43EEENS9_ImEEEEEEEEPT_RSI_
FN:38,41,_ZN5boost9addressofINS_3_bi6bind_tIvNS_4_mfi3mf2IvNS_9unit_test15unit_test_log_tENS5_13output_formatERSoEENS1_5list3INS1_5valueIPS6_EENSB_IS7_EENS_17reference_wrapperISoEEEEEEEEPT_RSJ_
FN:38,41,_ZN5boost9addressofINS_3_bi6bind_tIvPFvPFPNS_9unit_test10test_suiteEiPPcEENS1_5list1INS1_5valueIS9_EEEEEEEEPT_RSH_
FN:38,41,_ZN5boost9addressofINS_3_bi6bind_tIvPFvRSoENS1_5list1INS_17reference_wrapperISoEEEEEEEEPT_RSB_
FN:38,41,_ZN5boost9addressofINS_6detail13sp_ms_deleterINS_9unit_test14runtime_config13stream_holder16callback_cleanerEEEEEPT_RS8_
FN:38,41,_ZN5boost9addressofINS_6detail7forwardEEEPT_RS3_
FN:38,41,_ZN5boost9addressofINS_9unit_test13basic_cstringIKcEEEEPT_RS5_
FN:38,41,_ZN5boost9addressofISoEEPT_RS1_
FN:38,41,_ZN5boost9addressofIZNS_9unit_test14runtime_config12_GLOBAL__N_119register_parametersERNS_7runtime16parameters_storeEEUlNS1_13basic_cstringIKcEEE_EEPT_RSB_
FNDA:675,_ZN5boost9addressofIKNS_7runtime16parameter_cla_idEEEPT_RS4_
FNDA:0,_ZN5boost9addressofIKNS_9unit_test9test_unitEEEPT_RS4_
FNDA:0,_ZN5boost9addressofIKNSt7__cxx1112basic_stringIcSt11char_traitsIcESaIcEEEEEPT_RS8_
FNDA:0,_ZN5boost9addressofIKSt6vectorINSt7__cxx1112basic_stringIcSt11char_traitsIcESaIcEEESaIS7_EEEEPT_RSB_
FNDA:0,_ZN5boost9addressofINS_3_bi6bind_tIvNS_4_mfi3mf0IvNS_9unit_test17test_unit_fixtureEEENS1_5list1INS1_5valueINS_10shared_ptrIS6_EEEEEEEEEEPT_RSF_
FNDA:0,_ZN5boost9addressofINS_3_bi6bind_tIvNS_4_mfi3mf1IvNS_9unit_test15unit_test_log_tERSoEENS1_5list2INS1_5valueIPS6_EENS_17reference_wrapperISoEEEEEEEEPT_RSH_
FNDA:3,_ZN5boost9addressofINS_3_bi6bind_tIvNS_4_mfi3mf2IvNS_9unit_test13test_observerEmmEENS1_5list3INS1_5valueIPS6_EENS9_INS5_17test_case_counter19readonly_property43EEENS9_ImEEEEEEEEPT_RSI_
FNDA:0,_ZN5boost9addressofINS_3_bi6bind_tIvNS_4_mfi3mf2IvNS_9unit_test15unit_test_log_tENS5_13output_formatERSoEENS1_5list3INS1_5valueIPS6_EENSB_IS7_EENS_17reference_wrapperISoEEEEEEEEPT_RSJ_
FNDA:1,_ZN5boost9addressofINS_3_bi6bind_tIvPFvPFPNS_9unit_test10test_suiteEiPPcEENS1_5list1INS1_5valueIS9_EEEEEEEEPT_RSH_
FNDA:0,_ZN5boost9addressofINS_3_bi6bind_tIvPFvRSoENS1_5list1INS_17reference_wrapperISoEEEEEEEEPT_RSB_
FNDA:0,_ZN5boost9addressofINS_6detail13sp_ms_deleterINS_9unit_test14runtime_config13stream_holder16callback_cleanerEEEEEPT_RS8_
FNDA:50,_ZN5boost9addressofINS_6detail7forwardEEEPT_RS3_
FNDA:0,_ZN5boost9addressofINS_9unit_test13basic_cstringIKcEEEEPT_RS5_
FNDA:0,_ZN5boost9addressofISoEEPT_RS1_
FNDA:1,_ZN5boost9addressofIZNS_9unit_test14runtime_config12_GLOBAL__N_119register_parametersERNS_7runtime16parameters_storeEEUlNS1_13basic_cstringIKcEEE_EEPT_RSB_
FNF:15
FNH:5
DA:38,730
DA:40,730
LF:2
LH:2
end_of_record
TN:
SF:/usr/include/boost/core/checked_delete.hpp
FN:31,45,_ZN5boost14checked_deleteINS_16exception_detail15error_info_baseEEEvPT_
FN:31,45,_ZN5boost14checked_deleteINS_23basic_wrap_stringstreamIcEEEEvPT_
FN:31,45,_ZN5boost14checked_deleteINS_2io18ios_base_all_saverEEEvPT_
FN:31,45,_ZN5boost14checked_deleteINS_7runtime14enum_parameterINS_9unit_test12report_levelELNS1_11args_amountE0EEEEEvPT_
FN:31,45,_ZN5boost14checked_deleteINS_7runtime14enum_parameterINS_9unit_test13output_formatELNS1_11args_amountE0EEEEEvPT_
FN:31,45,_ZN5boost14checked_deleteINS_7runtime14enum_parameterINS_9unit_test9log_levelELNS1_11args_amountE0EEEEEvPT_
FN:31,45,_ZN5boost14checked_deleteINS_7runtime14typed_argumentINS_9unit_test12report_levelEEEEEvPT_
FN:31,45,_ZN5boost14checked_deleteINS_7runtime14typed_argumentINS_9unit_test13output_formatEEEEEvPT_
FN:31,45,_ZN5boost14checked_deleteINS_7runtime14typed_argumentINS_9unit_test9log_levelEEEEEvPT_
FN:31,45,_ZN5boost14checked_deleteINS_7runtime14typed_argumentINSt7__cxx1112basic_stringIcSt11char_traitsIcESaIcEEEEEEEvPT_
FN:31,45,_ZN5boost14checked_deleteINS_7runtime14typed_argumentISt6vectorINSt7__cxx1112basic_stringIcSt11char_traitsIcESaIcEEESaIS9_EEEEEEvPT_
FN:31,45,_ZN5boost14checked_deleteINS_7runtime14typed_argumentIbEEEEvPT_
FN:31,45,_ZN5boost14checked_deleteINS_7runtime14typed_argumentIjEEEEvPT_
FN:31,45,_ZN5boost14checked_deleteINS_7runtime14typed_argumentImEEEEvPT_
FN:31,45,_ZN5boost14checked_deleteINS_7runtime3cla13rt_cla_detail14parameter_trieEEEvPT_
FN:31,45,_ZN5boost14checked_deleteINS_7runtime3cla6parserEEEvPT_
FN:31,45,_ZN5boost14checked_deleteINS_7runtime6optionEEEvPT_
FN:31,45,_ZN5boost14checked_deleteINS_7runtime9parameterINS_9unit_test12report_levelELNS1_11args_amountE0ELb1EEEEEvPT_
FN:31,45,_ZN5boost14checked_deleteINS_7runtime9parameterINS_9unit_test13output_formatELNS1_11args_amountE0ELb1EEEEEvPT_
FN:31,45,_ZN5boost14checked_deleteINS_7runtime9parameterINS_9unit_test9log_levelELNS1_11args_amountE0ELb1EEEEEvPT_
FN:31,45,_ZN5boost14checked_deleteINS_7runtime9parameterINSt7__cxx1112basic_stringIcSt11char_traitsIcESaIcEEELNS1_11args_amountE0ELb0EEEEEvPT_
FN:31,45,_ZN5boost14checked_deleteINS_7runtime9parameterINSt7__cxx1112basic_stringIcSt11char_traitsIcESaIcEEELNS1_11args_amountE2ELb0EEEEEvPT_
FN:31,45,_ZN5boost14checked_deleteINS_7runtime9parameterIjLNS1_11args_amountE0ELb0EEEEEvPT_
FN:31,45,_ZN5boost14checked_deleteINS_7runtime9parameterImLNS1_11args_amountE0ELb0EEEEEvPT_
FN:31,45,_ZN5boost14checked_deleteINS_9unit_test16progress_displayEEEvPT_
FN:31,45,_ZN5boost14checked_deleteINS_9unit_test16results_reporter6formatEEEvPT_
FN:31,45,_ZN5boost14checked_deleteINS_9unit_test23unit_test_log_formatterEEEvPT_
FN:31,45,_ZN5boost14checked_deleteINS_9unit_test9decorator10depends_onEEEvPT_
FN:31,45,_ZN5boost14checked_deleteINS_9unit_test9decorator11descriptionEEEvPT_
FN:31,45,_ZN5boost14checked_deleteINS_9unit_test9decorator12preconditionEEEvPT_
FN:31,45,_ZN5boost14checked_deleteINS_9unit_test9decorator15stack_decoratorEEEvPT_
FN:31,45,_ZN5boost14checked_deleteINS_9unit_test9decorator17expected_failuresEEEvPT_
FN:31,45,_ZN5boost14checked_deleteINS_9unit_test9decorator5labelEEEvPT_
FN:31,45,_ZN5boost14checked_deleteINS_9unit_test9decorator7timeoutEEEvPT_
FN:31,45,_ZN5boost14checked_deleteINS_9unit_test9decorator9fixture_tEEEvPT_
FN:31,45,_ZN5boost14checked_deleteINS_9unit_test9framework4impl21global_fixture_handleEEEvPT_
FN:47,61,_ZN5boost20checked_array_deleteIcEEvPT_
FNDA:0,_ZN5boost14checked_deleteINS_16exception_detail15error_info_baseEEEvPT_
FNDA:0,_ZN5boost14checked_deleteINS_23basic_wrap_stringstreamIcEEEEvPT_
FNDA:8,_ZN5boost14checked_deleteINS_2io18ios_base_all_saverEEEvPT_
FNDA:1,_ZN5boost14checked_deleteINS_7runtime14enum_parameterINS_9unit_test12report_levelELNS1_11args_amountE0EEEEEvPT_
FNDA:4,_ZN5boost14checked_deleteINS_7runtime14enum_parameterINS_9unit_test13output_formatELNS1_11args_amountE0EEEEEvPT_
FNDA:1,_ZN5boost14checked_deleteINS_7runtime14enum_parameterINS_9unit_test9log_levelELNS1_11args_amountE0EEEEEvPT_
FNDA:1,_ZN5boost14checked_deleteINS_7runtime14typed_argumentINS_9unit_test12report_levelEEEEEvPT_
FNDA:3,_ZN5boost14checked_deleteINS_7runtime14typed_argumentINS_9unit_test13output_formatEEEEEvPT_
FNDA:1,_ZN5boost14checked_deleteINS_7runtime14typed_argumentINS_9unit_test9log_levelEEEEEvPT_
FNDA:1,_ZN5boost14checked_deleteINS_7runtime14typed_argumentINSt7__cxx1112basic_stringIcSt11char_traitsIcESaIcEEEEEEEvPT_
FNDA:2,_ZN5boost14checked_deleteINS_7runtime14typed_argumentISt6vectorINSt7__cxx1112basic_stringIcSt11char_traitsIcESaIcEEESaIS9_EEEEEEvPT_
FNDA:13,_ZN5boost14checked_deleteINS_7runtime14typed_argumentIbEEEEvPT_
FNDA:1,_ZN5boost14checked_deleteINS_7runtime14typed_argumentIjEEEEvPT_
FNDA:1,_ZN5boost14checked_deleteINS_7runtime14typed_argumentImEEEEvPT_
FNDA:572,_ZN5boost14checked_deleteINS_7runtime3cla13rt_cla_detail14parameter_trieEEEvPT_
FNDA:1,_ZN5boost14checked_deleteINS_7runtime3cla6parserEEEvPT_
FNDA:13,_ZN5boost14checked_deleteINS_7runtime6optionEEEvPT_
FNDA:0,_ZN5boost14checked_deleteINS_7runtime9parameterINS_9unit_test12report_levelELNS1_11args_amountE0ELb1EEEEEvPT_
FNDA:0,_ZN5boost14checked_deleteINS_7runtime9parameterINS_9unit_test13output_formatELNS1_11args_amountE0ELb1EEEEEvPT_
FNDA:0,_ZN5boost14checked_deleteINS_7runtime9parameterINS_9unit_test9log_levelELNS1_11args_amountE0ELb1EEEEEvPT_
FNDA:5,_ZN5boost14checked_deleteINS_7runtime9parameterINSt7__cxx1112basic_stringIcSt11char_traitsIcESaIcEEELNS1_11args_amountE0ELb0EEEEEvPT_
FNDA:2,_ZN5boost14checked_deleteINS_7runtime9parameterINSt7__cxx1112basic_stringIcSt11char_traitsIcESaIcEEELNS1_11args_amountE2ELb0EEEEEvPT_
FNDA:1,_ZN5boost14checked_deleteINS_7runtime9parameterIjLNS1_11args_amountE0ELb0EEEEEvPT_
FNDA:1,_ZN5boost14checked_deleteINS_7runtime9parameterImLNS1_11args_amountE0ELb0EEEEEvPT_
FNDA:0,_ZN5boost14checked_deleteINS_9unit_test16progress_displayEEEvPT_
FNDA:2,_ZN5boost14checked_deleteINS_9unit_test16results_reporter6formatEEEvPT_
FNDA:3,_ZN5boost14checked_deleteINS_9unit_test23unit_test_log_formatterEEEvPT_
FNDA:0,_ZN5boost14checked_deleteINS_9unit_test9decorator10depends_onEEEvPT_
FNDA:0,_ZN5boost14checked_deleteINS_9unit_test9decorator11descriptionEEEvPT_
FNDA:0,_ZN5boost14checked_deleteINS_9unit_test9decorator12preconditionEEEvPT_
FNDA:0,_ZN5boost14checked_deleteINS_9unit_test9decorator15stack_decoratorEEEvPT_
FNDA:0,_ZN5boost14checked_deleteINS_9unit_test9decorator17expected_failuresEEEvPT_
FNDA:0,_ZN5boost14checked_deleteINS_9unit_test9decorator5labelEEEvPT_
FNDA:0,_ZN5boost14checked_deleteINS_9unit_test9decorator7timeoutEEEvPT_
FNDA:0,_ZN5boost14checked_deleteINS_9unit_test9decorator9fixture_tEEEvPT_
FNDA:0,_ZN5boost14checked_deleteINS_9unit_test9framework4impl21global_fixture_handleEEEvPT_
FNDA:4,_ZN5boost20checked_array_deleteIcEEvPT_
FNF:37
FNH:22
DA:31,637
DA:44,637
DA:45,637
DA:47,4
DA:60,4
DA:61,4
LF:6
LH:6
end_of_record
TN:
SF:/usr/include/boost/core/demangle.hpp
FN:59,62,_ZN5boost4core21scoped_demangled_nameC2EPKc
FN:64,67,_ZN5boost4core21scoped_demangled_nameD2Ev
FN:69,72,_ZNK5boost4core21scoped_demangled_name3getEv
FN:81,86,_ZN5boost4core14demangle_allocEPKc
FN:88,91,_ZN5boost4core13demangle_freeEPKc
FN:93,100,_ZN5boost4core8demangleB5cxx11EPKc
FNDA:0,_ZN5boost4core21scoped_demangled_nameC2EPKc
FNDA:0,_ZN5boost4core21scoped_demangled_nameD2Ev
FNDA:0,_ZNK5boost4core21scoped_demangled_name3getEv
FNDA:0,_ZN5boost4core14demangle_allocEPKc
FNDA:0,_ZN5boost4core13demangle_freeEPKc
FNDA:0,_ZN5boost4core8demangleB5cxx11EPKc
FNF:6
FNH:0
DA:59,0
DA:60,0
DA:62,0
DA:64,0
DA:66,0
DA:67,0
DA:69,0
DA:71,0
DA:81,0
DA:83,0
DA:84,0
DA:85,0
DA:88,0
DA:90,0
DA:91,0
DA:93,0
DA:95,0
DA:96,0
DA:97,0
DA:98,0
DA:99,0
DA:100,0
LF:22
LH:0
end_of_record
TN:
SF:/usr/include/boost/core/ignore_unused.hpp
FNF:0
FNH:0
DA:20,0
LF:1
LH:0
end_of_record
TN:
SF:/usr/include/boost/core/ref.hpp
FNF:0
FNH:0
DA:95,0
DA:137,0
DA:143,0
DA:183,0
LF:4
LH:0
end_of_record
TN:
SF:/usr/include/boost/exception/current_exception_cast.hpp
FN:27,43,_ZN5boost22current_exception_castIKNS_9exceptionEEEPT_v
FNDA:0,_ZN5boost22current_exception_castIKNS_9exceptionEEEPT_v
FNF:1
FNH:0
DA:27,0
DA:31,0
DA:33,0
DA:34,0
DA:36,0
DA:38,0
DA:41,0
LF:7
LH:0
end_of_record
TN:
SF:/usr/include/boost/exception/detail/type_info.hpp
FN:64,67,_ZN5boost16exception_detail10type_info_C2ERKSt9type_info
FN:71,74,_ZN5boost16exception_detailltERKNS0_10type_info_ES3_
FNDA:0,_ZN5boost16exception_detail10type_info_C2ERKSt9type_info
FNDA:0,_ZN5boost16exception_detailltERKNS0_10type_info_ES3_
FNF:2
FNH:0
DA:64,0
DA:65,0
DA:67,0
DA:71,0
DA:73,0
LF:5
LH:0
end_of_record
TN:
SF:/usr/include/boost/exception/diagnostic_information.hpp
FN:122,175,_ZN5boost16exception_detail27diagnostic_information_implB5cxx11EPKNS_9exceptionEPKSt9exceptionbb
FN:180,183,_ZN5boost22diagnostic_informationINS_9exceptionEEENSt7__cxx1112basic_stringIcSt11char_traitsIcESaIcEEERKT_b
FN:71,74,_ZN5boost16exception_detail19get_boost_exceptionEPKNS_9exceptionE
FN:92,95,_ZN5boost16exception_detail17get_std_exceptionEz
FN:99,118,_ZN5boost16exception_detail26get_diagnostic_informationERKNS_9exceptionEPKc
FNDA:0,_ZN5boost16exception_detail27diagnostic_information_implB5cxx11EPKNS_9exceptionEPKSt9exceptionbb
FNDA:0,_ZN5boost22diagnostic_informationINS_9exceptionEEENSt7__cxx1112basic_stringIcSt11char_traitsIcESaIcEEERKT_b
FNDA:0,_ZN5boost16exception_detail19get_boost_exceptionEPKNS_9exceptionE
FNDA:0,_ZN5boost16exception_detail17get_std_exceptionEz
FNDA:0,_ZN5boost16exception_detail26get_diagnostic_informationERKNS_9exceptionEPKc
FNF:5
FNH:0
DA:71,0
DA:73,0
DA:92,0
DA:94,0
DA:99,0
DA:105,0
DA:106,0
DA:107,0
DA:108,0
DA:109,0
DA:110,0
DA:113,0
DA:115,0
DA:116,0
DA:122,0
DA:124,0
DA:125,0
DA:127,0
DA:128,0
DA:129,0
DA:130,0
DA:132,0
DA:133,0
DA:135,0
DA:136,0
DA:137,0
DA:139,0
DA:140,0
DA:142,0
DA:143,0
DA:144,0
DA:145,0
DA:146,0
DA:149,0
DA:151,0
DA:152,0
DA:153,0
DA:155,0
DA:156,0
DA:157,0
DA:159,0
DA:160,0
DA:164,0
DA:165,0
DA:166,0
DA:168,0
DA:169,0
DA:170,0
DA:171,0
DA:172,0
DA:173,0
DA:174,0
DA:175,0
DA:180,0
DA:182,0
LF:55
LH:0
end_of_record
TN:
SF:/usr/include/boost/exception/exception.hpp
FN:191,193,_ZN5boost16exception_detail20error_info_containerD2Ev
FN:260,266,_ZN5boost9exceptionC2Ev
FN:333,336,_ZN5boost9exceptionD0Ev
FN:333,336,_ZN5boost9exceptionD2Ev
FN:46,49,_ZN5boost16exception_detail12refcount_ptrINS0_20error_info_containerEEC2Ev
FN:484,486,_ZN5boost16exception_detail10clone_baseD0Ev
FN:484,486,_ZN5boost16exception_detail10clone_baseD2Ev
FN:491,501,_ZN5boost16exception_detail20copy_boost_exceptionEPNS_9exceptionEPKS1_
FN:51,54,_ZN5boost16exception_detail12refcount_ptrINS0_20error_info_containerEED2Ev
FN:56,60,_ZN5boost16exception_detail12refcount_ptrINS0_20error_info_containerEEC2ERKS3_
FN:63,67,_ZN5boost16exception_detail12refcount_ptrINS0_20error_info_containerEEaSERKS3_
FN:70,75,_ZN5boost16exception_detail12refcount_ptrINS0_20error_info_containerEE5adoptEPS2_
FN:78,81,_ZNK5boost16exception_detail12refcount_ptrINS0_20error_info_containerEE3getEv
FN:88,92,_ZN5boost16exception_detail12refcount_ptrINS0_20error_info_containerEE7add_refEv
FN:95,99,_ZN5boost16exception_detail12refcount_ptrINS0_20error_info_containerEE7releaseEv
FNDA:0,_ZN5boost16exception_detail20error_info_containerD2Ev
FNDA:0,_ZN5boost9exceptionC2Ev
FNDA:0,_ZN5boost9exceptionD0Ev
FNDA:0,_ZN5boost9exceptionD2Ev
FNDA:0,_ZN5boost16exception_detail12refcount_ptrINS0_20error_info_containerEEC2Ev
FNDA:0,_ZN5boost16exception_detail10clone_baseD0Ev
FNDA:0,_ZN5boost16exception_detail10clone_baseD2Ev
FNDA:0,_ZN5boost16exception_detail20copy_boost_exceptionEPNS_9exceptionEPKS1_
FNDA:0,_ZN5boost16exception_detail12refcount_ptrINS0_20error_info_containerEED2Ev
FNDA:0,_ZN5boost16exception_detail12refcount_ptrINS0_20error_info_containerEEC2ERKS3_
FNDA:0,_ZN5boost16exception_detail12refcount_ptrINS0_20error_info_containerEEaSERKS3_
FNDA:0,_ZN5boost16exception_detail12refcount_ptrINS0_20error_info_containerEE5adoptEPS2_
FNDA:0,_ZNK5boost16exception_detail12refcount_ptrINS0_20error_info_containerEE3getEv
FNDA:0,_ZN5boost16exception_detail12refcount_ptrINS0_20error_info_containerEE7add_refEv
FNDA:0,_ZN5boost16exception_detail12refcount_ptrINS0_20error_info_containerEE7releaseEv
FNF:15
FNH:0
DA:46,0
DA:47,0
DA:49,0
DA:51,0
DA:53,0
DA:54,0
DA:56,0
DA:57,0
DA:59,0
DA:60,0
DA:63,0
DA:65,0
DA:66,0
DA:70,0
DA:72,0
DA:73,0
DA:74,0
DA:75,0
DA:78,0
DA:80,0
DA:88,0
DA:90,0
DA:91,0
DA:92,0
DA:95,0
DA:97,0
DA:98,0
DA:99,0
DA:191,0
DA:192,0
DA:193,0
DA:260,0
DA:261,0
DA:262,0
DA:263,0
DA:264,0
DA:266,0
DA:333,0
DA:334,0
DA:336,0
DA:484,0
DA:485,0
DA:486,0
DA:491,0
DA:493,0
DA:494,0
DA:495,0
DA:496,0
DA:497,0
DA:498,0
DA:499,0
DA:500,0
DA:501,0
LF:53
LH:0
end_of_record
TN:
SF:/usr/include/boost/exception/get_error_info.hpp
FN:125,131,_ZN5boost14get_error_infoINS_10error_infoINS_11throw_file_EPKcEEKNS_9exceptionEEENS_16exception_detail26get_error_info_return_typeIT0_NT_10value_typeEE4typeERSA_
FN:125,131,_ZN5boost14get_error_infoINS_10error_infoINS_11throw_line_EiEEKNS_9exceptionEEENS_16exception_detail26get_error_info_return_typeIT0_NT_10value_typeEE4typeERS8_
FN:125,131,_ZN5boost14get_error_infoINS_10error_infoINS_15throw_function_EPKcEEKNS_9exceptionEEENS_16exception_detail26get_error_info_return_typeIT0_NT_10value_typeEE4typeERSA_
FN:61,64,_ZN5boost16exception_detail8get_infoINS_10error_infoINS_15throw_function_EPKcEEE3getERKNS_9exceptionE
FN:73,76,_ZN5boost16exception_detail8get_infoINS_10error_infoINS_11throw_file_EPKcEEE3getERKNS_9exceptionE
FN:85,88,_ZN5boost16exception_detail8get_infoINS_10error_infoINS_11throw_line_EiEEE3getERKNS_9exceptionE
FNDA:0,_ZN5boost14get_error_infoINS_10error_infoINS_11throw_file_EPKcEEKNS_9exceptionEEENS_16exception_detail26get_error_info_return_typeIT0_NT_10value_typeEE4typeERSA_
FNDA:0,_ZN5boost14get_error_infoINS_10error_infoINS_11throw_line_EiEEKNS_9exceptionEEENS_16exception_detail26get_error_info_return_typeIT0_NT_10value_typeEE4typeERS8_
FNDA:0,_ZN5boost14get_error_infoINS_10error_infoINS_15throw_function_EPKcEEKNS_9exceptionEEENS_16exception_detail26get_error_info_return_typeIT0_NT_10value_typeEE4typeERSA_
FNDA:0,_ZN5boost16exception_detail8get_infoINS_10error_infoINS_15throw_function_EPKcEEE3getERKNS_9exceptionE
FNDA:0,_ZN5boost16exception_detail8get_infoINS_10error_infoINS_11throw_file_EPKcEEE3getERKNS_9exceptionE
FNDA:0,_ZN5boost16exception_detail8get_infoINS_10error_infoINS_11throw_line_EiEEE3getERKNS_9exceptionE
FNF:6
FNH:0
DA:61,0
DA:63,0
DA:73,0
DA:75,0
DA:85,0
DA:87,0
DA:125,0
DA:127,0
DA:128,0
DA:130,0
LF:10
LH:0
end_of_record
TN:
SF:/usr/include/boost/exception/info.hpp
FN:124,127,_ZNK5boost16exception_detail25error_info_container_impl7add_refEv
FN:130,139,_ZNK5boost16exception_detail25error_info_container_impl7releaseEv
FN:142,153,_ZNK5boost16exception_detail25error_info_container_impl5cloneEv
FN:65,68,_ZN5boost16exception_detail25error_info_container_implC2Ev
FN:70,72,_ZN5boost16exception_detail25error_info_container_implD2Ev
FN:75,80,_ZN5boost16exception_detail25error_info_container_impl3setERKNS_10shared_ptrINS0_15error_info_baseEEERKNS0_10type_info_E
FN:83,92,_ZNK5boost16exception_detail25error_info_container_impl3getERKNS0_10type_info_E
FN:95,109,_ZNK5boost16exception_detail25error_info_container_impl22diagnostic_informationEPKc
FNDA:0,_ZNK5boost16exception_detail25error_info_container_impl7add_refEv
FNDA:0,_ZNK5boost16exception_detail25error_info_container_impl7releaseEv
FNDA:0,_ZNK5boost16exception_detail25error_info_container_impl5cloneEv
FNDA:0,_ZN5boost16exception_detail25error_info_container_implC2Ev
FNDA:0,_ZN5boost16exception_detail25error_info_container_implD2Ev
FNDA:0,_ZN5boost16exception_detail25error_info_container_impl3setERKNS_10shared_ptrINS0_15error_info_baseEEERKNS0_10type_info_E
FNDA:0,_ZNK5boost16exception_detail25error_info_container_impl3getERKNS0_10type_info_E
FNDA:0,_ZNK5boost16exception_detail25error_info_container_impl22diagnostic_informationEPKc
FNF:8
FNH:0
DA:65,0
DA:66,0
DA:68,0
DA:70,0
DA:71,0
DA:72,0
DA:75,0
DA:77,0
DA:78,0
DA:79,0
DA:80,0
DA:83,0
DA:85,0
DA:86,0
DA:88,0
DA:89,0
DA:91,0
DA:95,0
DA:97,0
DA:99,0
DA:100,0
DA:101,0
DA:103,0
DA:104,0
DA:106,0
DA:107,0
DA:108,0
DA:124,0
DA:126,0
DA:127,0
DA:130,0
DA:132,0
DA:133,0
DA:136,0
DA:137,0
DA:142,0
DA:144,0
DA:145,0
DA:146,0
DA:147,0
DA:149,0
DA:150,0
DA:151,0
DA:152,0
DA:153,0
LF:45
LH:0
end_of_record
TN:
SF:/usr/include/boost/function/function_base.hpp
FN:264,284,_ZN5boost6detail8function22functor_manager_commonIPFvRKNS_5debug16dbg_startup_infoEEE10manage_ptrERKNS1_15function_bufferERSA_NS1_30functor_manager_operation_typeE
FN:264,284,_ZN5boost6detail8function22functor_manager_commonIPFvvEE10manage_ptrERKNS1_15function_bufferERS6_NS1_30functor_manager_operation_typeE
FN:288,316,_ZN5boost6detail8function22functor_manager_commonINS0_7forwardEE12manage_smallERKNS1_15function_bufferERS5_NS1_30functor_manager_operation_typeE
FN:288,316,_ZN5boost6detail8function22functor_manager_commonINS_3_bi6bind_tIvPFvPFPNS_9unit_test10test_suiteEiPPcEENS3_5list1INS3_5valueISB_EEEEEEE12manage_smallERKNS1_15function_bufferERSK_NS1_30functor_manager_operation_typeE
FN:288,316,_ZN5boost6detail8function22functor_manager_commonINS_3_bi6bind_tIvPFvRSoENS3_5list1INS_17reference_wrapperISoEEEEEEE12manage_smallERKNS1_15function_bufferERSE_NS1_30functor_manager_operation_typeE
FN:288,316,_ZN5boost6detail8function22functor_manager_commonIZNS_9unit_test14runtime_config12_GLOBAL__N_119register_parametersERNS_7runtime16parameters_storeEEUlNS3_13basic_cstringIKcEEE_E12manage_smallERKNS1_15function_bufferERSE_NS1_30functor_manager_operation_typeE
FN:327,331,_ZN5boost6detail8function15functor_managerIPFvRKNS_5debug16dbg_startup_infoEEE7managerERKNS1_15function_bufferERSA_NS1_30functor_manager_operation_typeENS1_16function_ptr_tagE
FN:327,331,_ZN5boost6detail8function15functor_managerIPFvvEE7managerERKNS1_15function_bufferERS6_NS1_30functor_manager_operation_typeENS1_16function_ptr_tagE
FN:335,339,_ZN5boost6detail8function15functor_managerINS0_7forwardEE7managerERKNS1_15function_bufferERS5_NS1_30functor_manager_operation_typeENS_17integral_constantIbLb1EEE
FN:335,339,_ZN5boost6detail8function15functor_managerINS_3_bi6bind_tIvPFvPFPNS_9unit_test10test_suiteEiPPcEENS3_5list1INS3_5valueISB_EEEEEEE7managerERKNS1_15function_bufferERSK_NS1_30functor_manager_operation_typeENS_17integral_constantIbLb1EEE
FN:335,339,_ZN5boost6detail8function15functor_managerINS_3_bi6bind_tIvPFvRSoENS3_5list1INS_17reference_wrapperISoEEEEEEE7managerERKNS1_15function_bufferERSE_NS1_30functor_manager_operation_typeENS_17integral_constantIbLb1EEE
FN:335,339,_ZN5boost6detail8function15functor_managerIZNS_9unit_test14runtime_config12_GLOBAL__N_119register_parametersERNS_7runtime16parameters_storeEEUlNS3_13basic_cstringIKcEEE_E7managerERKNS1_15function_bufferERSE_NS1_30functor_manager_operation_typeENS_17integral_constantIbLb1EEE
FN:343,375,_ZN5boost6detail8function15functor_managerINS_3_bi6bind_tIvNS_4_mfi3mf0IvNS_9unit_test17test_unit_fixtureEEENS3_5list1INS3_5valueINS_10shared_ptrIS8_EEEEEEEEE7managerERKNS1_15function_bufferERSI_NS1_30functor_manager_operation_typeENS_17integral_constantIbLb0EEE
FN:343,375,_ZN5boost6detail8function15functor_managerINS_3_bi6bind_tIvNS_4_mfi3mf1IvNS_9unit_test15unit_test_log_tERSoEENS3_5list2INS3_5valueIPS8_EENS_17reference_wrapperISoEEEEEEE7managerERKNS1_15function_bufferERSK_NS1_30functor_manager_operation_typeENS_17integral_constantIbLb0EEE
FN:343,375,_ZN5boost6detail8function15functor_managerINS_3_bi6bind_tIvNS_4_mfi3mf2IvNS_9unit_test13test_observerEmmEENS3_5list3INS3_5valueIPS8_EENSB_INS7_17test_case_counter19readonly_property43EEENSB_ImEEEEEEE7managerERKNS1_15function_bufferERSL_NS1_30functor_manager_operation_typeENS_17integral_constantIbLb0EEE
FN:343,375,_ZN5boost6detail8function15functor_managerINS_3_bi6bind_tIvNS_4_mfi3mf2IvNS_9unit_test15unit_test_log_tENS7_13output_formatERSoEENS3_5list3INS3_5valueIPS8_EENSD_IS9_EENS_17reference_wrapperISoEEEEEEE7managerERKNS1_15function_bufferERSM_NS1_30functor_manager_operation_typeENS_17integral_constantIbLb0EEE
FN:381,386,_ZN5boost6detail8function15functor_managerINS0_7forwardEE7managerERKNS1_15function_bufferERS5_NS1_30functor_manager_operation_typeENS1_16function_obj_tagE
FN:381,386,_ZN5boost6detail8function15functor_managerINS_3_bi6bind_tIvNS_4_mfi3mf0IvNS_9unit_test17test_unit_fixtureEEENS3_5list1INS3_5valueINS_10shared_ptrIS8_EEEEEEEEE7managerERKNS1_15function_bufferERSI_NS1_30functor_manager_operation_typeENS1_16function_obj_tagE
FN:381,386,_ZN5boost6detail8function15functor_managerINS_3_bi6bind_tIvNS_4_mfi3mf1IvNS_9unit_test15unit_test_log_tERSoEENS3_5list2INS3_5valueIPS8_EENS_17reference_wrapperISoEEEEEEE7managerERKNS1_15function_bufferERSK_NS1_30functor_manager_operation_typeENS1_16function_obj_tagE
FN:381,386,_ZN5boost6detail8function15functor_managerINS_3_bi6bind_tIvNS_4_mfi3mf2IvNS_9unit_test13test_observerEmmEENS3_5list3INS3_5valueIPS8_EENSB_INS7_17test_case_counter19readonly_property43EEENSB_ImEEEEEEE7managerERKNS1_15function_bufferERSL_NS1_30functor_manager_operation_typeENS1_16function_obj_tagE
FN:381,386,_ZN5boost6detail8function15functor_managerINS_3_bi6bind_tIvNS_4_mfi3mf2IvNS_9unit_test15unit_test_log_tENS7_13output_formatERSoEENS3_5list3INS3_5valueIPS8_EENSD_IS9_EENS_17reference_wrapperISoEEEEEEE7managerERKNS1_15function_bufferERSM_NS1_30functor_manager_operation_typeENS1_16function_obj_tagE
FN:381,386,_ZN5boost6detail8function15functor_managerINS_3_bi6bind_tIvPFvPFPNS_9unit_test10test_suiteEiPPcEENS3_5list1INS3_5valueISB_EEEEEEE7managerERKNS1_15function_bufferERSK_NS1_30functor_manager_operation_typeENS1_16function_obj_tagE
FN:381,386,_ZN5boost6detail8function15functor_managerINS_3_bi6bind_tIvPFvRSoENS3_5list1INS_17reference_wrapperISoEEEEEEE7managerERKNS1_15function_bufferERSE_NS1_30functor_manager_operation_typeENS1_16function_obj_tagE
FN:381,386,_ZN5boost6detail8function15functor_managerIZNS_9unit_test14runtime_config12_GLOBAL__N_119register_parametersERNS_7runtime16parameters_storeEEUlNS3_13basic_cstringIKcEEE_E7managerERKNS1_15function_bufferERSE_NS1_30functor_manager_operation_typeENS1_16function_obj_tagE
FN:400,411,_ZN5boost6detail8function15functor_managerINS0_7forwardEE6manageERKNS1_15function_bufferERS5_NS1_30functor_manager_operation_typeE
FN:400,411,_ZN5boost6detail8function15functor_managerINS_3_bi6bind_tIvNS_4_mfi3mf0IvNS_9unit_test17test_unit_fixtureEEENS3_5list1INS3_5valueINS_10shared_ptrIS8_EEEEEEEEE6manageERKNS1_15function_bufferERSI_NS1_30functor_manager_operation_typeE
FN:400,411,_ZN5boost6detail8function15functor_managerINS_3_bi6bind_tIvNS_4_mfi3mf1IvNS_9unit_test15unit_test_log_tERSoEENS3_5list2INS3_5valueIPS8_EENS_17reference_wrapperISoEEEEEEE6manageERKNS1_15function_bufferERSK_NS1_30functor_manager_operation_typeE
FN:400,411,_ZN5boost6detail8function15functor_managerINS_3_bi6bind_tIvNS_4_mfi3mf2IvNS_9unit_test13test_observerEmmEENS3_5list3INS3_5valueIPS8_EENSB_INS7_17test_case_counter19readonly_property43EEENSB_ImEEEEEEE6manageERKNS1_15function_bufferERSL_NS1_30functor_manager_operation_typeE
FN:400,411,_ZN5boost6detail8function15functor_managerINS_3_bi6bind_tIvNS_4_mfi3mf2IvNS_9unit_test15unit_test_log_tENS7_13output_formatERSoEENS3_5list3INS3_5valueIPS8_EENSD_IS9_EENS_17reference_wrapperISoEEEEEEE6manageERKNS1_15function_bufferERSM_NS1_30functor_manager_operation_typeE
FN:400,411,_ZN5boost6detail8function15functor_managerINS_3_bi6bind_tIvPFvPFPNS_9unit_test10test_suiteEiPPcEENS3_5list1INS3_5valueISB_EEEEEEE6manageERKNS1_15function_bufferERSK_NS1_30functor_manager_operation_typeE
FN:400,411,_ZN5boost6detail8function15functor_managerINS_3_bi6bind_tIvPFvRSoENS3_5list1INS_17reference_wrapperISoEEEEEEE6manageERKNS1_15function_bufferERSE_NS1_30functor_manager_operation_typeE
FN:400,411,_ZN5boost6detail8function15functor_managerIPFvRKNS_5debug16dbg_startup_infoEEE6manageERKNS1_15function_bufferERSA_NS1_30functor_manager_operation_typeE
FN:400,411,_ZN5boost6detail8function15functor_managerIPFvvEE6manageERKNS1_15function_bufferERS6_NS1_30functor_manager_operation_typeE
FN:400,411,_ZN5boost6detail8function15functor_managerIZNS_9unit_test14runtime_config12_GLOBAL__N_119register_parametersERNS_7runtime16parameters_storeEEUlNS3_13basic_cstringIKcEEE_E6manageERKNS1_15function_bufferERSE_NS1_30functor_manager_operation_typeE
FN:608,608,_ZN5boost13function_baseC2Ev
FN:611,611,_ZNK5boost13function_base5emptyEv
FN:694,696,_ZNK5boost13function_base28has_trivial_copy_and_destroyEv
FN:713,713,_ZN5boost17bad_function_callC2Ev
FN:868,871,_ZN5boost6detail8function16has_empty_targetEz
FNDA:9,_ZN5boost6detail8function22functor_manager_commonIPFvRKNS_5debug16dbg_startup_infoEEE10manage_ptrERKNS1_15function_bufferERSA_NS1_30functor_manager_operation_typeE
FNDA:46,_ZN5boost6detail8function22functor_manager_commonIPFvvEE10manage_ptrERKNS1_15function_bufferERS6_NS1_30functor_manager_operation_typeE
FNDA:0,_ZN5boost6detail8function22functor_manager_commonINS0_7forwardEE12manage_smallERKNS1_15function_bufferERS5_NS1_30functor_manager_operation_typeE
FNDA:0,_ZN5boost6detail8function22functor_manager_commonINS_3_bi6bind_tIvPFvPFPNS_9unit_test10test_suiteEiPPcEENS3_5list1INS3_5valueISB_EEEEEEE12manage_smallERKNS1_15function_bufferERSK_NS1_30functor_manager_operation_typeE
FNDA:0,_ZN5boost6detail8function22functor_manager_commonINS_3_bi6bind_tIvPFvRSoENS3_5list1INS_17reference_wrapperISoEEEEEEE12manage_smallERKNS1_15function_bufferERSE_NS1_30functor_manager_operation_typeE
FNDA:0,_ZN5boost6detail8function22functor_manager_commonIZNS_9unit_test14runtime_config12_GLOBAL__N_119register_parametersERNS_7runtime16parameters_storeEEUlNS3_13basic_cstringIKcEEE_E12manage_smallERKNS1_15function_bufferERSE_NS1_30functor_manager_operation_typeE
FNDA:9,_ZN5boost6detail8function15functor_managerIPFvRKNS_5debug16dbg_startup_infoEEE7managerERKNS1_15function_bufferERSA_NS1_30functor_manager_operation_typeENS1_16function_ptr_tagE
FNDA:46,_ZN5boost6detail8function15functor_managerIPFvvEE7managerERKNS1_15function_bufferERS6_NS1_30functor_manager_operation_typeENS1_16function_ptr_tagE
FNDA:0,_ZN5boost6detail8function15functor_managerINS0_7forwardEE7managerERKNS1_15function_bufferERS5_NS1_30functor_manager_operation_typeENS_17integral_constantIbLb1EEE
FNDA:0,_ZN5boost6detail8function15functor_managerINS_3_bi6bind_tIvPFvPFPNS_9unit_test10test_suiteEiPPcEENS3_5list1INS3_5valueISB_EEEEEEE7managerERKNS1_15function_bufferERSK_NS1_30functor_manager_operation_typeENS_17integral_constantIbLb1EEE
FNDA:0,_ZN5boost6detail8function15functor_managerINS_3_bi6bind_tIvPFvRSoENS3_5list1INS_17reference_wrapperISoEEEEEEE7managerERKNS1_15function_bufferERSE_NS1_30functor_manager_operation_typeENS_17integral_constantIbLb1EEE
FNDA:0,_ZN5boost6detail8function15functor_managerIZNS_9unit_test14runtime_config12_GLOBAL__N_119register_parametersERNS_7runtime16parameters_storeEEUlNS3_13basic_cstringIKcEEE_E7managerERKNS1_15function_bufferERSE_NS1_30functor_manager_operation_typeENS_17integral_constantIbLb1EEE
FNDA:0,_ZN5boost6detail8function15functor_managerINS_3_bi6bind_tIvNS_4_mfi3mf0IvNS_9unit_test17test_unit_fixtureEEENS3_5list1INS3_5valueINS_10shared_ptrIS8_EEEEEEEEE7managerERKNS1_15function_bufferERSI_NS1_30functor_manager_operation_typeENS_17integral_constantIbLb0EEE
FNDA:0,_ZN5boost6detail8function15functor_managerINS_3_bi6bind_tIvNS_4_mfi3mf1IvNS_9unit_test15unit_test_log_tERSoEENS3_5list2INS3_5valueIPS8_EENS_17reference_wrapperISoEEEEEEE7managerERKNS1_15function_bufferERSK_NS1_30functor_manager_operation_typeENS_17integral_constantIbLb0EEE
FNDA:3,_ZN5boost6detail8function15functor_managerINS_3_bi6bind_tIvNS_4_mfi3mf2IvNS_9unit_test13test_observerEmmEENS3_5list3INS3_5valueIPS8_EENSB_INS7_17test_case_counter19readonly_property43EEENSB_ImEEEEEEE7managerERKNS1_15function_bufferERSL_NS1_30functor_manager_operation_typeENS_17integral_constantIbLb0EEE
FNDA:0,_ZN5boost6detail8function15functor_managerINS_3_bi6bind_tIvNS_4_mfi3mf2IvNS_9unit_test15unit_test_log_tENS7_13output_formatERSoEENS3_5list3INS3_5valueIPS8_EENSD_IS9_EENS_17reference_wrapperISoEEEEEEE7managerERKNS1_15function_bufferERSM_NS1_30functor_manager_operation_typeENS_17integral_constantIbLb0EEE
FNDA:0,_ZN5boost6detail8function15functor_managerINS0_7forwardEE7managerERKNS1_15function_bufferERS5_NS1_30functor_manager_operation_typeENS1_16function_obj_tagE
FNDA:0,_ZN5boost6detail8function15functor_managerINS_3_bi6bind_tIvNS_4_mfi3mf0IvNS_9unit_test17test_unit_fixtureEEENS3_5list1INS3_5valueINS_10shared_ptrIS8_EEEEEEEEE7managerERKNS1_15function_bufferERSI_NS1_30functor_manager_operation_typeENS1_16function_obj_tagE
FNDA:0,_ZN5boost6detail8function15functor_managerINS_3_bi6bind_tIvNS_4_mfi3mf1IvNS_9unit_test15unit_test_log_tERSoEENS3_5list2INS3_5valueIPS8_EENS_17reference_wrapperISoEEEEEEE7managerERKNS1_15function_bufferERSK_NS1_30functor_manager_operation_typeENS1_16function_obj_tagE
FNDA:3,_ZN5boost6detail8function15functor_managerINS_3_bi6bind_tIvNS_4_mfi3mf2IvNS_9unit_test13test_observerEmmEENS3_5list3INS3_5valueIPS8_EENSB_INS7_17test_case_counter19readonly_property43EEENSB_ImEEEEEEE7managerERKNS1_15function_bufferERSL_NS1_30functor_manager_operation_typeENS1_16function_obj_tagE
FNDA:0,_ZN5boost6detail8function15functor_managerINS_3_bi6bind_tIvNS_4_mfi3mf2IvNS_9unit_test15unit_test_log_tENS7_13output_formatERSoEENS3_5list3INS3_5valueIPS8_EENSD_IS9_EENS_17reference_wrapperISoEEEEEEE7managerERKNS1_15function_bufferERSM_NS1_30functor_manager_operation_typeENS1_16function_obj_tagE
FNDA:0,_ZN5boost6detail8function15functor_managerINS_3_bi6bind_tIvPFvPFPNS_9unit_test10test_suiteEiPPcEENS3_5list1INS3_5valueISB_EEEEEEE7managerERKNS1_15function_bufferERSK_NS1_30functor_manager_operation_typeENS1_16function_obj_tagE
FNDA:0,_ZN5boost6detail8function15functor_managerINS_3_bi6bind_tIvPFvRSoENS3_5list1INS_17reference_wrapperISoEEEEEEE7managerERKNS1_15function_bufferERSE_NS1_30functor_manager_operation_typeENS1_16function_obj_tagE
FNDA:0,_ZN5boost6detail8function15functor_managerIZNS_9unit_test14runtime_config12_GLOBAL__N_119register_parametersERNS_7runtime16parameters_storeEEUlNS3_13basic_cstringIKcEEE_E7managerERKNS1_15function_bufferERSE_NS1_30functor_manager_operation_typeENS1_16function_obj_tagE
FNDA:0,_ZN5boost6detail8function15functor_managerINS0_7forwardEE6manageERKNS1_15function_bufferERS5_NS1_30functor_manager_operation_typeE
FNDA:0,_ZN5boost6detail8function15functor_managerINS_3_bi6bind_tIvNS_4_mfi3mf0IvNS_9unit_test17test_unit_fixtureEEENS3_5list1INS3_5valueINS_10shared_ptrIS8_EEEEEEEEE6manageERKNS1_15function_bufferERSI_NS1_30functor_manager_operation_typeE
FNDA:0,_ZN5boost6detail8function15functor_managerINS_3_bi6bind_tIvNS_4_mfi3mf1IvNS_9unit_test15unit_test_log_tERSoEENS3_5list2INS3_5valueIPS8_EENS_17reference_wrapperISoEEEEEEE6manageERKNS1_15function_bufferERSK_NS1_30functor_manager_operation_typeE
FNDA:3,_ZN5boost6detail8function15functor_managerINS_3_bi6bind_tIvNS_4_mfi3mf2IvNS_9unit_test13test_observerEmmEENS3_5list3INS3_5valueIPS8_EENSB_INS7_17test_case_counter19readonly_property43EEENSB_ImEEEEEEE6manageERKNS1_15function_bufferERSL_NS1_30functor_manager_operation_typeE
FNDA:0,_ZN5boost6detail8function15functor_managerINS_3_bi6bind_tIvNS_4_mfi3mf2IvNS_9unit_test15unit_test_log_tENS7_13output_formatERSoEENS3_5list3INS3_5valueIPS8_EENSD_IS9_EENS_17reference_wrapperISoEEEEEEE6manageERKNS1_15function_bufferERSM_NS1_30functor_manager_operation_typeE
FNDA:0,_ZN5boost6detail8function15functor_managerINS_3_bi6bind_tIvPFvPFPNS_9unit_test10test_suiteEiPPcEENS3_5list1INS3_5valueISB_EEEEEEE6manageERKNS1_15function_bufferERSK_NS1_30functor_manager_operation_typeE
FNDA:0,_ZN5boost6detail8function15functor_managerINS_3_bi6bind_tIvPFvRSoENS3_5list1INS_17reference_wrapperISoEEEEEEE6manageERKNS1_15function_bufferERSE_NS1_30functor_manager_operation_typeE
FNDA:9,_ZN5boost6detail8function15functor_managerIPFvRKNS_5debug16dbg_startup_infoEEE6manageERKNS1_15function_bufferERSA_NS1_30functor_manager_operation_typeE
FNDA:46,_ZN5boost6detail8function15functor_managerIPFvvEE6manageERKNS1_15function_bufferERS6_NS1_30functor_manager_operation_typeE
FNDA:0,_ZN5boost6detail8function15functor_managerIZNS_9unit_test14runtime_config12_GLOBAL__N_119register_parametersERNS_7runtime16parameters_storeEEUlNS3_13basic_cstringIKcEEE_E6manageERKNS1_15function_bufferERSE_NS1_30functor_manager_operation_typeE
FNDA:260,_ZN5boost13function_baseC2Ev
FNDA:256,_ZNK5boost13function_base5emptyEv
FNDA:225,_ZNK5boost13function_base28has_trivial_copy_and_destroyEv
FNDA:0,_ZN5boost17bad_function_callC2Ev
FNDA:55,_ZN5boost6detail8function16has_empty_targetEz
FNF:39
FNH:13
DA:264,55
DA:267,55
DA:268,0
DA:269,55
DA:270,0
DA:271,0
DA:272,55
DA:273,55
DA:274,0
DA:275,0
DA:276,0
DA:278,0
DA:280,0
DA:281,0
DA:282,0
DA:284,55
DA:288,0
DA:291,0
DA:292,0
DA:294,0
DA:296,0
DA:297,0
DA:299,0
DA:301,0
DA:303,0
DA:305,0
DA:306,0
DA:307,0
DA:308,0
DA:310,0
DA:312,0
DA:313,0
DA:314,0
DA:316,0
DA:327,55
DA:330,55
DA:331,55
DA:335,0
DA:338,0
DA:339,0
DA:343,3
DA:346,3
DA:352,0
DA:354,0
DA:355,0
DA:356,3
DA:357,0
DA:358,0
DA:359,3
DA:361,3
DA:363,3
DA:364,3
DA:365,0
DA:366,0
DA:367,0
DA:369,0
DA:371,0
DA:372,0
DA:373,0
DA:375,3
DA:381,3
DA:384,3
DA:386,3
DA:400,58
DA:404,58
DA:405,0
DA:406,0
DA:407,0
DA:409,58
DA:411,58
DA:608,260
DA:611,256
DA:694,225
DA:695,225
DA:713,0
DA:868,55
DA:870,55
LF:77
LH:30
end_of_record
TN:
SF:/usr/include/boost/function/function_template.hpp
FN:1003,1048,_ZN5boost9function1IvNS_9unit_test13basic_cstringIKcEEE11move_assignERS5_
FN:1003,1048,_ZN5boost9function1IvRKNS_5debug16dbg_startup_infoEE11move_assignERS5_
FN:1100,1100,_ZN5boost8functionIFvNS_9unit_test13basic_cstringIKcEEEEC2Ev
FN:1100,1100,_ZN5boost8functionIFvRKNS_5debug16dbg_startup_infoEEEC2Ev
FN:1100,1100,_ZN5boost8functionIFvvEEC2Ev
FN:1103,1112,_ZN5boost8functionIFivEEC2INS_6detail7forwardEEET_NS_10enable_if_IXntsrNS_11is_integralIS6_EE5valueEiE4typeE
FN:1103,1112,_ZN5boost8functionIFvNS_9unit_test13basic_cstringIKcEEEEC2IZNS1_14runtime_config12_GLOBAL__N_119register_parametersERNS_7runtime16parameters_storeEEUlS4_E_EET_NS_10enable_if_IXntsrNS_11is_integralISE_EE5valueEiE4typeE
FN:1103,1112,_ZN5boost8functionIFvRKNS_5debug16dbg_startup_infoEEEC2IPS5_EET_NS_10enable_if_IXntsrNS_11is_integralIS9_EE5valueEiE4typeE
FN:1103,1112,_ZN5boost8functionIFvvEEC2INS_3_bi6bind_tIvNS_4_mfi3mf0IvNS_9unit_test17test_unit_fixtureEEENS4_5list1INS4_5valueINS_10shared_ptrIS9_EEEEEEEEEET_NS_10enable_if_IXntsrNS_11is_integralISI_EE5valueEiE4typeE
FN:1103,1112,_ZN5boost8functionIFvvEEC2INS_3_bi6bind_tIvNS_4_mfi3mf1IvNS_9unit_test15unit_test_log_tERSoEENS4_5list2INS4_5valueIPS9_EENS_17reference_wrapperISoEEEEEEEET_NS_10enable_if_IXntsrNS_11is_integralISK_EE5valueEiE4typeE
FN:1103,1112,_ZN5boost8functionIFvvEEC2INS_3_bi6bind_tIvNS_4_mfi3mf2IvNS_9unit_test13test_observerEmmEENS4_5list3INS4_5valueIPS9_EENSC_INS8_17test_case_counter19readonly_property43EEENSC_ImEEEEEEEET_NS_10enable_if_IXntsrNS_11is_integralISL_EE5valueEiE4typeE
FN:1103,1112,_ZN5boost8functionIFvvEEC2INS_3_bi6bind_tIvNS_4_mfi3mf2IvNS_9unit_test15unit_test_log_tENS8_13output_formatERSoEENS4_5list3INS4_5valueIPS9_EENSE_ISA_EENS_17reference_wrapperISoEEEEEEEET_NS_10enable_if_IXntsrNS_11is_integralISM_EE5valueEiE4typeE
FN:1103,1112,_ZN5boost8functionIFvvEEC2INS_3_bi6bind_tIvPFvPFPNS_9unit_test10test_suiteEiPPcEENS4_5list1INS4_5valueISC_EEEEEEEET_NS_10enable_if_IXntsrNS_11is_integralISK_EE5valueEiE4typeE
FN:1103,1112,_ZN5boost8functionIFvvEEC2INS_3_bi6bind_tIvPFvRSoENS4_5list1INS_17reference_wrapperISoEEEEEEEET_NS_10enable_if_IXntsrNS_11is_integralISE_EE5valueEiE4typeE
FN:1103,1112,_ZN5boost8functionIFvvEEC2IPS1_EET_NS_10enable_if_IXntsrNS_11is_integralIS5_EE5valueEiE4typeE
FN:112,118,_ZN5boost6detail8function22void_function_invoker0IPFvvEvE6invokeERNS1_15function_bufferE
FN:112,118,_ZN5boost6detail8function22void_function_invoker1IPFvRKNS_5debug16dbg_startup_infoEEvS6_E6invokeERNS1_15function_bufferES6_
FN:1129,1129,_ZN5boost8functionIFNS_10test_tools16assertion_resultEmEEC2ERKS4_
FN:1129,1129,_ZN5boost8functionIFvNS_9unit_test13basic_cstringIKcEEEEC2ERKS6_
FN:1129,1129,_ZN5boost8functionIFvRKNS_5debug16dbg_startup_infoEEEC2ERKS6_
FN:1129,1129,_ZN5boost8functionIFvvEEC2ERKS2_
FN:1135,1135,_ZN5boost8functionIFvNS_9unit_test13basic_cstringIKcEEEEC2EOS6_
FN:1139,1143,_ZN5boost8functionIFvRKNS_5debug16dbg_startup_infoEEEaSERKS6_
FN:1161,1165,_ZN5boost8functionIFvNS_9unit_test13basic_cstringIKcEEEEaSIZNS1_14runtime_config12_GLOBAL__N_119register_parametersERNS_7runtime16parameters_storeEEUlS4_E_EENS_10enable_if_IXntsrNS_11is_integralIT_EE5valueERS6_E4typeESG_
FN:1161,1165,_ZN5boost8functionIFvRKNS_5debug16dbg_startup_infoEEEaSIPS5_EENS_10enable_if_IXntsrNS_11is_integralIT_EE5valueERS6_E4typeESB_
FN:128,138,_ZN5boost6detail8function21function_obj_invoker0INS0_7forwardEiE6invokeERNS1_15function_bufferE
FN:149,159,_ZN5boost6detail8function26void_function_obj_invoker0INS_3_bi6bind_tIvNS_4_mfi3mf0IvNS_9unit_test17test_unit_fixtureEEENS3_5list1INS3_5valueINS_10shared_ptrIS8_EEEEEEEEvE6invokeERNS1_15function_bufferE
FN:149,159,_ZN5boost6detail8function26void_function_obj_invoker0INS_3_bi6bind_tIvNS_4_mfi3mf1IvNS_9unit_test15unit_test_log_tERSoEENS3_5list2INS3_5valueIPS8_EENS_17reference_wrapperISoEEEEEEvE6invokeERNS1_15function_bufferE
FN:149,159,_ZN5boost6detail8function26void_function_obj_invoker0INS_3_bi6bind_tIvNS_4_mfi3mf2IvNS_9unit_test13test_observerEmmEENS3_5list3INS3_5valueIPS8_EENSB_INS7_17test_case_counter19readonly_property43EEENSB_ImEEEEEEvE6invokeERNS1_15function_bufferE
FN:149,159,_ZN5boost6detail8function26void_function_obj_invoker0INS_3_bi6bind_tIvNS_4_mfi3mf2IvNS_9unit_test15unit_test_log_tENS7_13output_formatERSoEENS3_5list3INS3_5valueIPS8_EENSD_IS9_EENS_17reference_wrapperISoEEEEEEvE6invokeERNS1_15function_bufferE
FN:149,159,_ZN5boost6detail8function26void_function_obj_invoker0INS_3_bi6bind_tIvPFvPFPNS_9unit_test10test_suiteEiPPcEENS3_5list1INS3_5valueISB_EEEEEEvE6invokeERNS1_15function_bufferE
FN:149,159,_ZN5boost6detail8function26void_function_obj_invoker0INS_3_bi6bind_tIvPFvRSoENS3_5list1INS_17reference_wrapperISoEEEEEEvE6invokeERNS1_15function_bufferE
FN:149,159,_ZN5boost6detail8function26void_function_obj_invoker1IZNS_9unit_test14runtime_config12_GLOBAL__N_119register_parametersERNS_7runtime16parameters_storeEEUlNS3_13basic_cstringIKcEEE_vSB_E6invokeERNS1_15function_bufferESB_
FN:490,494,_ZNK5boost6detail8function13basic_vtable0IiE9assign_toINS0_7forwardEEEbT_RNS1_15function_bufferE
FN:490,494,_ZNK5boost6detail8function13basic_vtable0IvE9assign_toINS_3_bi6bind_tIvNS_4_mfi3mf0IvNS_9unit_test17test_unit_fixtureEEENS5_5list1INS5_5valueINS_10shared_ptrISA_EEEEEEEEEEbT_RNS1_15function_bufferE
FN:490,494,_ZNK5boost6detail8function13basic_vtable0IvE9assign_toINS_3_bi6bind_tIvNS_4_mfi3mf1IvNS_9unit_test15unit_test_log_tERSoEENS5_5list2INS5_5valueIPSA_EENS_17reference_wrapperISoEEEEEEEEbT_RNS1_15function_bufferE
FN:490,494,_ZNK5boost6detail8function13basic_vtable0IvE9assign_toINS_3_bi6bind_tIvNS_4_mfi3mf2IvNS_9unit_test13test_observerEmmEENS5_5list3INS5_5valueIPSA_EENSD_INS9_17test_case_counter19readonly_property43EEENSD_ImEEEEEEEEbT_RNS1_15function_bufferE
FN:490,494,_ZNK5boost6detail8function13basic_vtable0IvE9assign_toINS_3_bi6bind_tIvNS_4_mfi3mf2IvNS_9unit_test15unit_test_log_tENS9_13output_formatERSoEENS5_5list3INS5_5valueIPSA_EENSF_ISB_EENS_17reference_wrapperISoEEEEEEEEbT_RNS1_15function_bufferE
FN:490,494,_ZNK5boost6detail8function13basic_vtable0IvE9assign_toINS_3_bi6bind_tIvPFvPFPNS_9unit_test10test_suiteEiPPcEENS5_5list1INS5_5valueISD_EEEEEEEEbT_RNS1_15function_bufferE
FN:490,494,_ZNK5boost6detail8function13basic_vtable0IvE9assign_toINS_3_bi6bind_tIvPFvRSoENS5_5list1INS_17reference_wrapperISoEEEEEEEEbT_RNS1_15function_bufferE
FN:490,494,_ZNK5boost6detail8function13basic_vtable0IvE9assign_toIPFvvEEEbT_RNS1_15function_bufferE
FN:490,494,_ZNK5boost6detail8function13basic_vtable1IvNS_9unit_test13basic_cstringIKcEEE9assign_toIZNS3_14runtime_config12_GLOBAL__N_119register_parametersERNS_7runtime16parameters_storeEEUlS6_E_EEbT_RNS1_15function_bufferE
FN:490,494,_ZNK5boost6detail8function13basic_vtable1IvRKNS_5debug16dbg_startup_infoEE9assign_toIPFvS6_EEEbT_RNS1_15function_bufferE
FN:502,514,_ZNK5boost6detail8function13basic_vtable0IiE5clearERNS1_15function_bufferE
FN:502,514,_ZNK5boost6detail8function13basic_vtable0IvE5clearERNS1_15function_bufferE
FN:502,514,_ZNK5boost6detail8function13basic_vtable1INS_10test_tools16assertion_resultEmE5clearERNS1_15function_bufferE
FN:502,514,_ZNK5boost6detail8function13basic_vtable1IvNS_9unit_test13basic_cstringIKcEEE5clearERNS1_15function_bufferE
FN:502,514,_ZNK5boost6detail8function13basic_vtable1IvRKNS_5debug16dbg_startup_infoEE5clearERNS1_15function_bufferE
FN:520,531,_ZNK5boost6detail8function13basic_vtable0IvE9assign_toIPFvvEEEbT_RNS1_15function_bufferENS1_16function_ptr_tagE
FN:520,531,_ZNK5boost6detail8function13basic_vtable1IvRKNS_5debug16dbg_startup_infoEE9assign_toIPFvS6_EEEbT_RNS1_15function_bufferENS1_16function_ptr_tagE
FN:573,576,_ZNK5boost6detail8function13basic_vtable0IiE14assign_functorINS0_7forwardEEEvT_RNS1_15function_bufferENS_17integral_constantIbLb1EEE
FN:573,576,_ZNK5boost6detail8function13basic_vtable0IvE14assign_functorINS_3_bi6bind_tIvPFvPFPNS_9unit_test10test_suiteEiPPcEENS5_5list1INS5_5valueISD_EEEEEEEEvT_RNS1_15function_bufferENS_17integral_constantIbLb1EEE
FN:573,576,_ZNK5boost6detail8function13basic_vtable0IvE14assign_functorINS_3_bi6bind_tIvPFvRSoENS5_5list1INS_17reference_wrapperISoEEEEEEEEvT_RNS1_15function_bufferENS_17integral_constantIbLb1EEE
FN:573,576,_ZNK5boost6detail8function13basic_vtable1IvNS_9unit_test13basic_cstringIKcEEE14assign_functorIZNS3_14runtime_config12_GLOBAL__N_119register_parametersERNS_7runtime16parameters_storeEEUlS6_E_EEvT_RNS1_15function_bufferENS_17integral_constantIbLb1EEE
FN:587,590,_ZNK5boost6detail8function13basic_vtable0IvE14assign_functorINS_3_bi6bind_tIvNS_4_mfi3mf0IvNS_9unit_test17test_unit_fixtureEEENS5_5list1INS5_5valueINS_10shared_ptrISA_EEEEEEEEEEvT_RNS1_15function_bufferENS_17integral_constantIbLb0EEE
FN:587,590,_ZNK5boost6detail8function13basic_vtable0IvE14assign_functorINS_3_bi6bind_tIvNS_4_mfi3mf1IvNS_9unit_test15unit_test_log_tERSoEENS5_5list2INS5_5valueIPSA_EENS_17reference_wrapperISoEEEEEEEEvT_RNS1_15function_bufferENS_17integral_constantIbLb0EEE
FN:587,590,_ZNK5boost6detail8function13basic_vtable0IvE14assign_functorINS_3_bi6bind_tIvNS_4_mfi3mf2IvNS_9unit_test13test_observerEmmEENS5_5list3INS5_5valueIPSA_EENSD_INS9_17test_case_counter19readonly_property43EEENSD_ImEEEEEEEEvT_RNS1_15function_bufferENS_17integral_constantIbLb0EEE
FN:587,590,_ZNK5boost6detail8function13basic_vtable0IvE14assign_functorINS_3_bi6bind_tIvNS_4_mfi3mf2IvNS_9unit_test15unit_test_log_tENS9_13output_formatERSoEENS5_5list3INS5_5valueIPSA_EENSF_ISB_EENS_17reference_wrapperISoEEEEEEEEvT_RNS1_15function_bufferENS_17integral_constantIbLb0EEE
FN:617,626,_ZNK5boost6detail8function13basic_vtable0IiE9assign_toINS0_7forwardEEEbT_RNS1_15function_bufferENS1_16function_obj_tagE
FN:617,626,_ZNK5boost6detail8function13basic_vtable0IvE9assign_toINS_3_bi6bind_tIvNS_4_mfi3mf0IvNS_9unit_test17test_unit_fixtureEEENS5_5list1INS5_5valueINS_10shared_ptrISA_EEEEEEEEEEbT_RNS1_15function_bufferENS1_16function_obj_tagE
FN:617,626,_ZNK5boost6detail8function13basic_vtable0IvE9assign_toINS_3_bi6bind_tIvNS_4_mfi3mf1IvNS_9unit_test15unit_test_log_tERSoEENS5_5list2INS5_5valueIPSA_EENS_17reference_wrapperISoEEEEEEEEbT_RNS1_15function_bufferENS1_16function_obj_tagE
FN:617,626,_ZNK5boost6detail8function13basic_vtable0IvE9assign_toINS_3_bi6bind_tIvNS_4_mfi3mf2IvNS_9unit_test13test_observerEmmEENS5_5list3INS5_5valueIPSA_EENSD_INS9_17test_case_counter19readonly_property43EEENSD_ImEEEEEEEEbT_RNS1_15function_bufferENS1_16function_obj_tagE
FN:617,626,_ZNK5boost6detail8function13basic_vtable0IvE9assign_toINS_3_bi6bind_tIvNS_4_mfi3mf2IvNS_9unit_test15unit_test_log_tENS9_13output_formatERSoEENS5_5list3INS5_5valueIPSA_EENSF_ISB_EENS_17reference_wrapperISoEEEEEEEEbT_RNS1_15function_bufferENS1_16function_obj_tagE
FN:617,626,_ZNK5boost6detail8function13basic_vtable0IvE9assign_toINS_3_bi6bind_tIvPFvPFPNS_9unit_test10test_suiteEiPPcEENS5_5list1INS5_5valueISD_EEEEEEEEbT_RNS1_15function_bufferENS1_16function_obj_tagE
FN:617,626,_ZNK5boost6detail8function13basic_vtable0IvE9assign_toINS_3_bi6bind_tIvPFvRSoENS5_5list1INS_17reference_wrapperISoEEEEEEEEbT_RNS1_15function_bufferENS1_16function_obj_tagE
FN:617,626,_ZNK5boost6detail8function13basic_vtable1IvNS_9unit_test13basic_cstringIKcEEE9assign_toIZNS3_14runtime_config12_GLOBAL__N_119register_parametersERNS_7runtime16parameters_storeEEUlS6_E_EEbT_RNS1_15function_bufferENS1_16function_obj_tagE
FN:685,688,_ZNK5boost9function0IiE10get_vtableEv
FN:685,688,_ZNK5boost9function0IvE10get_vtableEv
FN:685,688,_ZNK5boost9function1INS_10test_tools16assertion_resultEmE10get_vtableEv
FN:685,688,_ZNK5boost9function1IvNS_9unit_test13basic_cstringIKcEEE10get_vtableEv
FN:685,688,_ZNK5boost9function1IvRKNS_5debug16dbg_startup_infoEE10get_vtableEv
FN:714,714,_ZN5boost9function0IvEC2Ev
FN:714,714,_ZN5boost9function1IvNS_9unit_test13basic_cstringIKcEEEC2Ev
FN:714,714,_ZN5boost9function1IvRKNS_5debug16dbg_startup_infoEEC2Ev
FN:719,729,_ZN5boost9function0IiEC2INS_6detail7forwardEEET_NS_10enable_if_IXntsrNS_11is_integralIS5_EE5valueEiE4typeE
FN:719,729,_ZN5boost9function0IvEC2INS_3_bi6bind_tIvNS_4_mfi3mf0IvNS_9unit_test17test_unit_fixtureEEENS3_5list1INS3_5valueINS_10shared_ptrIS8_EEEEEEEEEET_NS_10enable_if_IXntsrNS_11is_integralISH_EE5valueEiE4typeE
FN:719,729,_ZN5boost9function0IvEC2INS_3_bi6bind_tIvNS_4_mfi3mf1IvNS_9unit_test15unit_test_log_tERSoEENS3_5list2INS3_5valueIPS8_EENS_17reference_wrapperISoEEEEEEEET_NS_10enable_if_IXntsrNS_11is_integralISJ_EE5valueEiE4typeE
FN:719,729,_ZN5boost9function0IvEC2INS_3_bi6bind_tIvNS_4_mfi3mf2IvNS_9unit_test13test_observerEmmEENS3_5list3INS3_5valueIPS8_EENSB_INS7_17test_case_counter19readonly_property43EEENSB_ImEEEEEEEET_NS_10enable_if_IXntsrNS_11is_integralISK_EE5valueEiE4typeE
FN:719,729,_ZN5boost9function0IvEC2INS_3_bi6bind_tIvNS_4_mfi3mf2IvNS_9unit_test15unit_test_log_tENS7_13output_formatERSoEENS3_5list3INS3_5valueIPS8_EENSD_IS9_EENS_17reference_wrapperISoEEEEEEEET_NS_10enable_if_IXntsrNS_11is_integralISL_EE5valueEiE4typeE
FN:719,729,_ZN5boost9function0IvEC2INS_3_bi6bind_tIvPFvPFPNS_9unit_test10test_suiteEiPPcEENS3_5list1INS3_5valueISB_EEEEEEEET_NS_10enable_if_IXntsrNS_11is_integralISJ_EE5valueEiE4typeE
FN:719,729,_ZN5boost9function0IvEC2INS_3_bi6bind_tIvPFvRSoENS3_5list1INS_17reference_wrapperISoEEEEEEEET_NS_10enable_if_IXntsrNS_11is_integralISD_EE5valueEiE4typeE
FN:719,729,_ZN5boost9function0IvEC2IPFvvEEET_NS_10enable_if_IXntsrNS_11is_integralIS5_EE5valueEiE4typeE
FN:719,729,_ZN5boost9function1IvNS_9unit_test13basic_cstringIKcEEEC2IZNS1_14runtime_config12_GLOBAL__N_119register_parametersERNS_7runtime16parameters_storeEEUlS4_E_EET_NS_10enable_if_IXntsrNS_11is_integralISD_EE5valueEiE4typeE
FN:719,729,_ZN5boost9function1IvRKNS_5debug16dbg_startup_infoEEC2IPFvS4_EEET_NS_10enable_if_IXntsrNS_11is_integralIS9_EE5valueEiE4typeE
FN:752,755,_ZN5boost9function0IvEC2ERKS1_
FN:752,755,_ZN5boost9function1INS_10test_tools16assertion_resultEmEC2ERKS3_
FN:752,755,_ZN5boost9function1IvNS_9unit_test13basic_cstringIKcEEEC2ERKS5_
FN:752,755,_ZN5boost9function1IvRKNS_5debug16dbg_startup_infoEEC2ERKS5_
FN:758,761,_ZN5boost9function1IvNS_9unit_test13basic_cstringIKcEEEC2EOS5_
FN:764,764,_ZN5boost9function0IiED2Ev
FN:764,764,_ZN5boost9function0IvED2Ev
FN:764,764,_ZN5boost9function1INS_10test_tools16assertion_resultEmED2Ev
FN:764,764,_ZN5boost9function1IvNS_9unit_test13basic_cstringIKcEEED2Ev
FN:764,764,_ZN5boost9function1IvRKNS_5debug16dbg_startup_infoEED2Ev
FN:766,773,_ZNK5boost9function0IiEclEv
FN:766,773,_ZNK5boost9function0IvEclEv
FN:766,773,_ZNK5boost9function1INS_10test_tools16assertion_resultEmEclEm
FN:766,773,_ZNK5boost9function1IvNS_9unit_test13basic_cstringIKcEEEclES4_
FN:766,773,_ZNK5boost9function1IvRKNS_5debug16dbg_startup_infoEEclES4_
FN:864,873,_ZN5boost9function1IvNS_9unit_test13basic_cstringIKcEEE4swapERS5_
FN:864,873,_ZN5boost9function1IvRKNS_5debug16dbg_startup_infoEE4swapERS5_
FN:876,883,_ZN5boost9function0IiE5clearEv
FN:876,883,_ZN5boost9function0IvE5clearEv
FN:876,883,_ZN5boost9function1INS_10test_tools16assertion_resultEmE5clearEv
FN:876,883,_ZN5boost9function1IvNS_9unit_test13basic_cstringIKcEEE5clearEv
FN:876,883,_ZN5boost9function1IvRKNS_5debug16dbg_startup_infoEE5clearEv
FN:891,891,_ZN5boost9function0IvE5dummy7nonnullEv
FN:897,898,_ZNK5boost9function0IvEcvMNS1_5dummyEFvvEEv
FN:900,901,_ZNK5boost9function1IvNS_9unit_test13basic_cstringIKcEEEntEv
FN:900,901,_ZNK5boost9function1IvRKNS_5debug16dbg_startup_infoEEntEv
FN:905,930,_ZN5boost9function0IvE13assign_to_ownERKS1_
FN:905,930,_ZN5boost9function1INS_10test_tools16assertion_resultEmE13assign_to_ownERKS3_
FN:905,930,_ZN5boost9function1IvNS_9unit_test13basic_cstringIKcEEE13assign_to_ownERKS5_
FN:905,930,_ZN5boost9function1IvRKNS_5debug16dbg_startup_infoEE13assign_to_ownERKS5_
FN:933,964,_ZN5boost9function0IiE9assign_toINS_6detail7forwardEEEvT_
FN:933,964,_ZN5boost9function0IvE9assign_toINS_3_bi6bind_tIvNS_4_mfi3mf0IvNS_9unit_test17test_unit_fixtureEEENS3_5list1INS3_5valueINS_10shared_ptrIS8_EEEEEEEEEEvT_
FN:933,964,_ZN5boost9function0IvE9assign_toINS_3_bi6bind_tIvNS_4_mfi3mf1IvNS_9unit_test15unit_test_log_tERSoEENS3_5list2INS3_5valueIPS8_EENS_17reference_wrapperISoEEEEEEEEvT_
FN:933,964,_ZN5boost9function0IvE9assign_toINS_3_bi6bind_tIvNS_4_mfi3mf2IvNS_9unit_test13test_observerEmmEENS3_5list3INS3_5valueIPS8_EENSB_INS7_17test_case_counter19readonly_property43EEENSB_ImEEEEEEEEvT_
FN:933,964,_ZN5boost9function0IvE9assign_toINS_3_bi6bind_tIvNS_4_mfi3mf2IvNS_9unit_test15unit_test_log_tENS7_13output_formatERSoEENS3_5list3INS3_5valueIPS8_EENSD_IS9_EENS_17reference_wrapperISoEEEEEEEEvT_
FN:933,964,_ZN5boost9function0IvE9assign_toINS_3_bi6bind_tIvPFvPFPNS_9unit_test10test_suiteEiPPcEENS3_5list1INS3_5valueISB_EEEEEEEEvT_
FN:933,964,_ZN5boost9function0IvE9assign_toINS_3_bi6bind_tIvPFvRSoENS3_5list1INS_17reference_wrapperISoEEEEEEEEvT_
FN:933,964,_ZN5boost9function0IvE9assign_toIPFvvEEEvT_
FN:933,964,_ZN5boost9function1IvNS_9unit_test13basic_cstringIKcEEE9assign_toIZNS1_14runtime_config12_GLOBAL__N_119register_parametersERNS_7runtime16parameters_storeEEUlS4_E_EEvT_
FN:933,964,_ZN5boost9function1IvRKNS_5debug16dbg_startup_infoEE9assign_toIPFvS4_EEEvT_
FNDA:31,_ZN5boost9function1IvNS_9unit_test13basic_cstringIKcEEE11move_assignERS5_
FNDA:27,_ZN5boost9function1IvRKNS_5debug16dbg_startup_infoEE11move_assignERS5_
FNDA:28,_ZN5boost8functionIFvNS_9unit_test13basic_cstringIKcEEEEC2Ev
FNDA:9,_ZN5boost8functionIFvRKNS_5debug16dbg_startup_infoEEEC2Ev
FNDA:1,_ZN5boost8functionIFvvEEC2Ev
FNDA:50,_ZN5boost8functionIFivEEC2INS_6detail7forwardEEET_NS_10enable_if_IXntsrNS_11is_integralIS6_EE5valueEiE4typeE
FNDA:1,_ZN5boost8functionIFvNS_9unit_test13basic_cstringIKcEEEEC2IZNS1_14runtime_config12_GLOBAL__N_119register_parametersERNS_7runtime16parameters_storeEEUlS4_E_EET_NS_10enable_if_IXntsrNS_11is_integralISE_EE5valueEiE4typeE
FNDA:9,_ZN5boost8functionIFvRKNS_5debug16dbg_startup_infoEEEC2IPS5_EET_NS_10enable_if_IXntsrNS_11is_integralIS9_EE5valueEiE4typeE
FNDA:0,_ZN5boost8functionIFvvEEC2INS_3_bi6bind_tIvNS_4_mfi3mf0IvNS_9unit_test17test_unit_fixtureEEENS4_5list1INS4_5valueINS_10shared_ptrIS9_EEEEEEEEEET_NS_10enable_if_IXntsrNS_11is_integralISI_EE5valueEiE4typeE
FNDA:0,_ZN5boost8functionIFvvEEC2INS_3_bi6bind_tIvNS_4_mfi3mf1IvNS_9unit_test15unit_test_log_tERSoEENS4_5list2INS4_5valueIPS9_EENS_17reference_wrapperISoEEEEEEEET_NS_10enable_if_IXntsrNS_11is_integralISK_EE5valueEiE4typeE
FNDA:3,_ZN5boost8functionIFvvEEC2INS_3_bi6bind_tIvNS_4_mfi3mf2IvNS_9unit_test13test_observerEmmEENS4_5list3INS4_5valueIPS9_EENSC_INS8_17test_case_counter19readonly_property43EEENSC_ImEEEEEEEET_NS_10enable_if_IXntsrNS_11is_integralISL_EE5valueEiE4typeE
FNDA:0,_ZN5boost8functionIFvvEEC2INS_3_bi6bind_tIvNS_4_mfi3mf2IvNS_9unit_test15unit_test_log_tENS8_13output_formatERSoEENS4_5list3INS4_5valueIPS9_EENSE_ISA_EENS_17reference_wrapperISoEEEEEEEET_NS_10enable_if_IXntsrNS_11is_integralISM_EE5valueEiE4typeE
FNDA:1,_ZN5boost8functionIFvvEEC2INS_3_bi6bind_tIvPFvPFPNS_9unit_test10test_suiteEiPPcEENS4_5list1INS4_5valueISC_EEEEEEEET_NS_10enable_if_IXntsrNS_11is_integralISK_EE5valueEiE4typeE
FNDA:0,_ZN5boost8functionIFvvEEC2INS_3_bi6bind_tIvPFvRSoENS4_5list1INS_17reference_wrapperISoEEEEEEEET_NS_10enable_if_IXntsrNS_11is_integralISE_EE5valueEiE4typeE
FNDA:46,_ZN5boost8functionIFvvEEC2IPS1_EET_NS_10enable_if_IXntsrNS_11is_integralIS5_EE5valueEiE4typeE
FNDA:46,_ZN5boost6detail8function22void_function_invoker0IPFvvEvE6invokeERNS1_15function_bufferE
FNDA:0,_ZN5boost6detail8function22void_function_invoker1IPFvRKNS_5debug16dbg_startup_infoEEvS6_E6invokeERNS1_15function_bufferES6_
FNDA:0,_ZN5boost8functionIFNS_10test_tools16assertion_resultEmEEC2ERKS4_
FNDA:28,_ZN5boost8functionIFvNS_9unit_test13basic_cstringIKcEEEEC2ERKS6_
FNDA:0,_ZN5boost8functionIFvRKNS_5debug16dbg_startup_infoEEEC2ERKS6_
FNDA:46,_ZN5boost8functionIFvvEEC2ERKS2_
FNDA:28,_ZN5boost8functionIFvNS_9unit_test13basic_cstringIKcEEEEC2EOS6_
FNDA:0,_ZN5boost8functionIFvRKNS_5debug16dbg_startup_infoEEEaSERKS6_
FNDA:1,_ZN5boost8functionIFvNS_9unit_test13basic_cstringIKcEEEEaSIZNS1_14runtime_config12_GLOBAL__N_119register_parametersERNS_7runtime16parameters_storeEEUlS4_E_EENS_10enable_if_IXntsrNS_11is_integralIT_EE5valueERS6_E4typeESG_
FNDA:9,_ZN5boost8functionIFvRKNS_5debug16dbg_startup_infoEEEaSIPS5_EENS_10enable_if_IXntsrNS_11is_integralIT_EE5valueERS6_E4typeESB_
FNDA:50,_ZN5boost6detail8function21function_obj_invoker0INS0_7forwardEiE6invokeERNS1_15function_bufferE
FNDA:0,_ZN5boost6detail8function26void_function_obj_invoker0INS_3_bi6bind_tIvNS_4_mfi3mf0IvNS_9unit_test17test_unit_fixtureEEENS3_5list1INS3_5valueINS_10shared_ptrIS8_EEEEEEEEvE6invokeERNS1_15function_bufferE
FNDA:0,_ZN5boost6detail8function26void_function_obj_invoker0INS_3_bi6bind_tIvNS_4_mfi3mf1IvNS_9unit_test15unit_test_log_tERSoEENS3_5list2INS3_5valueIPS8_EENS_17reference_wrapperISoEEEEEEvE6invokeERNS1_15function_bufferE
FNDA:3,_ZN5boost6detail8function26void_function_obj_invoker0INS_3_bi6bind_tIvNS_4_mfi3mf2IvNS_9unit_test13test_observerEmmEENS3_5list3INS3_5valueIPS8_EENSB_INS7_17test_case_counter19readonly_property43EEENSB_ImEEEEEEvE6invokeERNS1_15function_bufferE
FNDA:0,_ZN5boost6detail8function26void_function_obj_invoker0INS_3_bi6bind_tIvNS_4_mfi3mf2IvNS_9unit_test15unit_test_log_tENS7_13output_formatERSoEENS3_5list3INS3_5valueIPS8_EENSD_IS9_EENS_17reference_wrapperISoEEEEEEvE6invokeERNS1_15function_bufferE
FNDA:1,_ZN5boost6detail8function26void_function_obj_invoker0INS_3_bi6bind_tIvPFvPFPNS_9unit_test10test_suiteEiPPcEENS3_5list1INS3_5valueISB_EEEEEEvE6invokeERNS1_15function_bufferE
FNDA:0,_ZN5boost6detail8function26void_function_obj_invoker0INS_3_bi6bind_tIvPFvRSoENS3_5list1INS_17reference_wrapperISoEEEEEEvE6invokeERNS1_15function_bufferE
FNDA:0,_ZN5boost6detail8function26void_function_obj_invoker1IZNS_9unit_test14runtime_config12_GLOBAL__N_119register_parametersERNS_7runtime16parameters_storeEEUlNS3_13basic_cstringIKcEEE_vSB_E6invokeERNS1_15function_bufferESB_
FNDA:50,_ZNK5boost6detail8function13basic_vtable0IiE9assign_toINS0_7forwardEEEbT_RNS1_15function_bufferE
FNDA:0,_ZNK5boost6detail8function13basic_vtable0IvE9assign_toINS_3_bi6bind_tIvNS_4_mfi3mf0IvNS_9unit_test17test_unit_fixtureEEENS5_5list1INS5_5valueINS_10shared_ptrISA_EEEEEEEEEEbT_RNS1_15function_bufferE
FNDA:0,_ZNK5boost6detail8function13basic_vtable0IvE9assign_toINS_3_bi6bind_tIvNS_4_mfi3mf1IvNS_9unit_test15unit_test_log_tERSoEENS5_5list2INS5_5valueIPSA_EENS_17reference_wrapperISoEEEEEEEEbT_RNS1_15function_bufferE
FNDA:3,_ZNK5boost6detail8function13basic_vtable0IvE9assign_toINS_3_bi6bind_tIvNS_4_mfi3mf2IvNS_9unit_test13test_observerEmmEENS5_5list3INS5_5valueIPSA_EENSD_INS9_17test_case_counter19readonly_property43EEENSD_ImEEEEEEEEbT_RNS1_15function_bufferE
FNDA:0,_ZNK5boost6detail8function13basic_vtable0IvE9assign_toINS_3_bi6bind_tIvNS_4_mfi3mf2IvNS_9unit_test15unit_test_log_tENS9_13output_formatERSoEENS5_5list3INS5_5valueIPSA_EENSF_ISB_EENS_17reference_wrapperISoEEEEEEEEbT_RNS1_15function_bufferE
FNDA:1,_ZNK5boost6detail8function13basic_vtable0IvE9assign_toINS_3_bi6bind_tIvPFvPFPNS_9unit_test10test_suiteEiPPcEENS5_5list1INS5_5valueISD_EEEEEEEEbT_RNS1_15function_bufferE
FNDA:0,_ZNK5boost6detail8function13basic_vtable0IvE9assign_toINS_3_bi6bind_tIvPFvRSoENS5_5list1INS_17reference_wrapperISoEEEEEEEEbT_RNS1_15function_bufferE
FNDA:46,_ZNK5boost6detail8function13basic_vtable0IvE9assign_toIPFvvEEEbT_RNS1_15function_bufferE
FNDA:1,_ZNK5boost6detail8function13basic_vtable1IvNS_9unit_test13basic_cstringIKcEEE9assign_toIZNS3_14runtime_config12_GLOBAL__N_119register_parametersERNS_7runtime16parameters_storeEEUlS6_E_EEbT_RNS1_15function_bufferE
FNDA:9,_ZNK5boost6detail8function13basic_vtable1IvRKNS_5debug16dbg_startup_infoEE9assign_toIPFvS6_EEEbT_RNS1_15function_bufferE
FNDA:0,_ZNK5boost6detail8function13basic_vtable0IiE5clearERNS1_15function_bufferE
FNDA:49,_ZNK5boost6detail8function13basic_vtable0IvE5clearERNS1_15function_bufferE
FNDA:0,_ZNK5boost6detail8function13basic_vtable1INS_10test_tools16assertion_resultEmE5clearERNS1_15function_bufferE
FNDA:0,_ZNK5boost6detail8function13basic_vtable1IvNS_9unit_test13basic_cstringIKcEEE5clearERNS1_15function_bufferE
FNDA:9,_ZNK5boost6detail8function13basic_vtable1IvRKNS_5debug16dbg_startup_infoEE5clearERNS1_15function_bufferE
FNDA:46,_ZNK5boost6detail8function13basic_vtable0IvE9assign_toIPFvvEEEbT_RNS1_15function_bufferENS1_16function_ptr_tagE
FNDA:9,_ZNK5boost6detail8function13basic_vtable1IvRKNS_5debug16dbg_startup_infoEE9assign_toIPFvS6_EEEbT_RNS1_15function_bufferENS1_16function_ptr_tagE
FNDA:50,_ZNK5boost6detail8function13basic_vtable0IiE14assign_functorINS0_7forwardEEEvT_RNS1_15function_bufferENS_17integral_constantIbLb1EEE
FNDA:1,_ZNK5boost6detail8function13basic_vtable0IvE14assign_functorINS_3_bi6bind_tIvPFvPFPNS_9unit_test10test_suiteEiPPcEENS5_5list1INS5_5valueISD_EEEEEEEEvT_RNS1_15function_bufferENS_17integral_constantIbLb1EEE
FNDA:0,_ZNK5boost6detail8function13basic_vtable0IvE14assign_functorINS_3_bi6bind_tIvPFvRSoENS5_5list1INS_17reference_wrapperISoEEEEEEEEvT_RNS1_15function_bufferENS_17integral_constantIbLb1EEE
FNDA:1,_ZNK5boost6detail8function13basic_vtable1IvNS_9unit_test13basic_cstringIKcEEE14assign_functorIZNS3_14runtime_config12_GLOBAL__N_119register_parametersERNS_7runtime16parameters_storeEEUlS6_E_EEvT_RNS1_15function_bufferENS_17integral_constantIbLb1EEE
FNDA:0,_ZNK5boost6detail8function13basic_vtable0IvE14assign_functorINS_3_bi6bind_tIvNS_4_mfi3mf0IvNS_9unit_test17test_unit_fixtureEEENS5_5list1INS5_5valueINS_10shared_ptrISA_EEEEEEEEEEvT_RNS1_15function_bufferENS_17integral_constantIbLb0EEE
FNDA:0,_ZNK5boost6detail8function13basic_vtable0IvE14assign_functorINS_3_bi6bind_tIvNS_4_mfi3mf1IvNS_9unit_test15unit_test_log_tERSoEENS5_5list2INS5_5valueIPSA_EENS_17reference_wrapperISoEEEEEEEEvT_RNS1_15function_bufferENS_17integral_constantIbLb0EEE
FNDA:3,_ZNK5boost6detail8function13basic_vtable0IvE14assign_functorINS_3_bi6bind_tIvNS_4_mfi3mf2IvNS_9unit_test13test_observerEmmEENS5_5list3INS5_5valueIPSA_EENSD_INS9_17test_case_counter19readonly_property43EEENSD_ImEEEEEEEEvT_RNS1_15function_bufferENS_17integral_constantIbLb0EEE
FNDA:0,_ZNK5boost6detail8function13basic_vtable0IvE14assign_functorINS_3_bi6bind_tIvNS_4_mfi3mf2IvNS_9unit_test15unit_test_log_tENS9_13output_formatERSoEENS5_5list3INS5_5valueIPSA_EENSF_ISB_EENS_17reference_wrapperISoEEEEEEEEvT_RNS1_15function_bufferENS_17integral_constantIbLb0EEE
FNDA:50,_ZNK5boost6detail8function13basic_vtable0IiE9assign_toINS0_7forwardEEEbT_RNS1_15function_bufferENS1_16function_obj_tagE
FNDA:0,_ZNK5boost6detail8function13basic_vtable0IvE9assign_toINS_3_bi6bind_tIvNS_4_mfi3mf0IvNS_9unit_test17test_unit_fixtureEEENS5_5list1INS5_5valueINS_10shared_ptrISA_EEEEEEEEEEbT_RNS1_15function_bufferENS1_16function_obj_tagE
FNDA:0,_ZNK5boost6detail8function13basic_vtable0IvE9assign_toINS_3_bi6bind_tIvNS_4_mfi3mf1IvNS_9unit_test15unit_test_log_tERSoEENS5_5list2INS5_5valueIPSA_EENS_17reference_wrapperISoEEEEEEEEbT_RNS1_15function_bufferENS1_16function_obj_tagE
FNDA:3,_ZNK5boost6detail8function13basic_vtable0IvE9assign_toINS_3_bi6bind_tIvNS_4_mfi3mf2IvNS_9unit_test13test_observerEmmEENS5_5list3INS5_5valueIPSA_EENSD_INS9_17test_case_counter19readonly_property43EEENSD_ImEEEEEEEEbT_RNS1_15function_bufferENS1_16function_obj_tagE
FNDA:0,_ZNK5boost6detail8function13basic_vtable0IvE9assign_toINS_3_bi6bind_tIvNS_4_mfi3mf2IvNS_9unit_test15unit_test_log_tENS9_13output_formatERSoEENS5_5list3INS5_5valueIPSA_EENSF_ISB_EENS_17reference_wrapperISoEEEEEEEEbT_RNS1_15function_bufferENS1_16function_obj_tagE
FNDA:1,_ZNK5boost6detail8function13basic_vtable0IvE9assign_toINS_3_bi6bind_tIvPFvPFPNS_9unit_test10test_suiteEiPPcEENS5_5list1INS5_5valueISD_EEEEEEEEbT_RNS1_15function_bufferENS1_16function_obj_tagE
FNDA:0,_ZNK5boost6detail8function13basic_vtable0IvE9assign_toINS_3_bi6bind_tIvPFvRSoENS5_5list1INS_17reference_wrapperISoEEEEEEEEbT_RNS1_15function_bufferENS1_16function_obj_tagE
FNDA:1,_ZNK5boost6detail8function13basic_vtable1IvNS_9unit_test13basic_cstringIKcEEE9assign_toIZNS3_14runtime_config12_GLOBAL__N_119register_parametersERNS_7runtime16parameters_storeEEUlS6_E_EEbT_RNS1_15function_bufferENS1_16function_obj_tagE
FNDA:50,_ZNK5boost9function0IiE10get_vtableEv
FNDA:53,_ZNK5boost9function0IvE10get_vtableEv
FNDA:0,_ZNK5boost9function1INS_10test_tools16assertion_resultEmE10get_vtableEv
FNDA:0,_ZNK5boost9function1IvNS_9unit_test13basic_cstringIKcEEE10get_vtableEv
FNDA:0,_ZNK5boost9function1IvRKNS_5debug16dbg_startup_infoEE10get_vtableEv
FNDA:1,_ZN5boost9function0IvEC2Ev
FNDA:29,_ZN5boost9function1IvNS_9unit_test13basic_cstringIKcEEEC2Ev
FNDA:18,_ZN5boost9function1IvRKNS_5debug16dbg_startup_infoEEC2Ev
FNDA:50,_ZN5boost9function0IiEC2INS_6detail7forwardEEET_NS_10enable_if_IXntsrNS_11is_integralIS5_EE5valueEiE4typeE
FNDA:0,_ZN5boost9function0IvEC2INS_3_bi6bind_tIvNS_4_mfi3mf0IvNS_9unit_test17test_unit_fixtureEEENS3_5list1INS3_5valueINS_10shared_ptrIS8_EEEEEEEEEET_NS_10enable_if_IXntsrNS_11is_integralISH_EE5valueEiE4typeE
FNDA:0,_ZN5boost9function0IvEC2INS_3_bi6bind_tIvNS_4_mfi3mf1IvNS_9unit_test15unit_test_log_tERSoEENS3_5list2INS3_5valueIPS8_EENS_17reference_wrapperISoEEEEEEEET_NS_10enable_if_IXntsrNS_11is_integralISJ_EE5valueEiE4typeE
FNDA:3,_ZN5boost9function0IvEC2INS_3_bi6bind_tIvNS_4_mfi3mf2IvNS_9unit_test13test_observerEmmEENS3_5list3INS3_5valueIPS8_EENSB_INS7_17test_case_counter19readonly_property43EEENSB_ImEEEEEEEET_NS_10enable_if_IXntsrNS_11is_integralISK_EE5valueEiE4typeE
FNDA:0,_ZN5boost9function0IvEC2INS_3_bi6bind_tIvNS_4_mfi3mf2IvNS_9unit_test15unit_test_log_tENS7_13output_formatERSoEENS3_5list3INS3_5valueIPS8_EENSD_IS9_EENS_17reference_wrapperISoEEEEEEEET_NS_10enable_if_IXntsrNS_11is_integralISL_EE5valueEiE4typeE
FNDA:1,_ZN5boost9function0IvEC2INS_3_bi6bind_tIvPFvPFPNS_9unit_test10test_suiteEiPPcEENS3_5list1INS3_5valueISB_EEEEEEEET_NS_10enable_if_IXntsrNS_11is_integralISJ_EE5valueEiE4typeE
FNDA:0,_ZN5boost9function0IvEC2INS_3_bi6bind_tIvPFvRSoENS3_5list1INS_17reference_wrapperISoEEEEEEEET_NS_10enable_if_IXntsrNS_11is_integralISD_EE5valueEiE4typeE
FNDA:46,_ZN5boost9function0IvEC2IPFvvEEET_NS_10enable_if_IXntsrNS_11is_integralIS5_EE5valueEiE4typeE
FNDA:1,_ZN5boost9function1IvNS_9unit_test13basic_cstringIKcEEEC2IZNS1_14runtime_config12_GLOBAL__N_119register_parametersERNS_7runtime16parameters_storeEEUlS4_E_EET_NS_10enable_if_IXntsrNS_11is_integralISD_EE5valueEiE4typeE
FNDA:9,_ZN5boost9function1IvRKNS_5debug16dbg_startup_infoEEC2IPFvS4_EEET_NS_10enable_if_IXntsrNS_11is_integralIS9_EE5valueEiE4typeE
FNDA:46,_ZN5boost9function0IvEC2ERKS1_
FNDA:0,_ZN5boost9function1INS_10test_tools16assertion_resultEmEC2ERKS3_
FNDA:28,_ZN5boost9function1IvNS_9unit_test13basic_cstringIKcEEEC2ERKS5_
FNDA:0,_ZN5boost9function1IvRKNS_5debug16dbg_startup_infoEEC2ERKS5_
FNDA:28,_ZN5boost9function1IvNS_9unit_test13basic_cstringIKcEEEC2EOS5_
FNDA:50,_ZN5boost9function0IiED2Ev
FNDA:97,_ZN5boost9function0IvED2Ev
FNDA:0,_ZN5boost9function1INS_10test_tools16assertion_resultEmED2Ev
FNDA:86,_ZN5boost9function1IvNS_9unit_test13basic_cstringIKcEEED2Ev
FNDA:27,_ZN5boost9function1IvRKNS_5debug16dbg_startup_infoEED2Ev
FNDA:50,_ZNK5boost9function0IiEclEv
FNDA:50,_ZNK5boost9function0IvEclEv
FNDA:0,_ZNK5boost9function1INS_10test_tools16assertion_resultEmEclEm
FNDA:0,_ZNK5boost9function1IvNS_9unit_test13basic_cstringIKcEEEclES4_
FNDA:0,_ZNK5boost9function1IvRKNS_5debug16dbg_startup_infoEEclES4_
FNDA:1,_ZN5boost9function1IvNS_9unit_test13basic_cstringIKcEEE4swapERS5_
FNDA:9,_ZN5boost9function1IvRKNS_5debug16dbg_startup_infoEE4swapERS5_
FNDA:50,_ZN5boost9function0IiE5clearEv
FNDA:97,_ZN5boost9function0IvE5clearEv
FNDA:0,_ZN5boost9function1INS_10test_tools16assertion_resultEmE5clearEv
FNDA:114,_ZN5boost9function1IvNS_9unit_test13basic_cstringIKcEEE5clearEv
FNDA:36,_ZN5boost9function1IvRKNS_5debug16dbg_startup_infoEE5clearEv
FNDA:0,_ZN5boost9function0IvE5dummy7nonnullEv
FNDA:1,_ZNK5boost9function0IvEcvMNS1_5dummyEFvvEEv
FNDA:23,_ZNK5boost9function1IvNS_9unit_test13basic_cstringIKcEEEntEv
FNDA:0,_ZNK5boost9function1IvRKNS_5debug16dbg_startup_infoEEntEv
FNDA:46,_ZN5boost9function0IvE13assign_to_ownERKS1_
FNDA:0,_ZN5boost9function1INS_10test_tools16assertion_resultEmE13assign_to_ownERKS3_
FNDA:28,_ZN5boost9function1IvNS_9unit_test13basic_cstringIKcEEE13assign_to_ownERKS5_
FNDA:0,_ZN5boost9function1IvRKNS_5debug16dbg_startup_infoEE13assign_to_ownERKS5_
FNDA:50,_ZN5boost9function0IiE9assign_toINS_6detail7forwardEEEvT_
FNDA:0,_ZN5boost9function0IvE9assign_toINS_3_bi6bind_tIvNS_4_mfi3mf0IvNS_9unit_test17test_unit_fixtureEEENS3_5list1INS3_5valueINS_10shared_ptrIS8_EEEEEEEEEEvT_
FNDA:0,_ZN5boost9function0IvE9assign_toINS_3_bi6bind_tIvNS_4_mfi3mf1IvNS_9unit_test15unit_test_log_tERSoEENS3_5list2INS3_5valueIPS8_EENS_17reference_wrapperISoEEEEEEEEvT_
FNDA:3,_ZN5boost9function0IvE9assign_toINS_3_bi6bind_tIvNS_4_mfi3mf2IvNS_9unit_test13test_observerEmmEENS3_5list3INS3_5valueIPS8_EENSB_INS7_17test_case_counter19readonly_property43EEENSB_ImEEEEEEEEvT_
FNDA:0,_ZN5boost9function0IvE9assign_toINS_3_bi6bind_tIvNS_4_mfi3mf2IvNS_9unit_test15unit_test_log_tENS7_13output_formatERSoEENS3_5list3INS3_5valueIPS8_EENSD_IS9_EENS_17reference_wrapperISoEEEEEEEEvT_
FNDA:1,_ZN5boost9function0IvE9assign_toINS_3_bi6bind_tIvPFvPFPNS_9unit_test10test_suiteEiPPcEENS3_5list1INS3_5valueISB_EEEEEEEEvT_
FNDA:0,_ZN5boost9function0IvE9assign_toINS_3_bi6bind_tIvPFvRSoENS3_5list1INS_17reference_wrapperISoEEEEEEEEvT_
FNDA:46,_ZN5boost9function0IvE9assign_toIPFvvEEEvT_
FNDA:1,_ZN5boost9function1IvNS_9unit_test13basic_cstringIKcEEE9assign_toIZNS1_14runtime_config12_GLOBAL__N_119register_parametersERNS_7runtime16parameters_storeEEUlS4_E_EEvT_
FNDA:9,_ZN5boost9function1IvRKNS_5debug16dbg_startup_infoEE9assign_toIPFvS4_EEEvT_
FNF:124
FNH:74
DA:112,46
DA:116,46
DA:117,46
DA:118,46
DA:128,50
DA:134,50
DA:137,50
DA:149,4
DA:155,1
DA:157,3
DA:158,4
DA:159,4
DA:490,110
DA:493,110
DA:502,58
DA:509,58
DA:510,58
DA:514,58
DA:520,55
DA:522,55
DA:523,55
DA:526,55
DA:527,55
DA:529,0
DA:573,52
DA:575,52
DA:576,52
DA:587,3
DA:589,3
DA:590,3
DA:617,55
DA:619,55
DA:620,55
DA:622,55
DA:624,0
DA:685,103
DA:687,103
DA:714,48
DA:719,110
DA:726,110
DA:728,110
DA:729,110
DA:752,74
DA:754,74
DA:755,74
DA:758,28
DA:760,28
DA:761,28
DA:764,260
DA:766,100
DA:768,100
DA:769,0
DA:771,100
DA:772,100
DA:864,10
DA:866,10
DA:867,0
DA:869,10
DA:870,10
DA:871,10
DA:872,10
DA:873,10
DA:876,297
DA:878,297
DA:879,157
DA:880,3
DA:881,157
DA:883,297
DA:891,0
DA:897,1
DA:898,1
DA:900,23
DA:901,23
DA:905,74
DA:907,74
DA:908,47
DA:909,47
DA:922,47
DA:927,0
DA:930,74
DA:933,110
DA:954,110
DA:955,110
DA:960,107
DA:961,110
DA:963,0
DA:964,110
DA:1003,58
DA:1005,58
DA:1006,0
DA:1009,58
DA:1010,21
DA:1011,21
DA:1024,21
DA:1034,0
DA:1039,21
DA:1041,37
DA:1043,0
DA:1044,0
DA:1045,0
DA:1100,38
DA:1103,110
DA:1110,110
DA:1112,110
DA:1129,74
DA:1135,28
DA:1139,0
DA:1141,0
DA:1142,0
DA:1161,10
DA:1163,10
DA:1164,10
LF:112
LH:97
end_of_record
TN:
SF:/usr/include/boost/io/ios_state.hpp
FN:370,374,_ZN5boost2io18ios_base_all_saverC2ERSt8ios_base
FN:376,378,_ZN5boost2io18ios_base_all_saverD2Ev
FN:380,384,_ZN5boost2io18ios_base_all_saver7restoreEv
FNDA:8,_ZN5boost2io18ios_base_all_saverC2ERSt8ios_base
FNDA:8,_ZN5boost2io18ios_base_all_saverD2Ev
FNDA:111,_ZN5boost2io18ios_base_all_saver7restoreEv
FNF:3
FNH:3
DA:370,8
DA:371,8
DA:372,8
DA:373,8
DA:374,8
DA:376,8
DA:377,8
DA:378,8
DA:380,111
DA:381,111
DA:382,111
DA:383,111
DA:384,111
LF:13
LH:13
end_of_record
TN:
SF:/usr/include/boost/iterator/iterator_facade.hpp
FN:407,407,_ZN5boost9iterators6detail23operator_arrow_dispatchINS_9unit_test13basic_cstringIKcEEPS6_E5proxyC2ERKS6_
FN:408,408,_ZN5boost9iterators6detail23operator_arrow_dispatchINS_9unit_test13basic_cstringIKcEEPS6_E5proxyptEv
FN:415,418,_ZN5boost9iterators6detail23operator_arrow_dispatchINS_9unit_test13basic_cstringIKcEEPS6_E5applyERKS6_
FN:629,632,_ZN5boost9iterators20iterator_core_access11dereferenceINS_9unit_test5utils27basic_string_token_iteratorIcNS4_9ut_detail20default_char_compareIcEEEEEENT_9referenceERKSA_
FN:635,638,_ZN5boost9iterators20iterator_core_access9incrementINS_9unit_test5utils27basic_string_token_iteratorIcNS4_9ut_detail20default_char_compareIcEEEEEEvRT_
FN:647,650,_ZN5boost9iterators20iterator_core_access5equalINS_9unit_test5utils27basic_string_token_iteratorIcNS4_9ut_detail20default_char_compareIcEEEES9_EEbRKT_RKT0_N4mpl_5bool_ILb1EEE
FN:735,738,_ZNK5boost9iterators6detail20iterator_facade_baseINS_9unit_test5utils27basic_string_token_iteratorIcNS4_9ut_detail20default_char_compareIcEEEENS3_13basic_cstringIKcEENS0_21forward_traversal_tagESC_lLb0ELb0EEdeEv
FN:740,743,_ZNK5boost9iterators6detail20iterator_facade_baseINS_9unit_test5utils27basic_string_token_iteratorIcNS4_9ut_detail20default_char_compareIcEEEENS3_13basic_cstringIKcEENS0_21forward_traversal_tagESC_lLb0ELb0EEptEv
FN:745,749,_ZN5boost9iterators6detail20iterator_facade_baseINS_9unit_test5utils27basic_string_token_iteratorIcNS4_9ut_detail20default_char_compareIcEEEENS3_13basic_cstringIKcEENS0_21forward_traversal_tagESC_lLb0ELb0EEppEv
FN:755,758,_ZN5boost9iterators6detail20iterator_facade_baseINS_9unit_test5utils27basic_string_token_iteratorIcNS4_9ut_detail20default_char_compareIcEEEENS3_13basic_cstringIKcEENS0_21forward_traversal_tagESC_lLb0ELb0EE7derivedEv
FN:760,763,_ZNK5boost9iterators6detail20iterator_facade_baseINS_9unit_test5utils27basic_string_token_iteratorIcNS4_9ut_detail20default_char_compareIcEEEENS3_13basic_cstringIKcEENS0_21forward_traversal_tagESC_lLb0ELb0EE7derivedEv
FN:982,982,_ZN5boost9iteratorsneINS_9unit_test5utils27basic_string_token_iteratorIcNS3_9ut_detail20default_char_compareIcEEEENS2_13basic_cstringIKcEENS0_21forward_traversal_tagESB_lS8_SB_SC_SB_lEENS0_6detail23enable_if_interoperableIT_T4_NS_3mpl6apply2INSD_12always_bool2ESF_SG_E4typeEE4typeERKNS0_15iterator_facadeISF_T0_T1_T2_T3_EERKNSO_ISG_T5_T6_T7_T8_EE
FNDA:0,_ZN5boost9iterators6detail23operator_arrow_dispatchINS_9unit_test13basic_cstringIKcEEPS6_E5proxyC2ERKS6_
FNDA:0,_ZN5boost9iterators6detail23operator_arrow_dispatchINS_9unit_test13basic_cstringIKcEEPS6_E5proxyptEv
FNDA:0,_ZN5boost9iterators6detail23operator_arrow_dispatchINS_9unit_test13basic_cstringIKcEEPS6_E5applyERKS6_
FNDA:0,_ZN5boost9iterators20iterator_core_access11dereferenceINS_9unit_test5utils27basic_string_token_iteratorIcNS4_9ut_detail20default_char_compareIcEEEEEENT_9referenceERKSA_
FNDA:0,_ZN5boost9iterators20iterator_core_access9incrementINS_9unit_test5utils27basic_string_token_iteratorIcNS4_9ut_detail20default_char_compareIcEEEEEEvRT_
FNDA:0,_ZN5boost9iterators20iterator_core_access5equalINS_9unit_test5utils27basic_string_token_iteratorIcNS4_9ut_detail20default_char_compareIcEEEES9_EEbRKT_RKT0_N4mpl_5bool_ILb1EEE
FNDA:0,_ZNK5boost9iterators6detail20iterator_facade_baseINS_9unit_test5utils27basic_string_token_iteratorIcNS4_9ut_detail20default_char_compareIcEEEENS3_13basic_cstringIKcEENS0_21forward_traversal_tagESC_lLb0ELb0EEdeEv
FNDA:0,_ZNK5boost9iterators6detail20iterator_facade_baseINS_9unit_test5utils27basic_string_token_iteratorIcNS4_9ut_detail20default_char_compareIcEEEENS3_13basic_cstringIKcEENS0_21forward_traversal_tagESC_lLb0ELb0EEptEv
FNDA:0,_ZN5boost9iterators6detail20iterator_facade_baseINS_9unit_test5utils27basic_string_token_iteratorIcNS4_9ut_detail20default_char_compareIcEEEENS3_13basic_cstringIKcEENS0_21forward_traversal_tagESC_lLb0ELb0EEppEv
FNDA:0,_ZN5boost9iterators6detail20iterator_facade_baseINS_9unit_test5utils27basic_string_token_iteratorIcNS4_9ut_detail20default_char_compareIcEEEENS3_13basic_cstringIKcEENS0_21forward_traversal_tagESC_lLb0ELb0EE7derivedEv
FNDA:0,_ZNK5boost9iterators6detail20iterator_facade_baseINS_9unit_test5utils27basic_string_token_iteratorIcNS4_9ut_detail20default_char_compareIcEEEENS3_13basic_cstringIKcEENS0_21forward_traversal_tagESC_lLb0ELb0EE7derivedEv
FNDA:0,_ZN5boost9iteratorsneINS_9unit_test5utils27basic_string_token_iteratorIcNS3_9ut_detail20default_char_compareIcEEEENS2_13basic_cstringIKcEENS0_21forward_traversal_tagESB_lS8_SB_SC_SB_lEENS0_6detail23enable_if_interoperableIT_T4_NS_3mpl6apply2INSD_12always_bool2ESF_SG_E4typeEE4typeERKNS0_15iterator_facadeISF_T0_T1_T2_T3_EERKNSO_ISG_T5_T6_T7_T8_EE
FNF:12
FNH:0
DA:407,0
DA:408,0
DA:415,0
DA:417,0
DA:629,0
DA:631,0
DA:635,0
DA:637,0
DA:638,0
DA:647,0
DA:649,0
DA:735,0
DA:737,0
DA:740,0
DA:742,0
DA:745,0
DA:747,0
DA:748,0
DA:755,0
DA:757,0
DA:760,0
DA:762,0
DA:982,0
LF:23
LH:0
end_of_record
TN:
SF:/usr/include/boost/smart_ptr/detail/operator_bool.hpp
FN:12,15,_ZNK5boost10shared_ptrINS_16exception_detail15error_info_baseEEcvbEv
FN:12,15,_ZNK5boost10shared_ptrINS_6detail22translator_holder_baseEEcvbEv
FN:12,15,_ZNK5boost10shared_ptrINS_7runtime3cla13rt_cla_detail14parameter_trieEEcvbEv
FN:12,15,_ZNK5boost10shared_ptrINS_7runtime3cla6parserEEcvbEv
FN:61,64,_ZNK5boost10shared_ptrINS_23basic_wrap_stringstreamIcEEEntEv
FN:61,64,_ZNK5boost10shared_ptrINS_7runtime3cla13rt_cla_detail14parameter_trieEEntEv
FN:61,64,_ZNK5boost12scoped_arrayIcEntEv
FNDA:0,_ZNK5boost10shared_ptrINS_16exception_detail15error_info_baseEEcvbEv
FNDA:50,_ZNK5boost10shared_ptrINS_6detail22translator_holder_baseEEcvbEv
FNDA:18,_ZNK5boost10shared_ptrINS_7runtime3cla13rt_cla_detail14parameter_trieEEcvbEv
FNDA:0,_ZNK5boost10shared_ptrINS_7runtime3cla6parserEEcvbEv
FNDA:94,_ZNK5boost10shared_ptrINS_23basic_wrap_stringstreamIcEEEntEv
FNDA:73,_ZNK5boost10shared_ptrINS_7runtime3cla13rt_cla_detail14parameter_trieEEntEv
FNDA:50,_ZNK5boost12scoped_arrayIcEntEv
FNF:7
FNH:5
DA:12,68
DA:14,68
DA:61,217
DA:63,217
LF:4
LH:4
end_of_record
TN:
SF:/usr/include/boost/smart_ptr/detail/shared_count.hpp
FN:127,132,_ZN5boost6detail12shared_countC2Ev
FN:141,169,_ZN5boost6detail12shared_countC2INS_16exception_detail15error_info_baseEEEPT_
FN:141,169,_ZN5boost6detail12shared_countC2INS_23basic_wrap_stringstreamIcEEEEPT_
FN:141,169,_ZN5boost6detail12shared_countC2INS_2io18ios_base_all_saverEEEPT_
FN:141,169,_ZN5boost6detail12shared_countC2INS_7runtime14enum_parameterINS_9unit_test12report_levelELNS3_11args_amountE0EEEEEPT_
FN:141,169,_ZN5boost6detail12shared_countC2INS_7runtime14enum_parameterINS_9unit_test13output_formatELNS3_11args_amountE0EEEEEPT_
FN:141,169,_ZN5boost6detail12shared_countC2INS_7runtime14enum_parameterINS_9unit_test9log_levelELNS3_11args_amountE0EEEEEPT_
FN:141,169,_ZN5boost6detail12shared_countC2INS_7runtime14typed_argumentINS_9unit_test12report_levelEEEEEPT_
FN:141,169,_ZN5boost6detail12shared_countC2INS_7runtime14typed_argumentINS_9unit_test13output_formatEEEEEPT_
FN:141,169,_ZN5boost6detail12shared_countC2INS_7runtime14typed_argumentINS_9unit_test9log_levelEEEEEPT_
FN:141,169,_ZN5boost6detail12shared_countC2INS_7runtime14typed_argumentINSt7__cxx1112basic_stringIcSt11char_traitsIcESaIcEEEEEEEPT_
FN:141,169,_ZN5boost6detail12shared_countC2INS_7runtime14typed_argumentISt6vectorINSt7__cxx1112basic_stringIcSt11char_traitsIcESaIcEEESaISB_EEEEEEPT_
FN:141,169,_ZN5boost6detail12shared_countC2INS_7runtime14typed_argumentIbEEEEPT_
FN:141,169,_ZN5boost6detail12shared_countC2INS_7runtime14typed_argumentIjEEEEPT_
FN:141,169,_ZN5boost6detail12shared_countC2INS_7runtime14typed_argumentImEEEEPT_
FN:141,169,_ZN5boost6detail12shared_countC2INS_7runtime3cla13rt_cla_detail14parameter_trieEEEPT_
FN:141,169,_ZN5boost6detail12shared_countC2INS_7runtime3cla6parserEEEPT_
FN:141,169,_ZN5boost6detail12shared_countC2INS_7runtime6optionEEEPT_
FN:141,169,_ZN5boost6detail12shared_countC2INS_7runtime9parameterINS_9unit_test12report_levelELNS3_11args_amountE0ELb1EEEEEPT_
FN:141,169,_ZN5boost6detail12shared_countC2INS_7runtime9parameterINS_9unit_test13output_formatELNS3_11args_amountE0ELb1EEEEEPT_
FN:141,169,_ZN5boost6detail12shared_countC2INS_7runtime9parameterINS_9unit_test9log_levelELNS3_11args_amountE0ELb1EEEEEPT_
FN:141,169,_ZN5boost6detail12shared_countC2INS_7runtime9parameterINSt7__cxx1112basic_stringIcSt11char_traitsIcESaIcEEELNS3_11args_amountE0ELb0EEEEEPT_
FN:141,169,_ZN5boost6detail12shared_countC2INS_7runtime9parameterINSt7__cxx1112basic_stringIcSt11char_traitsIcESaIcEEELNS3_11args_amountE2ELb0EEEEEPT_
FN:141,169,_ZN5boost6detail12shared_countC2INS_7runtime9parameterIjLNS3_11args_amountE0ELb0EEEEEPT_
FN:141,169,_ZN5boost6detail12shared_countC2INS_7runtime9parameterImLNS3_11args_amountE0ELb0EEEEEPT_
FN:141,169,_ZN5boost6detail12shared_countC2INS_9unit_test23unit_test_log_formatterEEEPT_
FN:141,169,_ZN5boost6detail12shared_countC2INS_9unit_test9decorator10depends_onEEEPT_
FN:141,169,_ZN5boost6detail12shared_countC2INS_9unit_test9decorator11descriptionEEEPT_
FN:141,169,_ZN5boost6detail12shared_countC2INS_9unit_test9decorator12preconditionEEEPT_
FN:141,169,_ZN5boost6detail12shared_countC2INS_9unit_test9decorator15stack_decoratorEEEPT_
FN:141,169,_ZN5boost6detail12shared_countC2INS_9unit_test9decorator17expected_failuresEEEPT_
FN:141,169,_ZN5boost6detail12shared_countC2INS_9unit_test9decorator5labelEEEPT_
FN:141,169,_ZN5boost6detail12shared_countC2INS_9unit_test9decorator7timeoutEEEPT_
FN:141,169,_ZN5boost6detail12shared_countC2INS_9unit_test9decorator9fixture_tEEEPT_
FN:141,169,_ZN5boost6detail12shared_countC2INS_9unit_test9framework4impl21global_fixture_handleEEEPT_
FN:210,238,_ZN5boost6detail12shared_countC2IPNS_9unit_test14runtime_config13stream_holder16callback_cleanerENS0_13sp_ms_deleterIS6_EEEET_NS0_14sp_inplace_tagIT0_EE
FN:430,436,_ZN5boost6detail12shared_countD2Ev
FN:438,444,_ZN5boost6detail12shared_countC2ERKS1_
FN:448,454,_ZN5boost6detail12shared_countC2EOS1_
FN:475,480,_ZN5boost6detail12shared_count4swapERS1_
FN:521,524,_ZNK5boost6detail12shared_count19get_untyped_deleterEv
FNDA:1486,_ZN5boost6detail12shared_countC2Ev
FNDA:0,_ZN5boost6detail12shared_countC2INS_16exception_detail15error_info_baseEEEPT_
FNDA:0,_ZN5boost6detail12shared_countC2INS_23basic_wrap_stringstreamIcEEEEPT_
FNDA:6,_ZN5boost6detail12shared_countC2INS_2io18ios_base_all_saverEEEPT_
FNDA:1,_ZN5boost6detail12shared_countC2INS_7runtime14enum_parameterINS_9unit_test12report_levelELNS3_11args_amountE0EEEEEPT_
FNDA:4,_ZN5boost6detail12shared_countC2INS_7runtime14enum_parameterINS_9unit_test13output_formatELNS3_11args_amountE0EEEEEPT_
FNDA:1,_ZN5boost6detail12shared_countC2INS_7runtime14enum_parameterINS_9unit_test9log_levelELNS3_11args_amountE0EEEEEPT_
FNDA:1,_ZN5boost6detail12shared_countC2INS_7runtime14typed_argumentINS_9unit_test12report_levelEEEEEPT_
FNDA:3,_ZN5boost6detail12shared_countC2INS_7runtime14typed_argumentINS_9unit_test13output_formatEEEEEPT_
FNDA:1,_ZN5boost6detail12shared_countC2INS_7runtime14typed_argumentINS_9unit_test9log_levelEEEEEPT_
FNDA:1,_ZN5boost6detail12shared_countC2INS_7runtime14typed_argumentINSt7__cxx1112basic_stringIcSt11char_traitsIcESaIcEEEEEEEPT_
FNDA:2,_ZN5boost6detail12shared_countC2INS_7runtime14typed_argumentISt6vectorINSt7__cxx1112basic_stringIcSt11char_traitsIcESaIcEEESaISB_EEEEEEPT_
FNDA:13,_ZN5boost6detail12shared_countC2INS_7runtime14typed_argumentIbEEEEPT_
FNDA:1,_ZN5boost6detail12shared_countC2INS_7runtime14typed_argumentIjEEEEPT_
FNDA:1,_ZN5boost6detail12shared_countC2INS_7runtime14typed_argumentImEEEEPT_
FNDA:572,_ZN5boost6detail12shared_countC2INS_7runtime3cla13rt_cla_detail14parameter_trieEEEPT_
FNDA:1,_ZN5boost6detail12shared_countC2INS_7runtime3cla6parserEEEPT_
FNDA:13,_ZN5boost6detail12shared_countC2INS_7runtime6optionEEEPT_
FNDA:0,_ZN5boost6detail12shared_countC2INS_7runtime9parameterINS_9unit_test12report_levelELNS3_11args_amountE0ELb1EEEEEPT_
FNDA:0,_ZN5boost6detail12shared_countC2INS_7runtime9parameterINS_9unit_test13output_formatELNS3_11args_amountE0ELb1EEEEEPT_
FNDA:0,_ZN5boost6detail12shared_countC2INS_7runtime9parameterINS_9unit_test9log_levelELNS3_11args_amountE0ELb1EEEEEPT_
FNDA:5,_ZN5boost6detail12shared_countC2INS_7runtime9parameterINSt7__cxx1112basic_stringIcSt11char_traitsIcESaIcEEELNS3_11args_amountE0ELb0EEEEEPT_
FNDA:2,_ZN5boost6detail12shared_countC2INS_7runtime9parameterINSt7__cxx1112basic_stringIcSt11char_traitsIcESaIcEEELNS3_11args_amountE2ELb0EEEEEPT_
FNDA:1,_ZN5boost6detail12shared_countC2INS_7runtime9parameterIjLNS3_11args_amountE0ELb0EEEEEPT_
FNDA:1,_ZN5boost6detail12shared_countC2INS_7runtime9parameterImLNS3_11args_amountE0ELb0EEEEEPT_
FNDA:3,_ZN5boost6detail12shared_countC2INS_9unit_test23unit_test_log_formatterEEEPT_
FNDA:0,_ZN5boost6detail12shared_countC2INS_9unit_test9decorator10depends_onEEEPT_
FNDA:0,_ZN5boost6detail12shared_countC2INS_9unit_test9decorator11descriptionEEEPT_
FNDA:0,_ZN5boost6detail12shared_countC2INS_9unit_test9decorator12preconditionEEEPT_
FNDA:0,_ZN5boost6detail12shared_countC2INS_9unit_test9decorator15stack_decoratorEEEPT_
FNDA:0,_ZN5boost6detail12shared_countC2INS_9unit_test9decorator17expected_failuresEEEPT_
FNDA:0,_ZN5boost6detail12shared_countC2INS_9unit_test9decorator5labelEEEPT_
FNDA:0,_ZN5boost6detail12shared_countC2INS_9unit_test9decorator7timeoutEEEPT_
FNDA:0,_ZN5boost6detail12shared_countC2INS_9unit_test9decorator9fixture_tEEEPT_
FNDA:0,_ZN5boost6detail12shared_countC2INS_9unit_test9framework4impl21global_fixture_handleEEEPT_
FNDA:0,_ZN5boost6detail12shared_countC2IPNS_9unit_test14runtime_config13stream_holder16callback_cleanerENS0_13sp_ms_deleterIS6_EEEET_NS0_14sp_inplace_tagIT0_EE
FNDA:6353,_ZN5boost6detail12shared_countD2Ev
FNDA:2344,_ZN5boost6detail12shared_countC2ERKS1_
FNDA:1888,_ZN5boost6detail12shared_countC2EOS1_
FNDA:2038,_ZN5boost6detail12shared_count4swapERS1_
FNDA:0,_ZNK5boost6detail12shared_count19get_untyped_deleterEv
FNF:41
FNH:25
DA:127,1486
DA:132,1486
DA:141,633
DA:150,633
DA:152,0
DA:154,0
DA:155,0
DA:169,633
DA:210,0
DA:219,0
DA:221,0
DA:223,0
DA:224,0
DA:238,0
DA:430,6353
DA:432,6353
DA:436,6353
DA:438,2344
DA:443,2344
DA:444,2344
DA:448,1888
DA:453,1888
DA:454,1888
DA:475,2038
DA:477,2038
DA:478,2038
DA:479,2038
DA:480,2038
DA:521,0
DA:523,0
LF:30
LH:19
end_of_record
TN:
SF:/usr/include/boost/smart_ptr/detail/sp_counted_base_gcc_atomic.hpp
FN:106,109,_ZN5boost6detail15sp_counted_base12add_ref_copyEv
FN:116,123,_ZN5boost6detail15sp_counted_base7releaseEv
FN:130,136,_ZN5boost6detail15sp_counted_base12weak_releaseEv
FN:33,36,_ZN5boost6detail16atomic_incrementEPj
FN:38,41,_ZN5boost6detail16atomic_decrementEPj
FN:82,84,_ZN5boost6detail15sp_counted_baseC2Ev
FN:86,88,_ZN5boost6detail15sp_counted_baseD0Ev
FN:86,88,_ZN5boost6detail15sp_counted_baseD2Ev
FN:97,100,_ZN5boost6detail15sp_counted_base7destroyEv
FNDA:2341,_ZN5boost6detail15sp_counted_base12add_ref_copyEv
FNDA:2974,_ZN5boost6detail15sp_counted_base7releaseEv
FNDA:633,_ZN5boost6detail15sp_counted_base12weak_releaseEv
FNDA:2341,_ZN5boost6detail16atomic_incrementEPj
FNDA:3607,_ZN5boost6detail16atomic_decrementEPj
FNDA:633,_ZN5boost6detail15sp_counted_baseC2Ev
FNDA:0,_ZN5boost6detail15sp_counted_baseD0Ev
FNDA:633,_ZN5boost6detail15sp_counted_baseD2Ev
FNDA:633,_ZN5boost6detail15sp_counted_base7destroyEv
FNF:9
FNH:8
DA:33,2341
DA:35,2341
DA:36,2341
DA:38,3607
DA:40,3607
DA:82,633
DA:84,633
DA:86,633
DA:87,633
DA:88,633
DA:97,633
DA:99,633
DA:100,633
DA:106,2341
DA:108,2341
DA:109,2341
DA:116,2974
DA:118,2974
DA:120,633
DA:121,633
DA:123,2974
DA:130,633
DA:132,633
DA:134,633
DA:136,633
LF:25
LH:25
end_of_record
TN:
SF:/usr/include/boost/smart_ptr/detail/sp_counted_impl.hpp
FN:102,105,_ZN5boost6detail17sp_counted_impl_pINS_16exception_detail15error_info_baseEE19get_untyped_deleterEv
FN:102,105,_ZN5boost6detail17sp_counted_impl_pINS_23basic_wrap_stringstreamIcEEE19get_untyped_deleterEv
FN:102,105,_ZN5boost6detail17sp_counted_impl_pINS_2io18ios_base_all_saverEE19get_untyped_deleterEv
FN:102,105,_ZN5boost6detail17sp_counted_impl_pINS_7runtime14enum_parameterINS_9unit_test12report_levelELNS2_11args_amountE0EEEE19get_untyped_deleterEv
FN:102,105,_ZN5boost6detail17sp_counted_impl_pINS_7runtime14enum_parameterINS_9unit_test13output_formatELNS2_11args_amountE0EEEE19get_untyped_deleterEv
FN:102,105,_ZN5boost6detail17sp_counted_impl_pINS_7runtime14enum_parameterINS_9unit_test9log_levelELNS2_11args_amountE0EEEE19get_untyped_deleterEv
FN:102,105,_ZN5boost6detail17sp_counted_impl_pINS_7runtime14typed_argumentINS_9unit_test12report_levelEEEE19get_untyped_deleterEv
FN:102,105,_ZN5boost6detail17sp_counted_impl_pINS_7runtime14typed_argumentINS_9unit_test13output_formatEEEE19get_untyped_deleterEv
FN:102,105,_ZN5boost6detail17sp_counted_impl_pINS_7runtime14typed_argumentINS_9unit_test9log_levelEEEE19get_untyped_deleterEv
FN:102,105,_ZN5boost6detail17sp_counted_impl_pINS_7runtime14typed_argumentINSt7__cxx1112basic_stringIcSt11char_traitsIcESaIcEEEEEE19get_untyped_deleterEv
FN:102,105,_ZN5boost6detail17sp_counted_impl_pINS_7runtime14typed_argumentISt6vectorINSt7__cxx1112basic_stringIcSt11char_traitsIcESaIcEEESaISA_EEEEE19get_untyped_deleterEv
FN:102,105,_ZN5boost6detail17sp_counted_impl_pINS_7runtime14typed_argumentIbEEE19get_untyped_deleterEv
FN:102,105,_ZN5boost6detail17sp_counted_impl_pINS_7runtime14typed_argumentIjEEE19get_untyped_deleterEv
FN:102,105,_ZN5boost6detail17sp_counted_impl_pINS_7runtime14typed_argumentImEEE19get_untyped_deleterEv
FN:102,105,_ZN5boost6detail17sp_counted_impl_pINS_7runtime3cla13rt_cla_detail14parameter_trieEE19get_untyped_deleterEv
FN:102,105,_ZN5boost6detail17sp_counted_impl_pINS_7runtime3cla6parserEE19get_untyped_deleterEv
FN:102,105,_ZN5boost6detail17sp_counted_impl_pINS_7runtime6optionEE19get_untyped_deleterEv
FN:102,105,_ZN5boost6detail17sp_counted_impl_pINS_7runtime9parameterINS_9unit_test12report_levelELNS2_11args_amountE0ELb1EEEE19get_untyped_deleterEv
FN:102,105,_ZN5boost6detail17sp_counted_impl_pINS_7runtime9parameterINS_9unit_test13output_formatELNS2_11args_amountE0ELb1EEEE19get_untyped_deleterEv
FN:102,105,_ZN5boost6detail17sp_counted_impl_pINS_7runtime9parameterINS_9unit_test9log_levelELNS2_11args_amountE0ELb1EEEE19get_untyped_deleterEv
FN:102,105,_ZN5boost6detail17sp_counted_impl_pINS_7runtime9parameterINSt7__cxx1112basic_stringIcSt11char_traitsIcESaIcEEELNS2_11args_amountE0ELb0EEEE19get_untyped_deleterEv
FN:102,105,_ZN5boost6detail17sp_counted_impl_pINS_7runtime9parameterINSt7__cxx1112basic_stringIcSt11char_traitsIcESaIcEEELNS2_11args_amountE2ELb0EEEE19get_untyped_deleterEv
FN:102,105,_ZN5boost6detail17sp_counted_impl_pINS_7runtime9parameterIjLNS2_11args_amountE0ELb0EEEE19get_untyped_deleterEv
FN:102,105,_ZN5boost6detail17sp_counted_impl_pINS_7runtime9parameterImLNS2_11args_amountE0ELb0EEEE19get_untyped_deleterEv
FN:102,105,_ZN5boost6detail17sp_counted_impl_pINS_9unit_test23unit_test_log_formatterEE19get_untyped_deleterEv
FN:102,105,_ZN5boost6detail17sp_counted_impl_pINS_9unit_test9decorator10depends_onEE19get_untyped_deleterEv
FN:102,105,_ZN5boost6detail17sp_counted_impl_pINS_9unit_test9decorator11descriptionEE19get_untyped_deleterEv
FN:102,105,_ZN5boost6detail17sp_counted_impl_pINS_9unit_test9decorator12preconditionEE19get_untyped_deleterEv
FN:102,105,_ZN5boost6detail17sp_counted_impl_pINS_9unit_test9decorator15stack_decoratorEE19get_untyped_deleterEv
FN:102,105,_ZN5boost6detail17sp_counted_impl_pINS_9unit_test9decorator17expected_failuresEE19get_untyped_deleterEv
FN:102,105,_ZN5boost6detail17sp_counted_impl_pINS_9unit_test9decorator5labelEE19get_untyped_deleterEv
FN:102,105,_ZN5boost6detail17sp_counted_impl_pINS_9unit_test9decorator7timeoutEE19get_untyped_deleterEv
FN:102,105,_ZN5boost6detail17sp_counted_impl_pINS_9unit_test9decorator9fixture_tEE19get_untyped_deleterEv
FN:102,105,_ZN5boost6detail17sp_counted_impl_pINS_9unit_test9framework4impl21global_fixture_handleEE19get_untyped_deleterEv
FN:173,175,_ZN5boost6detail18sp_counted_impl_pdIPNS_9unit_test14runtime_config13stream_holder16callback_cleanerENS0_13sp_ms_deleterIS5_EEEC2ES6_
FN:177,180,_ZN5boost6detail18sp_counted_impl_pdIPNS_9unit_test14runtime_config13stream_holder16callback_cleanerENS0_13sp_ms_deleterIS5_EEE7disposeEv
FN:182,185,_ZN5boost6detail18sp_counted_impl_pdIPNS_9unit_test14runtime_config13stream_holder16callback_cleanerENS0_13sp_ms_deleterIS5_EEE11get_deleterERKSt9type_info
FN:187,190,_ZN5boost6detail18sp_counted_impl_pdIPNS_9unit_test14runtime_config13stream_holder16callback_cleanerENS0_13sp_ms_deleterIS5_EEE17get_local_deleterERKSt9type_info
FN:192,195,_ZN5boost6detail18sp_counted_impl_pdIPNS_9unit_test14runtime_config13stream_holder16callback_cleanerENS0_13sp_ms_deleterIS5_EEE19get_untyped_deleterEv
FN:55,58,_ZN5boost6detail17get_local_deleterINS0_13sp_ms_deleterINS_9unit_test14runtime_config13stream_holder16callback_cleanerEEEEEPT_S9_
FN:77,82,_ZN5boost6detail17sp_counted_impl_pINS_16exception_detail15error_info_baseEEC2EPS3_
FN:77,82,_ZN5boost6detail17sp_counted_impl_pINS_23basic_wrap_stringstreamIcEEEC2EPS3_
FN:77,82,_ZN5boost6detail17sp_counted_impl_pINS_2io18ios_base_all_saverEEC2EPS3_
FN:77,82,_ZN5boost6detail17sp_counted_impl_pINS_7runtime14enum_parameterINS_9unit_test12report_levelELNS2_11args_amountE0EEEEC2EPS7_
FN:77,82,_ZN5boost6detail17sp_counted_impl_pINS_7runtime14enum_parameterINS_9unit_test13output_formatELNS2_11args_amountE0EEEEC2EPS7_
FN:77,82,_ZN5boost6detail17sp_counted_impl_pINS_7runtime14enum_parameterINS_9unit_test9log_levelELNS2_11args_amountE0EEEEC2EPS7_
FN:77,82,_ZN5boost6detail17sp_counted_impl_pINS_7runtime14typed_argumentINS_9unit_test12report_levelEEEEC2EPS6_
FN:77,82,_ZN5boost6detail17sp_counted_impl_pINS_7runtime14typed_argumentINS_9unit_test13output_formatEEEEC2EPS6_
FN:77,82,_ZN5boost6detail17sp_counted_impl_pINS_7runtime14typed_argumentINS_9unit_test9log_levelEEEEC2EPS6_
FN:77,82,_ZN5boost6detail17sp_counted_impl_pINS_7runtime14typed_argumentINSt7__cxx1112basic_stringIcSt11char_traitsIcESaIcEEEEEEC2EPSA_
FN:77,82,_ZN5boost6detail17sp_counted_impl_pINS_7runtime14typed_argumentISt6vectorINSt7__cxx1112basic_stringIcSt11char_traitsIcESaIcEEESaISA_EEEEEC2EPSD_
FN:77,82,_ZN5boost6detail17sp_counted_impl_pINS_7runtime14typed_argumentIbEEEC2EPS4_
FN:77,82,_ZN5boost6detail17sp_counted_impl_pINS_7runtime14typed_argumentIjEEEC2EPS4_
FN:77,82,_ZN5boost6detail17sp_counted_impl_pINS_7runtime14typed_argumentImEEEC2EPS4_
FN:77,82,_ZN5boost6detail17sp_counted_impl_pINS_7runtime3cla13rt_cla_detail14parameter_trieEEC2EPS5_
FN:77,82,_ZN5boost6detail17sp_counted_impl_pINS_7runtime3cla6parserEEC2EPS4_
FN:77,82,_ZN5boost6detail17sp_counted_impl_pINS_7runtime6optionEEC2EPS3_
FN:77,82,_ZN5boost6detail17sp_counted_impl_pINS_7runtime9parameterINS_9unit_test12report_levelELNS2_11args_amountE0ELb1EEEEC2EPS7_
FN:77,82,_ZN5boost6detail17sp_counted_impl_pINS_7runtime9parameterINS_9unit_test13output_formatELNS2_11args_amountE0ELb1EEEEC2EPS7_
FN:77,82,_ZN5boost6detail17sp_counted_impl_pINS_7runtime9parameterINS_9unit_test9log_levelELNS2_11args_amountE0ELb1EEEEC2EPS7_
FN:77,82,_ZN5boost6detail17sp_counted_impl_pINS_7runtime9parameterINSt7__cxx1112basic_stringIcSt11char_traitsIcESaIcEEELNS2_11args_amountE0ELb0EEEEC2EPSB_
FN:77,82,_ZN5boost6detail17sp_counted_impl_pINS_7runtime9parameterINSt7__cxx1112basic_stringIcSt11char_traitsIcESaIcEEELNS2_11args_amountE2ELb0EEEEC2EPSB_
FN:77,82,_ZN5boost6detail17sp_counted_impl_pINS_7runtime9parameterIjLNS2_11args_amountE0ELb0EEEEC2EPS5_
FN:77,82,_ZN5boost6detail17sp_counted_impl_pINS_7runtime9parameterImLNS2_11args_amountE0ELb0EEEEC2EPS5_
FN:77,82,_ZN5boost6detail17sp_counted_impl_pINS_9unit_test23unit_test_log_formatterEEC2EPS3_
FN:77,82,_ZN5boost6detail17sp_counted_impl_pINS_9unit_test9decorator10depends_onEEC2EPS4_
FN:77,82,_ZN5boost6detail17sp_counted_impl_pINS_9unit_test9decorator11descriptionEEC2EPS4_
FN:77,82,_ZN5boost6detail17sp_counted_impl_pINS_9unit_test9decorator12preconditionEEC2EPS4_
FN:77,82,_ZN5boost6detail17sp_counted_impl_pINS_9unit_test9decorator15stack_decoratorEEC2EPS4_
FN:77,82,_ZN5boost6detail17sp_counted_impl_pINS_9unit_test9decorator17expected_failuresEEC2EPS4_
FN:77,82,_ZN5boost6detail17sp_counted_impl_pINS_9unit_test9decorator5labelEEC2EPS4_
FN:77,82,_ZN5boost6detail17sp_counted_impl_pINS_9unit_test9decorator7timeoutEEC2EPS4_
FN:77,82,_ZN5boost6detail17sp_counted_impl_pINS_9unit_test9decorator9fixture_tEEC2EPS4_
FN:77,82,_ZN5boost6detail17sp_counted_impl_pINS_9unit_test9framework4impl21global_fixture_handleEEC2EPS5_
FN:84,90,_ZN5boost6detail17sp_counted_impl_pINS_16exception_detail15error_info_baseEE7disposeEv
FN:84,90,_ZN5boost6detail17sp_counted_impl_pINS_23basic_wrap_stringstreamIcEEE7disposeEv
FN:84,90,_ZN5boost6detail17sp_counted_impl_pINS_2io18ios_base_all_saverEE7disposeEv
FN:84,90,_ZN5boost6detail17sp_counted_impl_pINS_7runtime14enum_parameterINS_9unit_test12report_levelELNS2_11args_amountE0EEEE7disposeEv
FN:84,90,_ZN5boost6detail17sp_counted_impl_pINS_7runtime14enum_parameterINS_9unit_test13output_formatELNS2_11args_amountE0EEEE7disposeEv
FN:84,90,_ZN5boost6detail17sp_counted_impl_pINS_7runtime14enum_parameterINS_9unit_test9log_levelELNS2_11args_amountE0EEEE7disposeEv
FN:84,90,_ZN5boost6detail17sp_counted_impl_pINS_7runtime14typed_argumentINS_9unit_test12report_levelEEEE7disposeEv
FN:84,90,_ZN5boost6detail17sp_counted_impl_pINS_7runtime14typed_argumentINS_9unit_test13output_formatEEEE7disposeEv
FN:84,90,_ZN5boost6detail17sp_counted_impl_pINS_7runtime14typed_argumentINS_9unit_test9log_levelEEEE7disposeEv
FN:84,90,_ZN5boost6detail17sp_counted_impl_pINS_7runtime14typed_argumentINSt7__cxx1112basic_stringIcSt11char_traitsIcESaIcEEEEEE7disposeEv
FN:84,90,_ZN5boost6detail17sp_counted_impl_pINS_7runtime14typed_argumentISt6vectorINSt7__cxx1112basic_stringIcSt11char_traitsIcESaIcEEESaISA_EEEEE7disposeEv
FN:84,90,_ZN5boost6detail17sp_counted_impl_pINS_7runtime14typed_argumentIbEEE7disposeEv
FN:84,90,_ZN5boost6detail17sp_counted_impl_pINS_7runtime14typed_argumentIjEEE7disposeEv
FN:84,90,_ZN5boost6detail17sp_counted_impl_pINS_7runtime14typed_argumentImEEE7disposeEv
FN:84,90,_ZN5boost6detail17sp_counted_impl_pINS_7runtime3cla13rt_cla_detail14parameter_trieEE7disposeEv
FN:84,90,_ZN5boost6detail17sp_counted_impl_pINS_7runtime3cla6parserEE7disposeEv
FN:84,90,_ZN5boost6detail17sp_counted_impl_pINS_7runtime6optionEE7disposeEv
FN:84,90,_ZN5boost6detail17sp_counted_impl_pINS_7runtime9parameterINS_9unit_test12report_levelELNS2_11args_amountE0ELb1EEEE7disposeEv
FN:84,90,_ZN5boost6detail17sp_counted_impl_pINS_7runtime9parameterINS_9unit_test13output_formatELNS2_11args_amountE0ELb1EEEE7disposeEv
FN:84,90,_ZN5boost6detail17sp_counted_impl_pINS_7runtime9parameterINS_9unit_test9log_levelELNS2_11args_amountE0ELb1EEEE7disposeEv
FN:84,90,_ZN5boost6detail17sp_counted_impl_pINS_7runtime9parameterINSt7__cxx1112basic_stringIcSt11char_traitsIcESaIcEEELNS2_11args_amountE0ELb0EEEE7disposeEv
FN:84,90,_ZN5boost6detail17sp_counted_impl_pINS_7runtime9parameterINSt7__cxx1112basic_stringIcSt11char_traitsIcESaIcEEELNS2_11args_amountE2ELb0EEEE7disposeEv
FN:84,90,_ZN5boost6detail17sp_counted_impl_pINS_7runtime9parameterIjLNS2_11args_amountE0ELb0EEEE7disposeEv
FN:84,90,_ZN5boost6detail17sp_counted_impl_pINS_7runtime9parameterImLNS2_11args_amountE0ELb0EEEE7disposeEv
FN:84,90,_ZN5boost6detail17sp_counted_impl_pINS_9unit_test23unit_test_log_formatterEE7disposeEv
FN:84,90,_ZN5boost6detail17sp_counted_impl_pINS_9unit_test9decorator10depends_onEE7disposeEv
FN:84,90,_ZN5boost6detail17sp_counted_impl_pINS_9unit_test9decorator11descriptionEE7disposeEv
FN:84,90,_ZN5boost6detail17sp_counted_impl_pINS_9unit_test9decorator12preconditionEE7disposeEv
FN:84,90,_ZN5boost6detail17sp_counted_impl_pINS_9unit_test9decorator15stack_decoratorEE7disposeEv
FN:84,90,_ZN5boost6detail17sp_counted_impl_pINS_9unit_test9decorator17expected_failuresEE7disposeEv
FN:84,90,_ZN5boost6detail17sp_counted_impl_pINS_9unit_test9decorator5labelEE7disposeEv
FN:84,90,_ZN5boost6detail17sp_counted_impl_pINS_9unit_test9decorator7timeoutEE7disposeEv
FN:84,90,_ZN5boost6detail17sp_counted_impl_pINS_9unit_test9decorator9fixture_tEE7disposeEv
FN:84,90,_ZN5boost6detail17sp_counted_impl_pINS_9unit_test9framework4impl21global_fixture_handleEE7disposeEv
FN:92,95,_ZN5boost6detail17sp_counted_impl_pINS_16exception_detail15error_info_baseEE11get_deleterERKSt9type_info
FN:92,95,_ZN5boost6detail17sp_counted_impl_pINS_23basic_wrap_stringstreamIcEEE11get_deleterERKSt9type_info
FN:92,95,_ZN5boost6detail17sp_counted_impl_pINS_2io18ios_base_all_saverEE11get_deleterERKSt9type_info
FN:92,95,_ZN5boost6detail17sp_counted_impl_pINS_7runtime14enum_parameterINS_9unit_test12report_levelELNS2_11args_amountE0EEEE11get_deleterERKSt9type_info
FN:92,95,_ZN5boost6detail17sp_counted_impl_pINS_7runtime14enum_parameterINS_9unit_test13output_formatELNS2_11args_amountE0EEEE11get_deleterERKSt9type_info
FN:92,95,_ZN5boost6detail17sp_counted_impl_pINS_7runtime14enum_parameterINS_9unit_test9log_levelELNS2_11args_amountE0EEEE11get_deleterERKSt9type_info
FN:92,95,_ZN5boost6detail17sp_counted_impl_pINS_7runtime14typed_argumentINS_9unit_test12report_levelEEEE11get_deleterERKSt9type_info
FN:92,95,_ZN5boost6detail17sp_counted_impl_pINS_7runtime14typed_argumentINS_9unit_test13output_formatEEEE11get_deleterERKSt9type_info
FN:92,95,_ZN5boost6detail17sp_counted_impl_pINS_7runtime14typed_argumentINS_9unit_test9log_levelEEEE11get_deleterERKSt9type_info
FN:92,95,_ZN5boost6detail17sp_counted_impl_pINS_7runtime14typed_argumentINSt7__cxx1112basic_stringIcSt11char_traitsIcESaIcEEEEEE11get_deleterERKSt9type_info
FN:92,95,_ZN5boost6detail17sp_counted_impl_pINS_7runtime14typed_argumentISt6vectorINSt7__cxx1112basic_stringIcSt11char_traitsIcESaIcEEESaISA_EEEEE11get_deleterERKSt9type_info
FN:92,95,_ZN5boost6detail17sp_counted_impl_pINS_7runtime14typed_argumentIbEEE11get_deleterERKSt9type_info
FN:92,95,_ZN5boost6detail17sp_counted_impl_pINS_7runtime14typed_argumentIjEEE11get_deleterERKSt9type_info
FN:92,95,_ZN5boost6detail17sp_counted_impl_pINS_7runtime14typed_argumentImEEE11get_deleterERKSt9type_info
FN:92,95,_ZN5boost6detail17sp_counted_impl_pINS_7runtime3cla13rt_cla_detail14parameter_trieEE11get_deleterERKSt9type_info
FN:92,95,_ZN5boost6detail17sp_counted_impl_pINS_7runtime3cla6parserEE11get_deleterERKSt9type_info
FN:92,95,_ZN5boost6detail17sp_counted_impl_pINS_7runtime6optionEE11get_deleterERKSt9type_info
FN:92,95,_ZN5boost6detail17sp_counted_impl_pINS_7runtime9parameterINS_9unit_test12report_levelELNS2_11args_amountE0ELb1EEEE11get_deleterERKSt9type_info
FN:92,95,_ZN5boost6detail17sp_counted_impl_pINS_7runtime9parameterINS_9unit_test13output_formatELNS2_11args_amountE0ELb1EEEE11get_deleterERKSt9type_info
FN:92,95,_ZN5boost6detail17sp_counted_impl_pINS_7runtime9parameterINS_9unit_test9log_levelELNS2_11args_amountE0ELb1EEEE11get_deleterERKSt9type_info
FN:92,95,_ZN5boost6detail17sp_counted_impl_pINS_7runtime9parameterINSt7__cxx1112basic_stringIcSt11char_traitsIcESaIcEEELNS2_11args_amountE0ELb0EEEE11get_deleterERKSt9type_info
FN:92,95,_ZN5boost6detail17sp_counted_impl_pINS_7runtime9parameterINSt7__cxx1112basic_stringIcSt11char_traitsIcESaIcEEELNS2_11args_amountE2ELb0EEEE11get_deleterERKSt9type_info
FN:92,95,_ZN5boost6detail17sp_counted_impl_pINS_7runtime9parameterIjLNS2_11args_amountE0ELb0EEEE11get_deleterERKSt9type_info
FN:92,95,_ZN5boost6detail17sp_counted_impl_pINS_7runtime9parameterImLNS2_11args_amountE0ELb0EEEE11get_deleterERKSt9type_info
FN:92,95,_ZN5boost6detail17sp_counted_impl_pINS_9unit_test23unit_test_log_formatterEE11get_deleterERKSt9type_info
FN:92,95,_ZN5boost6detail17sp_counted_impl_pINS_9unit_test9decorator10depends_onEE11get_deleterERKSt9type_info
FN:92,95,_ZN5boost6detail17sp_counted_impl_pINS_9unit_test9decorator11descriptionEE11get_deleterERKSt9type_info
FN:92,95,_ZN5boost6detail17sp_counted_impl_pINS_9unit_test9decorator12preconditionEE11get_deleterERKSt9type_info
FN:92,95,_ZN5boost6detail17sp_counted_impl_pINS_9unit_test9decorator15stack_decoratorEE11get_deleterERKSt9type_info
FN:92,95,_ZN5boost6detail17sp_counted_impl_pINS_9unit_test9decorator17expected_failuresEE11get_deleterERKSt9type_info
FN:92,95,_ZN5boost6detail17sp_counted_impl_pINS_9unit_test9decorator5labelEE11get_deleterERKSt9type_info
FN:92,95,_ZN5boost6detail17sp_counted_impl_pINS_9unit_test9decorator7timeoutEE11get_deleterERKSt9type_info
FN:92,95,_ZN5boost6detail17sp_counted_impl_pINS_9unit_test9decorator9fixture_tEE11get_deleterERKSt9type_info
FN:92,95,_ZN5boost6detail17sp_counted_impl_pINS_9unit_test9framework4impl21global_fixture_handleEE11get_deleterERKSt9type_info
FN:97,100,_ZN5boost6detail17sp_counted_impl_pINS_16exception_detail15error_info_baseEE17get_local_deleterERKSt9type_info
FN:97,100,_ZN5boost6detail17sp_counted_impl_pINS_23basic_wrap_stringstreamIcEEE17get_local_deleterERKSt9type_info
FN:97,100,_ZN5boost6detail17sp_counted_impl_pINS_2io18ios_base_all_saverEE17get_local_deleterERKSt9type_info
FN:97,100,_ZN5boost6detail17sp_counted_impl_pINS_7runtime14enum_parameterINS_9unit_test12report_levelELNS2_11args_amountE0EEEE17get_local_deleterERKSt9type_info
FN:97,100,_ZN5boost6detail17sp_counted_impl_pINS_7runtime14enum_parameterINS_9unit_test13output_formatELNS2_11args_amountE0EEEE17get_local_deleterERKSt9type_info
FN:97,100,_ZN5boost6detail17sp_counted_impl_pINS_7runtime14enum_parameterINS_9unit_test9log_levelELNS2_11args_amountE0EEEE17get_local_deleterERKSt9type_info
FN:97,100,_ZN5boost6detail17sp_counted_impl_pINS_7runtime14typed_argumentINS_9unit_test12report_levelEEEE17get_local_deleterERKSt9type_info
FN:97,100,_ZN5boost6detail17sp_counted_impl_pINS_7runtime14typed_argumentINS_9unit_test13output_formatEEEE17get_local_deleterERKSt9type_info
FN:97,100,_ZN5boost6detail17sp_counted_impl_pINS_7runtime14typed_argumentINS_9unit_test9log_levelEEEE17get_local_deleterERKSt9type_info
FN:97,100,_ZN5boost6detail17sp_counted_impl_pINS_7runtime14typed_argumentINSt7__cxx1112basic_stringIcSt11char_traitsIcESaIcEEEEEE17get_local_deleterERKSt9type_info
FN:97,100,_ZN5boost6detail17sp_counted_impl_pINS_7runtime14typed_argumentISt6vectorINSt7__cxx1112basic_stringIcSt11char_traitsIcESaIcEEESaISA_EEEEE17get_local_deleterERKSt9type_info
FN:97,100,_ZN5boost6detail17sp_counted_impl_pINS_7runtime14typed_argumentIbEEE17get_local_deleterERKSt9type_info
FN:97,100,_ZN5boost6detail17sp_counted_impl_pINS_7runtime14typed_argumentIjEEE17get_local_deleterERKSt9type_info
FN:97,100,_ZN5boost6detail17sp_counted_impl_pINS_7runtime14typed_argumentImEEE17get_local_deleterERKSt9type_info
FN:97,100,_ZN5boost6detail17sp_counted_impl_pINS_7runtime3cla13rt_cla_detail14parameter_trieEE17get_local_deleterERKSt9type_info
FN:97,100,_ZN5boost6detail17sp_counted_impl_pINS_7runtime3cla6parserEE17get_local_deleterERKSt9type_info
FN:97,100,_ZN5boost6detail17sp_counted_impl_pINS_7runtime6optionEE17get_local_deleterERKSt9type_info
FN:97,100,_ZN5boost6detail17sp_counted_impl_pINS_7runtime9parameterINS_9unit_test12report_levelELNS2_11args_amountE0ELb1EEEE17get_local_deleterERKSt9type_info
FN:97,100,_ZN5boost6detail17sp_counted_impl_pINS_7runtime9parameterINS_9unit_test13output_formatELNS2_11args_amountE0ELb1EEEE17get_local_deleterERKSt9type_info
FN:97,100,_ZN5boost6detail17sp_counted_impl_pINS_7runtime9parameterINS_9unit_test9log_levelELNS2_11args_amountE0ELb1EEEE17get_local_deleterERKSt9type_info
FN:97,100,_ZN5boost6detail17sp_counted_impl_pINS_7runtime9parameterINSt7__cxx1112basic_stringIcSt11char_traitsIcESaIcEEELNS2_11args_amountE0ELb0EEEE17get_local_deleterERKSt9type_info
FN:97,100,_ZN5boost6detail17sp_counted_impl_pINS_7runtime9parameterINSt7__cxx1112basic_stringIcSt11char_traitsIcESaIcEEELNS2_11args_amountE2ELb0EEEE17get_local_deleterERKSt9type_info
FN:97,100,_ZN5boost6detail17sp_counted_impl_pINS_7runtime9parameterIjLNS2_11args_amountE0ELb0EEEE17get_local_deleterERKSt9type_info
FN:97,100,_ZN5boost6detail17sp_counted_impl_pINS_7runtime9parameterImLNS2_11args_amountE0ELb0EEEE17get_local_deleterERKSt9type_info
FN:97,100,_ZN5boost6detail17sp_counted_impl_pINS_9unit_test23unit_test_log_formatterEE17get_local_deleterERKSt9type_info
FN:97,100,_ZN5boost6detail17sp_counted_impl_pINS_9unit_test9decorator10depends_onEE17get_local_deleterERKSt9type_info
FN:97,100,_ZN5boost6detail17sp_counted_impl_pINS_9unit_test9decorator11descriptionEE17get_local_deleterERKSt9type_info
FN:97,100,_ZN5boost6detail17sp_counted_impl_pINS_9unit_test9decorator12preconditionEE17get_local_deleterERKSt9type_info
FN:97,100,_ZN5boost6detail17sp_counted_impl_pINS_9unit_test9decorator15stack_decoratorEE17get_local_deleterERKSt9type_info
FN:97,100,_ZN5boost6detail17sp_counted_impl_pINS_9unit_test9decorator17expected_failuresEE17get_local_deleterERKSt9type_info
FN:97,100,_ZN5boost6detail17sp_counted_impl_pINS_9unit_test9decorator5labelEE17get_local_deleterERKSt9type_info
FN:97,100,_ZN5boost6detail17sp_counted_impl_pINS_9unit_test9decorator7timeoutEE17get_local_deleterERKSt9type_info
FN:97,100,_ZN5boost6detail17sp_counted_impl_pINS_9unit_test9decorator9fixture_tEE17get_local_deleterERKSt9type_info
FN:97,100,_ZN5boost6detail17sp_counted_impl_pINS_9unit_test9framework4impl21global_fixture_handleEE17get_local_deleterERKSt9type_info
FNDA:0,_ZN5boost6detail17sp_counted_impl_pINS_16exception_detail15error_info_baseEE19get_untyped_deleterEv
FNDA:0,_ZN5boost6detail17sp_counted_impl_pINS_23basic_wrap_stringstreamIcEEE19get_untyped_deleterEv
FNDA:0,_ZN5boost6detail17sp_counted_impl_pINS_2io18ios_base_all_saverEE19get_untyped_deleterEv
FNDA:0,_ZN5boost6detail17sp_counted_impl_pINS_7runtime14enum_parameterINS_9unit_test12report_levelELNS2_11args_amountE0EEEE19get_untyped_deleterEv
FNDA:0,_ZN5boost6detail17sp_counted_impl_pINS_7runtime14enum_parameterINS_9unit_test13output_formatELNS2_11args_amountE0EEEE19get_untyped_deleterEv
FNDA:0,_ZN5boost6detail17sp_counted_impl_pINS_7runtime14enum_parameterINS_9unit_test9log_levelELNS2_11args_amountE0EEEE19get_untyped_deleterEv
FNDA:0,_ZN5boost6detail17sp_counted_impl_pINS_7runtime14typed_argumentINS_9unit_test12report_levelEEEE19get_untyped_deleterEv
FNDA:0,_ZN5boost6detail17sp_counted_impl_pINS_7runtime14typed_argumentINS_9unit_test13output_formatEEEE19get_untyped_deleterEv
FNDA:0,_ZN5boost6detail17sp_counted_impl_pINS_7runtime14typed_argumentINS_9unit_test9log_levelEEEE19get_untyped_deleterEv
FNDA:0,_ZN5boost6detail17sp_counted_impl_pINS_7runtime14typed_argumentINSt7__cxx1112basic_stringIcSt11char_traitsIcESaIcEEEEEE19get_untyped_deleterEv
FNDA:0,_ZN5boost6detail17sp_counted_impl_pINS_7runtime14typed_argumentISt6vectorINSt7__cxx1112basic_stringIcSt11char_traitsIcESaIcEEESaISA_EEEEE19get_untyped_deleterEv
FNDA:0,_ZN5boost6detail17sp_counted_impl_pINS_7runtime14typed_argumentIbEEE19get_untyped_deleterEv
FNDA:0,_ZN5boost6detail17sp_counted_impl_pINS_7runtime14typed_argumentIjEEE19get_untyped_deleterEv
FNDA:0,_ZN5boost6detail17sp_counted_impl_pINS_7runtime14typed_argumentImEEE19get_untyped_deleterEv
FNDA:0,_ZN5boost6detail17sp_counted_impl_pINS_7runtime3cla13rt_cla_detail14parameter_trieEE19get_untyped_deleterEv
FNDA:0,_ZN5boost6detail17sp_counted_impl_pINS_7runtime3cla6parserEE19get_untyped_deleterEv
FNDA:0,_ZN5boost6detail17sp_counted_impl_pINS_7runtime6optionEE19get_untyped_deleterEv
FNDA:0,_ZN5boost6detail17sp_counted_impl_pINS_7runtime9parameterINS_9unit_test12report_levelELNS2_11args_amountE0ELb1EEEE19get_untyped_deleterEv
FNDA:0,_ZN5boost6detail17sp_counted_impl_pINS_7runtime9parameterINS_9unit_test13output_formatELNS2_11args_amountE0ELb1EEEE19get_untyped_deleterEv
FNDA:0,_ZN5boost6detail17sp_counted_impl_pINS_7runtime9parameterINS_9unit_test9log_levelELNS2_11args_amountE0ELb1EEEE19get_untyped_deleterEv
FNDA:0,_ZN5boost6detail17sp_counted_impl_pINS_7runtime9parameterINSt7__cxx1112basic_stringIcSt11char_traitsIcESaIcEEELNS2_11args_amountE0ELb0EEEE19get_untyped_deleterEv
FNDA:0,_ZN5boost6detail17sp_counted_impl_pINS_7runtime9parameterINSt7__cxx1112basic_stringIcSt11char_traitsIcESaIcEEELNS2_11args_amountE2ELb0EEEE19get_untyped_deleterEv
FNDA:0,_ZN5boost6detail17sp_counted_impl_pINS_7runtime9parameterIjLNS2_11args_amountE0ELb0EEEE19get_untyped_deleterEv
FNDA:0,_ZN5boost6detail17sp_counted_impl_pINS_7runtime9parameterImLNS2_11args_amountE0ELb0EEEE19get_untyped_deleterEv
FNDA:0,_ZN5boost6detail17sp_counted_impl_pINS_9unit_test23unit_test_log_formatterEE19get_untyped_deleterEv
FNDA:0,_ZN5boost6detail17sp_counted_impl_pINS_9unit_test9decorator10depends_onEE19get_untyped_deleterEv
FNDA:0,_ZN5boost6detail17sp_counted_impl_pINS_9unit_test9decorator11descriptionEE19get_untyped_deleterEv
FNDA:0,_ZN5boost6detail17sp_counted_impl_pINS_9unit_test9decorator12preconditionEE19get_untyped_deleterEv
FNDA:0,_ZN5boost6detail17sp_counted_impl_pINS_9unit_test9decorator15stack_decoratorEE19get_untyped_deleterEv
FNDA:0,_ZN5boost6detail17sp_counted_impl_pINS_9unit_test9decorator17expected_failuresEE19get_untyped_deleterEv
FNDA:0,_ZN5boost6detail17sp_counted_impl_pINS_9unit_test9decorator5labelEE19get_untyped_deleterEv
FNDA:0,_ZN5boost6detail17sp_counted_impl_pINS_9unit_test9decorator7timeoutEE19get_untyped_deleterEv
FNDA:0,_ZN5boost6detail17sp_counted_impl_pINS_9unit_test9decorator9fixture_tEE19get_untyped_deleterEv
FNDA:0,_ZN5boost6detail17sp_counted_impl_pINS_9unit_test9framework4impl21global_fixture_handleEE19get_untyped_deleterEv
FNDA:0,_ZN5boost6detail18sp_counted_impl_pdIPNS_9unit_test14runtime_config13stream_holder16callback_cleanerENS0_13sp_ms_deleterIS5_EEEC2ES6_
FNDA:0,_ZN5boost6detail18sp_counted_impl_pdIPNS_9unit_test14runtime_config13stream_holder16callback_cleanerENS0_13sp_ms_deleterIS5_EEE7disposeEv
FNDA:0,_ZN5boost6detail18sp_counted_impl_pdIPNS_9unit_test14runtime_config13stream_holder16callback_cleanerENS0_13sp_ms_deleterIS5_EEE11get_deleterERKSt9type_info
FNDA:0,_ZN5boost6detail18sp_counted_impl_pdIPNS_9unit_test14runtime_config13stream_holder16callback_cleanerENS0_13sp_ms_deleterIS5_EEE17get_local_deleterERKSt9type_info
FNDA:0,_ZN5boost6detail18sp_counted_impl_pdIPNS_9unit_test14runtime_config13stream_holder16callback_cleanerENS0_13sp_ms_deleterIS5_EEE19get_untyped_deleterEv
FNDA:0,_ZN5boost6detail17get_local_deleterINS0_13sp_ms_deleterINS_9unit_test14runtime_config13stream_holder16callback_cleanerEEEEEPT_S9_
FNDA:0,_ZN5boost6detail17sp_counted_impl_pINS_16exception_detail15error_info_baseEEC2EPS3_
FNDA:0,_ZN5boost6detail17sp_counted_impl_pINS_23basic_wrap_stringstreamIcEEEC2EPS3_
FNDA:6,_ZN5boost6detail17sp_counted_impl_pINS_2io18ios_base_all_saverEEC2EPS3_
FNDA:1,_ZN5boost6detail17sp_counted_impl_pINS_7runtime14enum_parameterINS_9unit_test12report_levelELNS2_11args_amountE0EEEEC2EPS7_
FNDA:4,_ZN5boost6detail17sp_counted_impl_pINS_7runtime14enum_parameterINS_9unit_test13output_formatELNS2_11args_amountE0EEEEC2EPS7_
FNDA:1,_ZN5boost6detail17sp_counted_impl_pINS_7runtime14enum_parameterINS_9unit_test9log_levelELNS2_11args_amountE0EEEEC2EPS7_
FNDA:1,_ZN5boost6detail17sp_counted_impl_pINS_7runtime14typed_argumentINS_9unit_test12report_levelEEEEC2EPS6_
FNDA:3,_ZN5boost6detail17sp_counted_impl_pINS_7runtime14typed_argumentINS_9unit_test13output_formatEEEEC2EPS6_
FNDA:1,_ZN5boost6detail17sp_counted_impl_pINS_7runtime14typed_argumentINS_9unit_test9log_levelEEEEC2EPS6_
FNDA:1,_ZN5boost6detail17sp_counted_impl_pINS_7runtime14typed_argumentINSt7__cxx1112basic_stringIcSt11char_traitsIcESaIcEEEEEEC2EPSA_
FNDA:2,_ZN5boost6detail17sp_counted_impl_pINS_7runtime14typed_argumentISt6vectorINSt7__cxx1112basic_stringIcSt11char_traitsIcESaIcEEESaISA_EEEEEC2EPSD_
FNDA:13,_ZN5boost6detail17sp_counted_impl_pINS_7runtime14typed_argumentIbEEEC2EPS4_
FNDA:1,_ZN5boost6detail17sp_counted_impl_pINS_7runtime14typed_argumentIjEEEC2EPS4_
FNDA:1,_ZN5boost6detail17sp_counted_impl_pINS_7runtime14typed_argumentImEEEC2EPS4_
FNDA:572,_ZN5boost6detail17sp_counted_impl_pINS_7runtime3cla13rt_cla_detail14parameter_trieEEC2EPS5_
FNDA:1,_ZN5boost6detail17sp_counted_impl_pINS_7runtime3cla6parserEEC2EPS4_
FNDA:13,_ZN5boost6detail17sp_counted_impl_pINS_7runtime6optionEEC2EPS3_
FNDA:0,_ZN5boost6detail17sp_counted_impl_pINS_7runtime9parameterINS_9unit_test12report_levelELNS2_11args_amountE0ELb1EEEEC2EPS7_
FNDA:0,_ZN5boost6detail17sp_counted_impl_pINS_7runtime9parameterINS_9unit_test13output_formatELNS2_11args_amountE0ELb1EEEEC2EPS7_
FNDA:0,_ZN5boost6detail17sp_counted_impl_pINS_7runtime9parameterINS_9unit_test9log_levelELNS2_11args_amountE0ELb1EEEEC2EPS7_
FNDA:5,_ZN5boost6detail17sp_counted_impl_pINS_7runtime9parameterINSt7__cxx1112basic_stringIcSt11char_traitsIcESaIcEEELNS2_11args_amountE0ELb0EEEEC2EPSB_
FNDA:2,_ZN5boost6detail17sp_counted_impl_pINS_7runtime9parameterINSt7__cxx1112basic_stringIcSt11char_traitsIcESaIcEEELNS2_11args_amountE2ELb0EEEEC2EPSB_
FNDA:1,_ZN5boost6detail17sp_counted_impl_pINS_7runtime9parameterIjLNS2_11args_amountE0ELb0EEEEC2EPS5_
FNDA:1,_ZN5boost6detail17sp_counted_impl_pINS_7runtime9parameterImLNS2_11args_amountE0ELb0EEEEC2EPS5_
FNDA:3,_ZN5boost6detail17sp_counted_impl_pINS_9unit_test23unit_test_log_formatterEEC2EPS3_
FNDA:0,_ZN5boost6detail17sp_counted_impl_pINS_9unit_test9decorator10depends_onEEC2EPS4_
FNDA:0,_ZN5boost6detail17sp_counted_impl_pINS_9unit_test9decorator11descriptionEEC2EPS4_
FNDA:0,_ZN5boost6detail17sp_counted_impl_pINS_9unit_test9decorator12preconditionEEC2EPS4_
FNDA:0,_ZN5boost6detail17sp_counted_impl_pINS_9unit_test9decorator15stack_decoratorEEC2EPS4_
FNDA:0,_ZN5boost6detail17sp_counted_impl_pINS_9unit_test9decorator17expected_failuresEEC2EPS4_
FNDA:0,_ZN5boost6detail17sp_counted_impl_pINS_9unit_test9decorator5labelEEC2EPS4_
FNDA:0,_ZN5boost6detail17sp_counted_impl_pINS_9unit_test9decorator7timeoutEEC2EPS4_
FNDA:0,_ZN5boost6detail17sp_counted_impl_pINS_9unit_test9decorator9fixture_tEEC2EPS4_
FNDA:0,_ZN5boost6detail17sp_counted_impl_pINS_9unit_test9framework4impl21global_fixture_handleEEC2EPS5_
FNDA:0,_ZN5boost6detail17sp_counted_impl_pINS_16exception_detail15error_info_baseEE7disposeEv
FNDA:0,_ZN5boost6detail17sp_counted_impl_pINS_23basic_wrap_stringstreamIcEEE7disposeEv
FNDA:6,_ZN5boost6detail17sp_counted_impl_pINS_2io18ios_base_all_saverEE7disposeEv
FNDA:1,_ZN5boost6detail17sp_counted_impl_pINS_7runtime14enum_parameterINS_9unit_test12report_levelELNS2_11args_amountE0EEEE7disposeEv
FNDA:4,_ZN5boost6detail17sp_counted_impl_pINS_7runtime14enum_parameterINS_9unit_test13output_formatELNS2_11args_amountE0EEEE7disposeEv
FNDA:1,_ZN5boost6detail17sp_counted_impl_pINS_7runtime14enum_parameterINS_9unit_test9log_levelELNS2_11args_amountE0EEEE7disposeEv
FNDA:1,_ZN5boost6detail17sp_counted_impl_pINS_7runtime14typed_argumentINS_9unit_test12report_levelEEEE7disposeEv
FNDA:3,_ZN5boost6detail17sp_counted_impl_pINS_7runtime14typed_argumentINS_9unit_test13output_formatEEEE7disposeEv
FNDA:1,_ZN5boost6detail17sp_counted_impl_pINS_7runtime14typed_argumentINS_9unit_test9log_levelEEEE7disposeEv
FNDA:1,_ZN5boost6detail17sp_counted_impl_pINS_7runtime14typed_argumentINSt7__cxx1112basic_stringIcSt11char_traitsIcESaIcEEEEEE7disposeEv
FNDA:2,_ZN5boost6detail17sp_counted_impl_pINS_7runtime14typed_argumentISt6vectorINSt7__cxx1112basic_stringIcSt11char_traitsIcESaIcEEESaISA_EEEEE7disposeEv
FNDA:13,_ZN5boost6detail17sp_counted_impl_pINS_7runtime14typed_argumentIbEEE7disposeEv
FNDA:1,_ZN5boost6detail17sp_counted_impl_pINS_7runtime14typed_argumentIjEEE7disposeEv
FNDA:1,_ZN5boost6detail17sp_counted_impl_pINS_7runtime14typed_argumentImEEE7disposeEv
FNDA:572,_ZN5boost6detail17sp_counted_impl_pINS_7runtime3cla13rt_cla_detail14parameter_trieEE7disposeEv
FNDA:1,_ZN5boost6detail17sp_counted_impl_pINS_7runtime3cla6parserEE7disposeEv
FNDA:13,_ZN5boost6detail17sp_counted_impl_pINS_7runtime6optionEE7disposeEv
FNDA:0,_ZN5boost6detail17sp_counted_impl_pINS_7runtime9parameterINS_9unit_test12report_levelELNS2_11args_amountE0ELb1EEEE7disposeEv
FNDA:0,_ZN5boost6detail17sp_counted_impl_pINS_7runtime9parameterINS_9unit_test13output_formatELNS2_11args_amountE0ELb1EEEE7disposeEv
FNDA:0,_ZN5boost6detail17sp_counted_impl_pINS_7runtime9parameterINS_9unit_test9log_levelELNS2_11args_amountE0ELb1EEEE7disposeEv
FNDA:5,_ZN5boost6detail17sp_counted_impl_pINS_7runtime9parameterINSt7__cxx1112basic_stringIcSt11char_traitsIcESaIcEEELNS2_11args_amountE0ELb0EEEE7disposeEv
FNDA:2,_ZN5boost6detail17sp_counted_impl_pINS_7runtime9parameterINSt7__cxx1112basic_stringIcSt11char_traitsIcESaIcEEELNS2_11args_amountE2ELb0EEEE7disposeEv
FNDA:1,_ZN5boost6detail17sp_counted_impl_pINS_7runtime9parameterIjLNS2_11args_amountE0ELb0EEEE7disposeEv
FNDA:1,_ZN5boost6detail17sp_counted_impl_pINS_7runtime9parameterImLNS2_11args_amountE0ELb0EEEE7disposeEv
FNDA:3,_ZN5boost6detail17sp_counted_impl_pINS_9unit_test23unit_test_log_formatterEE7disposeEv
FNDA:0,_ZN5boost6detail17sp_counted_impl_pINS_9unit_test9decorator10depends_onEE7disposeEv
FNDA:0,_ZN5boost6detail17sp_counted_impl_pINS_9unit_test9decorator11descriptionEE7disposeEv
FNDA:0,_ZN5boost6detail17sp_counted_impl_pINS_9unit_test9decorator12preconditionEE7disposeEv
FNDA:0,_ZN5boost6detail17sp_counted_impl_pINS_9unit_test9decorator15stack_decoratorEE7disposeEv
FNDA:0,_ZN5boost6detail17sp_counted_impl_pINS_9unit_test9decorator17expected_failuresEE7disposeEv
FNDA:0,_ZN5boost6detail17sp_counted_impl_pINS_9unit_test9decorator5labelEE7disposeEv
FNDA:0,_ZN5boost6detail17sp_counted_impl_pINS_9unit_test9decorator7timeoutEE7disposeEv
FNDA:0,_ZN5boost6detail17sp_counted_impl_pINS_9unit_test9decorator9fixture_tEE7disposeEv
FNDA:0,_ZN5boost6detail17sp_counted_impl_pINS_9unit_test9framework4impl21global_fixture_handleEE7disposeEv
FNDA:0,_ZN5boost6detail17sp_counted_impl_pINS_16exception_detail15error_info_baseEE11get_deleterERKSt9type_info
FNDA:0,_ZN5boost6detail17sp_counted_impl_pINS_23basic_wrap_stringstreamIcEEE11get_deleterERKSt9type_info
FNDA:0,_ZN5boost6detail17sp_counted_impl_pINS_2io18ios_base_all_saverEE11get_deleterERKSt9type_info
FNDA:0,_ZN5boost6detail17sp_counted_impl_pINS_7runtime14enum_parameterINS_9unit_test12report_levelELNS2_11args_amountE0EEEE11get_deleterERKSt9type_info
FNDA:0,_ZN5boost6detail17sp_counted_impl_pINS_7runtime14enum_parameterINS_9unit_test13output_formatELNS2_11args_amountE0EEEE11get_deleterERKSt9type_info
FNDA:0,_ZN5boost6detail17sp_counted_impl_pINS_7runtime14enum_parameterINS_9unit_test9log_levelELNS2_11args_amountE0EEEE11get_deleterERKSt9type_info
FNDA:0,_ZN5boost6detail17sp_counted_impl_pINS_7runtime14typed_argumentINS_9unit_test12report_levelEEEE11get_deleterERKSt9type_info
FNDA:0,_ZN5boost6detail17sp_counted_impl_pINS_7runtime14typed_argumentINS_9unit_test13output_formatEEEE11get_deleterERKSt9type_info
FNDA:0,_ZN5boost6detail17sp_counted_impl_pINS_7runtime14typed_argumentINS_9unit_test9log_levelEEEE11get_deleterERKSt9type_info
FNDA:0,_ZN5boost6detail17sp_counted_impl_pINS_7runtime14typed_argumentINSt7__cxx1112basic_stringIcSt11char_traitsIcESaIcEEEEEE11get_deleterERKSt9type_info
FNDA:0,_ZN5boost6detail17sp_counted_impl_pINS_7runtime14typed_argumentISt6vectorINSt7__cxx1112basic_stringIcSt11char_traitsIcESaIcEEESaISA_EEEEE11get_deleterERKSt9type_info
FNDA:0,_ZN5boost6detail17sp_counted_impl_pINS_7runtime14typed_argumentIbEEE11get_deleterERKSt9type_info
FNDA:0,_ZN5boost6detail17sp_counted_impl_pINS_7runtime14typed_argumentIjEEE11get_deleterERKSt9type_info
FNDA:0,_ZN5boost6detail17sp_counted_impl_pINS_7runtime14typed_argumentImEEE11get_deleterERKSt9type_info
FNDA:0,_ZN5boost6detail17sp_counted_impl_pINS_7runtime3cla13rt_cla_detail14parameter_trieEE11get_deleterERKSt9type_info
FNDA:0,_ZN5boost6detail17sp_counted_impl_pINS_7runtime3cla6parserEE11get_deleterERKSt9type_info
FNDA:0,_ZN5boost6detail17sp_counted_impl_pINS_7runtime6optionEE11get_deleterERKSt9type_info
FNDA:0,_ZN5boost6detail17sp_counted_impl_pINS_7runtime9parameterINS_9unit_test12report_levelELNS2_11args_amountE0ELb1EEEE11get_deleterERKSt9type_info
FNDA:0,_ZN5boost6detail17sp_counted_impl_pINS_7runtime9parameterINS_9unit_test13output_formatELNS2_11args_amountE0ELb1EEEE11get_deleterERKSt9type_info
FNDA:0,_ZN5boost6detail17sp_counted_impl_pINS_7runtime9parameterINS_9unit_test9log_levelELNS2_11args_amountE0ELb1EEEE11get_deleterERKSt9type_info
FNDA:0,_ZN5boost6detail17sp_counted_impl_pINS_7runtime9parameterINSt7__cxx1112basic_stringIcSt11char_traitsIcESaIcEEELNS2_11args_amountE0ELb0EEEE11get_deleterERKSt9type_info
FNDA:0,_ZN5boost6detail17sp_counted_impl_pINS_7runtime9parameterINSt7__cxx1112basic_stringIcSt11char_traitsIcESaIcEEELNS2_11args_amountE2ELb0EEEE11get_deleterERKSt9type_info
FNDA:0,_ZN5boost6detail17sp_counted_impl_pINS_7runtime9parameterIjLNS2_11args_amountE0ELb0EEEE11get_deleterERKSt9type_info
FNDA:0,_ZN5boost6detail17sp_counted_impl_pINS_7runtime9parameterImLNS2_11args_amountE0ELb0EEEE11get_deleterERKSt9type_info
FNDA:0,_ZN5boost6detail17sp_counted_impl_pINS_9unit_test23unit_test_log_formatterEE11get_deleterERKSt9type_info
FNDA:0,_ZN5boost6detail17sp_counted_impl_pINS_9unit_test9decorator10depends_onEE11get_deleterERKSt9type_info
FNDA:0,_ZN5boost6detail17sp_counted_impl_pINS_9unit_test9decorator11descriptionEE11get_deleterERKSt9type_info
FNDA:0,_ZN5boost6detail17sp_counted_impl_pINS_9unit_test9decorator12preconditionEE11get_deleterERKSt9type_info
FNDA:0,_ZN5boost6detail17sp_counted_impl_pINS_9unit_test9decorator15stack_decoratorEE11get_deleterERKSt9type_info
FNDA:0,_ZN5boost6detail17sp_counted_impl_pINS_9unit_test9decorator17expected_failuresEE11get_deleterERKSt9type_info
FNDA:0,_ZN5boost6detail17sp_counted_impl_pINS_9unit_test9decorator5labelEE11get_deleterERKSt9type_info
FNDA:0,_ZN5boost6detail17sp_counted_impl_pINS_9unit_test9decorator7timeoutEE11get_deleterERKSt9type_info
FNDA:0,_ZN5boost6detail17sp_counted_impl_pINS_9unit_test9decorator9fixture_tEE11get_deleterERKSt9type_info
FNDA:0,_ZN5boost6detail17sp_counted_impl_pINS_9unit_test9framework4impl21global_fixture_handleEE11get_deleterERKSt9type_info
FNDA:0,_ZN5boost6detail17sp_counted_impl_pINS_16exception_detail15error_info_baseEE17get_local_deleterERKSt9type_info
FNDA:0,_ZN5boost6detail17sp_counted_impl_pINS_23basic_wrap_stringstreamIcEEE17get_local_deleterERKSt9type_info
FNDA:0,_ZN5boost6detail17sp_counted_impl_pINS_2io18ios_base_all_saverEE17get_local_deleterERKSt9type_info
FNDA:0,_ZN5boost6detail17sp_counted_impl_pINS_7runtime14enum_parameterINS_9unit_test12report_levelELNS2_11args_amountE0EEEE17get_local_deleterERKSt9type_info
FNDA:0,_ZN5boost6detail17sp_counted_impl_pINS_7runtime14enum_parameterINS_9unit_test13output_formatELNS2_11args_amountE0EEEE17get_local_deleterERKSt9type_info
FNDA:0,_ZN5boost6detail17sp_counted_impl_pINS_7runtime14enum_parameterINS_9unit_test9log_levelELNS2_11args_amountE0EEEE17get_local_deleterERKSt9type_info
FNDA:0,_ZN5boost6detail17sp_counted_impl_pINS_7runtime14typed_argumentINS_9unit_test12report_levelEEEE17get_local_deleterERKSt9type_info
FNDA:0,_ZN5boost6detail17sp_counted_impl_pINS_7runtime14typed_argumentINS_9unit_test13output_formatEEEE17get_local_deleterERKSt9type_info
FNDA:0,_ZN5boost6detail17sp_counted_impl_pINS_7runtime14typed_argumentINS_9unit_test9log_levelEEEE17get_local_deleterERKSt9type_info
FNDA:0,_ZN5boost6detail17sp_counted_impl_pINS_7runtime14typed_argumentINSt7__cxx1112basic_stringIcSt11char_traitsIcESaIcEEEEEE17get_local_deleterERKSt9type_info
FNDA:0,_ZN5boost6detail17sp_counted_impl_pINS_7runtime14typed_argumentISt6vectorINSt7__cxx1112basic_stringIcSt11char_traitsIcESaIcEEESaISA_EEEEE17get_local_deleterERKSt9type_info
FNDA:0,_ZN5boost6detail17sp_counted_impl_pINS_7runtime14typed_argumentIbEEE17get_local_deleterERKSt9type_info
FNDA:0,_ZN5boost6detail17sp_counted_impl_pINS_7runtime14typed_argumentIjEEE17get_local_deleterERKSt9type_info
FNDA:0,_ZN5boost6detail17sp_counted_impl_pINS_7runtime14typed_argumentImEEE17get_local_deleterERKSt9type_info
FNDA:0,_ZN5boost6detail17sp_counted_impl_pINS_7runtime3cla13rt_cla_detail14parameter_trieEE17get_local_deleterERKSt9type_info
FNDA:0,_ZN5boost6detail17sp_counted_impl_pINS_7runtime3cla6parserEE17get_local_deleterERKSt9type_info
FNDA:0,_ZN5boost6detail17sp_counted_impl_pINS_7runtime6optionEE17get_local_deleterERKSt9type_info
FNDA:0,_ZN5boost6detail17sp_counted_impl_pINS_7runtime9parameterINS_9unit_test12report_levelELNS2_11args_amountE0ELb1EEEE17get_local_deleterERKSt9type_info
FNDA:0,_ZN5boost6detail17sp_counted_impl_pINS_7runtime9parameterINS_9unit_test13output_formatELNS2_11args_amountE0ELb1EEEE17get_local_deleterERKSt9type_info
FNDA:0,_ZN5boost6detail17sp_counted_impl_pINS_7runtime9parameterINS_9unit_test9log_levelELNS2_11args_amountE0ELb1EEEE17get_local_deleterERKSt9type_info
FNDA:0,_ZN5boost6detail17sp_counted_impl_pINS_7runtime9parameterINSt7__cxx1112basic_stringIcSt11char_traitsIcESaIcEEELNS2_11args_amountE0ELb0EEEE17get_local_deleterERKSt9type_info
FNDA:0,_ZN5boost6detail17sp_counted_impl_pINS_7runtime9parameterINSt7__cxx1112basic_stringIcSt11char_traitsIcESaIcEEELNS2_11args_amountE2ELb0EEEE17get_local_deleterERKSt9type_info
FNDA:0,_ZN5boost6detail17sp_counted_impl_pINS_7runtime9parameterIjLNS2_11args_amountE0ELb0EEEE17get_local_deleterERKSt9type_info
FNDA:0,_ZN5boost6detail17sp_counted_impl_pINS_7runtime9parameterImLNS2_11args_amountE0ELb0EEEE17get_local_deleterERKSt9type_info
FNDA:0,_ZN5boost6detail17sp_counted_impl_pINS_9unit_test23unit_test_log_formatterEE17get_local_deleterERKSt9type_info
FNDA:0,_ZN5boost6detail17sp_counted_impl_pINS_9unit_test9decorator10depends_onEE17get_local_deleterERKSt9type_info
FNDA:0,_ZN5boost6detail17sp_counted_impl_pINS_9unit_test9decorator11descriptionEE17get_local_deleterERKSt9type_info
FNDA:0,_ZN5boost6detail17sp_counted_impl_pINS_9unit_test9decorator12preconditionEE17get_local_deleterERKSt9type_info
FNDA:0,_ZN5boost6detail17sp_counted_impl_pINS_9unit_test9decorator15stack_decoratorEE17get_local_deleterERKSt9type_info
FNDA:0,_ZN5boost6detail17sp_counted_impl_pINS_9unit_test9decorator17expected_failuresEE17get_local_deleterERKSt9type_info
FNDA:0,_ZN5boost6detail17sp_counted_impl_pINS_9unit_test9decorator5labelEE17get_local_deleterERKSt9type_info
FNDA:0,_ZN5boost6detail17sp_counted_impl_pINS_9unit_test9decorator7timeoutEE17get_local_deleterERKSt9type_info
FNDA:0,_ZN5boost6detail17sp_counted_impl_pINS_9unit_test9decorator9fixture_tEE17get_local_deleterERKSt9type_info
FNDA:0,_ZN5boost6detail17sp_counted_impl_pINS_9unit_test9framework4impl21global_fixture_handleEE17get_local_deleterERKSt9type_info
FNF:176
FNH:40
DA:55,0
DA:57,0
DA:77,633
DA:82,633
DA:84,633
DA:89,633
DA:90,633
DA:92,0
DA:94,0
DA:97,0
DA:99,0
DA:102,0
DA:104,0
DA:173,0
DA:175,0
DA:177,0
DA:179,0
DA:180,0
DA:182,0
DA:184,0
DA:187,0
DA:189,0
DA:192,0
DA:194,0
LF:24
LH:5
end_of_record
TN:
SF:/usr/include/boost/smart_ptr/detail/sp_forward.hpp
FN:39,42,_ZN5boost6detail10sp_forwardIRKNS_8functionIFvvEEEEEOT_RS7_
FNDA:0,_ZN5boost6detail10sp_forwardIRKNS_8functionIFvvEEEEEOT_RS7_
FNF:1
FNH:0
DA:39,0
DA:41,0
LF:2
LH:0
end_of_record
TN:
SF:/usr/include/boost/smart_ptr/make_shared_object.hpp
FN:101,104,_ZN5boost6detail13sp_ms_deleterINS_9unit_test14runtime_config13stream_holder16callback_cleanerEE7addressEv
FN:106,109,_ZN5boost6detail13sp_ms_deleterINS_9unit_test14runtime_config13stream_holder16callback_cleanerEE15set_initializedEv
FN:249,264,_ZN5boost11make_sharedINS_9unit_test14runtime_config13stream_holder16callback_cleanerEJRKNS_8functionIFvvEEEEEENS_6detail15sp_if_not_arrayIT_E4typeEDpOT0_
FN:52,70,_ZN5boost6detail13sp_ms_deleterINS_9unit_test14runtime_config13stream_holder16callback_cleanerEE7destroyEv
FN:74,76,_ZN5boost6detail13sp_ms_deleterINS_9unit_test14runtime_config13stream_holder16callback_cleanerEEC2Ev
FN:87,90,_ZN5boost6detail13sp_ms_deleterINS_9unit_test14runtime_config13stream_holder16callback_cleanerEED2Ev
FN:92,95,_ZN5boost6detail13sp_ms_deleterINS_9unit_test14runtime_config13stream_holder16callback_cleanerEEclEPS5_
FN:97,99,_ZN5boost6detail13sp_ms_deleterINS_9unit_test14runtime_config13stream_holder16callback_cleanerEE11operator_fnEPS5_
FNDA:0,_ZN5boost6detail13sp_ms_deleterINS_9unit_test14runtime_config13stream_holder16callback_cleanerEE7addressEv
FNDA:0,_ZN5boost6detail13sp_ms_deleterINS_9unit_test14runtime_config13stream_holder16callback_cleanerEE15set_initializedEv
FNDA:0,_ZN5boost11make_sharedINS_9unit_test14runtime_config13stream_holder16callback_cleanerEJRKNS_8functionIFvvEEEEEENS_6detail15sp_if_not_arrayIT_E4typeEDpOT0_
FNDA:0,_ZN5boost6detail13sp_ms_deleterINS_9unit_test14runtime_config13stream_holder16callback_cleanerEE7destroyEv
FNDA:0,_ZN5boost6detail13sp_ms_deleterINS_9unit_test14runtime_config13stream_holder16callback_cleanerEEC2Ev
FNDA:0,_ZN5boost6detail13sp_ms_deleterINS_9unit_test14runtime_config13stream_holder16callback_cleanerEED2Ev
FNDA:0,_ZN5boost6detail13sp_ms_deleterINS_9unit_test14runtime_config13stream_holder16callback_cleanerEEclEPS5_
FNDA:0,_ZN5boost6detail13sp_ms_deleterINS_9unit_test14runtime_config13stream_holder16callback_cleanerEE11operator_fnEPS5_
FNF:8
FNH:0
DA:52,0
DA:54,0
DA:59,0
DA:60,0
DA:68,0
DA:70,0
DA:74,0
DA:76,0
DA:87,0
DA:89,0
DA:90,0
DA:92,0
DA:94,0
DA:95,0
DA:97,0
DA:99,0
DA:101,0
DA:103,0
DA:106,0
DA:108,0
DA:109,0
DA:249,0
DA:251,0
DA:253,0
DA:255,0
DA:257,0
DA:258,0
DA:260,0
DA:262,0
DA:263,0
DA:264,0
LF:31
LH:0
end_of_record
TN:
SF:/usr/include/boost/smart_ptr/scoped_array.hpp
FN:58,63,_ZN5boost12scoped_arrayIcEC2EPc
FN:65,71,_ZN5boost12scoped_arrayIcED2Ev
FN:73,77,_ZN5boost12scoped_arrayIcE5resetEPc
FN:86,89,_ZNK5boost12scoped_arrayIcE3getEv
FN:94,99,_ZN5boost12scoped_arrayIcE4swapERS1_
FNDA:4,_ZN5boost12scoped_arrayIcEC2EPc
FNDA:4,_ZN5boost12scoped_arrayIcED2Ev
FNDA:2,_ZN5boost12scoped_arrayIcE5resetEPc
FNDA:50,_ZNK5boost12scoped_arrayIcE3getEv
FNDA:2,_ZN5boost12scoped_arrayIcE4swapERS1_
FNF:5
FNH:5
DA:58,4
DA:63,4
DA:65,4
DA:70,4
DA:71,4
DA:73,2
DA:75,2
DA:76,2
DA:77,2
DA:86,50
DA:88,50
DA:94,2
DA:96,2
DA:97,2
DA:98,2
DA:99,2
LF:16
LH:16
end_of_record
TN:
SF:/usr/include/boost/smart_ptr/scoped_ptr.hpp
FN:104,108,_ZNK5boost10scoped_ptrINS_2io18ios_base_all_saverEEptEv
FN:104,108,_ZNK5boost10scoped_ptrINS_9unit_test16progress_displayEEptEv
FN:104,108,_ZNK5boost10scoped_ptrINS_9unit_test16results_reporter6formatEEptEv
FN:118,123,_ZN5boost10scoped_ptrINS_2io18ios_base_all_saverEE4swapERS3_
FN:118,123,_ZN5boost10scoped_ptrINS_9unit_test16progress_displayEE4swapERS3_
FN:118,123,_ZN5boost10scoped_ptrINS_9unit_test16results_reporter6formatEE4swapERS4_
FN:66,71,_ZN5boost10scoped_ptrINS_2io18ios_base_all_saverEEC2EPS2_
FN:66,71,_ZN5boost10scoped_ptrINS_9unit_test16progress_displayEEC2EPS2_
FN:66,71,_ZN5boost10scoped_ptrINS_9unit_test16results_reporter6formatEEC2EPS3_
FN:84,90,_ZN5boost10scoped_ptrINS_2io18ios_base_all_saverEED2Ev
FN:84,90,_ZN5boost10scoped_ptrINS_9unit_test16progress_displayEED2Ev
FN:84,90,_ZN5boost10scoped_ptrINS_9unit_test16results_reporter6formatEED2Ev
FN:92,96,_ZN5boost10scoped_ptrINS_2io18ios_base_all_saverEE5resetEPS2_
FN:92,96,_ZN5boost10scoped_ptrINS_9unit_test16progress_displayEE5resetEPS2_
FN:92,96,_ZN5boost10scoped_ptrINS_9unit_test16results_reporter6formatEE5resetEPS3_
FN:98,102,_ZNK5boost10scoped_ptrINS_9unit_test16progress_displayEEdeEv
FNDA:1,_ZNK5boost10scoped_ptrINS_2io18ios_base_all_saverEEptEv
FNDA:0,_ZNK5boost10scoped_ptrINS_9unit_test16progress_displayEEptEv
FNDA:3,_ZNK5boost10scoped_ptrINS_9unit_test16results_reporter6formatEEptEv
FNDA:1,_ZN5boost10scoped_ptrINS_2io18ios_base_all_saverEE4swapERS3_
FNDA:0,_ZN5boost10scoped_ptrINS_9unit_test16progress_displayEE4swapERS3_
FNDA:1,_ZN5boost10scoped_ptrINS_9unit_test16results_reporter6formatEE4swapERS4_
FNDA:2,_ZN5boost10scoped_ptrINS_2io18ios_base_all_saverEEC2EPS2_
FNDA:0,_ZN5boost10scoped_ptrINS_9unit_test16progress_displayEEC2EPS2_
FNDA:2,_ZN5boost10scoped_ptrINS_9unit_test16results_reporter6formatEEC2EPS3_
FNDA:2,_ZN5boost10scoped_ptrINS_2io18ios_base_all_saverEED2Ev
FNDA:0,_ZN5boost10scoped_ptrINS_9unit_test16progress_displayEED2Ev
FNDA:2,_ZN5boost10scoped_ptrINS_9unit_test16results_reporter6formatEED2Ev
FNDA:1,_ZN5boost10scoped_ptrINS_2io18ios_base_all_saverEE5resetEPS2_
FNDA:0,_ZN5boost10scoped_ptrINS_9unit_test16progress_displayEE5resetEPS2_
FNDA:1,_ZN5boost10scoped_ptrINS_9unit_test16results_reporter6formatEE5resetEPS3_
FNDA:0,_ZNK5boost10scoped_ptrINS_9unit_test16progress_displayEEdeEv
FNF:16
FNH:10
DA:66,4
DA:71,4
DA:84,4
DA:89,4
DA:90,4
DA:92,2
DA:94,2
DA:95,2
DA:96,2
DA:98,0
DA:100,0
DA:101,0
DA:104,4
DA:106,4
DA:107,4
DA:118,2
DA:120,2
DA:121,2
DA:122,2
DA:123,2
LF:20
LH:17
end_of_record
TN:
SF:/usr/include/boost/smart_ptr/shared_ptr.hpp
FN:1029,1032,_ZN5boost11get_pointerINS_9unit_test17test_unit_fixtureEEEPNS_10shared_ptrIT_E12element_typeERKS5_
FN:237,239,_ZN5boost6detail26sp_enable_shared_from_thisEz
FN:278,282,_ZN5boost6detail20sp_pointer_constructINS_16exception_detail15error_info_baseES3_EEvPNS_10shared_ptrIT_EEPT0_RNS0_12shared_countE
FN:278,282,_ZN5boost6detail20sp_pointer_constructINS_23basic_wrap_stringstreamIcEES3_EEvPNS_10shared_ptrIT_EEPT0_RNS0_12shared_countE
FN:278,282,_ZN5boost6detail20sp_pointer_constructINS_2io18ios_base_all_saverES3_EEvPNS_10shared_ptrIT_EEPT0_RNS0_12shared_countE
FN:278,282,_ZN5boost6detail20sp_pointer_constructINS_7runtime11basic_paramENS2_14enum_parameterINS_9unit_test12report_levelELNS2_11args_amountE0EEEEEvPNS_10shared_ptrIT_EEPT0_RNS0_12shared_countE
FN:278,282,_ZN5boost6detail20sp_pointer_constructINS_7runtime11basic_paramENS2_14enum_parameterINS_9unit_test13output_formatELNS2_11args_amountE0EEEEEvPNS_10shared_ptrIT_EEPT0_RNS0_12shared_countE
FN:278,282,_ZN5boost6detail20sp_pointer_constructINS_7runtime11basic_paramENS2_14enum_parameterINS_9unit_test9log_levelELNS2_11args_amountE0EEEEEvPNS_10shared_ptrIT_EEPT0_RNS0_12shared_countE
FN:278,282,_ZN5boost6detail20sp_pointer_constructINS_7runtime11basic_paramENS2_6optionEEEvPNS_10shared_ptrIT_EEPT0_RNS0_12shared_countE
FN:278,282,_ZN5boost6detail20sp_pointer_constructINS_7runtime11basic_paramENS2_9parameterINS_9unit_test12report_levelELNS2_11args_amountE0ELb1EEEEEvPNS_10shared_ptrIT_EEPT0_RNS0_12shared_countE
FN:278,282,_ZN5boost6detail20sp_pointer_constructINS_7runtime11basic_paramENS2_9parameterINS_9unit_test13output_formatELNS2_11args_amountE0ELb1EEEEEvPNS_10shared_ptrIT_EEPT0_RNS0_12shared_countE
FN:278,282,_ZN5boost6detail20sp_pointer_constructINS_7runtime11basic_paramENS2_9parameterINS_9unit_test9log_levelELNS2_11args_amountE0ELb1EEEEEvPNS_10shared_ptrIT_EEPT0_RNS0_12shared_countE
FN:278,282,_ZN5boost6detail20sp_pointer_constructINS_7runtime11basic_paramENS2_9parameterINSt7__cxx1112basic_stringIcSt11char_traitsIcESaIcEEELNS2_11args_amountE0ELb0EEEEEvPNS_10shared_ptrIT_EEPT0_RNS0_12shared_countE
FN:278,282,_ZN5boost6detail20sp_pointer_constructINS_7runtime11basic_paramENS2_9parameterINSt7__cxx1112basic_stringIcSt11char_traitsIcESaIcEEELNS2_11args_amountE2ELb0EEEEEvPNS_10shared_ptrIT_EEPT0_RNS0_12shared_countE
FN:278,282,_ZN5boost6detail20sp_pointer_constructINS_7runtime11basic_paramENS2_9parameterIjLNS2_11args_amountE0ELb0EEEEEvPNS_10shared_ptrIT_EEPT0_RNS0_12shared_countE
FN:278,282,_ZN5boost6detail20sp_pointer_constructINS_7runtime11basic_paramENS2_9parameterImLNS2_11args_amountE0ELb0EEEEEvPNS_10shared_ptrIT_EEPT0_RNS0_12shared_countE
FN:278,282,_ZN5boost6detail20sp_pointer_constructINS_7runtime3cla13rt_cla_detail14parameter_trieES5_EEvPNS_10shared_ptrIT_EEPT0_RNS0_12shared_countE
FN:278,282,_ZN5boost6detail20sp_pointer_constructINS_7runtime3cla6parserES4_EEvPNS_10shared_ptrIT_EEPT0_RNS0_12shared_countE
FN:278,282,_ZN5boost6detail20sp_pointer_constructINS_7runtime8argumentENS2_14typed_argumentINS_9unit_test12report_levelEEEEEvPNS_10shared_ptrIT_EEPT0_RNS0_12shared_countE
FN:278,282,_ZN5boost6detail20sp_pointer_constructINS_7runtime8argumentENS2_14typed_argumentINS_9unit_test13output_formatEEEEEvPNS_10shared_ptrIT_EEPT0_RNS0_12shared_countE
FN:278,282,_ZN5boost6detail20sp_pointer_constructINS_7runtime8argumentENS2_14typed_argumentINS_9unit_test9log_levelEEEEEvPNS_10shared_ptrIT_EEPT0_RNS0_12shared_countE
FN:278,282,_ZN5boost6detail20sp_pointer_constructINS_7runtime8argumentENS2_14typed_argumentINSt7__cxx1112basic_stringIcSt11char_traitsIcESaIcEEEEEEEvPNS_10shared_ptrIT_EEPT0_RNS0_12shared_countE
FN:278,282,_ZN5boost6detail20sp_pointer_constructINS_7runtime8argumentENS2_14typed_argumentISt6vectorINSt7__cxx1112basic_stringIcSt11char_traitsIcESaIcEEESaISB_EEEEEEvPNS_10shared_ptrIT_EEPT0_RNS0_12shared_countE
FN:278,282,_ZN5boost6detail20sp_pointer_constructINS_7runtime8argumentENS2_14typed_argumentIbEEEEvPNS_10shared_ptrIT_EEPT0_RNS0_12shared_countE
FN:278,282,_ZN5boost6detail20sp_pointer_constructINS_7runtime8argumentENS2_14typed_argumentIjEEEEvPNS_10shared_ptrIT_EEPT0_RNS0_12shared_countE
FN:278,282,_ZN5boost6detail20sp_pointer_constructINS_7runtime8argumentENS2_14typed_argumentImEEEEvPNS_10shared_ptrIT_EEPT0_RNS0_12shared_countE
FN:278,282,_ZN5boost6detail20sp_pointer_constructINS_9unit_test17test_unit_fixtureENS2_9framework4impl21global_fixture_handleEEEvPNS_10shared_ptrIT_EEPT0_RNS0_12shared_countE
FN:278,282,_ZN5boost6detail20sp_pointer_constructINS_9unit_test23unit_test_log_formatterES3_EEvPNS_10shared_ptrIT_EEPT0_RNS0_12shared_countE
FN:278,282,_ZN5boost6detail20sp_pointer_constructINS_9unit_test9decorator4baseENS3_10depends_onEEEvPNS_10shared_ptrIT_EEPT0_RNS0_12shared_countE
FN:278,282,_ZN5boost6detail20sp_pointer_constructINS_9unit_test9decorator4baseENS3_11descriptionEEEvPNS_10shared_ptrIT_EEPT0_RNS0_12shared_countE
FN:278,282,_ZN5boost6detail20sp_pointer_constructINS_9unit_test9decorator4baseENS3_12preconditionEEEvPNS_10shared_ptrIT_EEPT0_RNS0_12shared_countE
FN:278,282,_ZN5boost6detail20sp_pointer_constructINS_9unit_test9decorator4baseENS3_15stack_decoratorEEEvPNS_10shared_ptrIT_EEPT0_RNS0_12shared_countE
FN:278,282,_ZN5boost6detail20sp_pointer_constructINS_9unit_test9decorator4baseENS3_17expected_failuresEEEvPNS_10shared_ptrIT_EEPT0_RNS0_12shared_countE
FN:278,282,_ZN5boost6detail20sp_pointer_constructINS_9unit_test9decorator4baseENS3_5labelEEEvPNS_10shared_ptrIT_EEPT0_RNS0_12shared_countE
FN:278,282,_ZN5boost6detail20sp_pointer_constructINS_9unit_test9decorator4baseENS3_7timeoutEEEvPNS_10shared_ptrIT_EEPT0_RNS0_12shared_countE
FN:278,282,_ZN5boost6detail20sp_pointer_constructINS_9unit_test9decorator4baseENS3_9fixture_tEEEvPNS_10shared_ptrIT_EEPT0_RNS0_12shared_countE
FN:302,305,_ZN5boost6detail20sp_deleter_constructINS_9unit_test14runtime_config13stream_holder16callback_cleanerES5_EEvPNS_10shared_ptrIT_EEPT0_
FN:347,349,_ZN5boost10shared_ptrINS_16exception_detail15error_info_baseEEC2Ev
FN:347,349,_ZN5boost10shared_ptrINS_23basic_wrap_stringstreamIcEEEC2Ev
FN:347,349,_ZN5boost10shared_ptrINS_6detail22translator_holder_baseEEC2Ev
FN:347,349,_ZN5boost10shared_ptrINS_7runtime11basic_paramEEC2Ev
FN:347,349,_ZN5boost10shared_ptrINS_7runtime3cla13rt_cla_detail14parameter_trieEEC1Ev
FN:347,349,_ZN5boost10shared_ptrINS_7runtime8argumentEEC2Ev
FN:347,349,_ZN5boost10shared_ptrINS_9unit_test14runtime_config13stream_holder16callback_cleanerEEC2Ev
FN:347,349,_ZN5boost10shared_ptrINS_9unit_test23unit_test_log_formatterEEC2Ev
FN:372,375,_ZN5boost10shared_ptrINS_16exception_detail15error_info_baseEEC2IS2_EEPT_
FN:372,375,_ZN5boost10shared_ptrINS_23basic_wrap_stringstreamIcEEEC2IS2_EEPT_
FN:372,375,_ZN5boost10shared_ptrINS_2io18ios_base_all_saverEEC2IS2_EEPT_
FN:372,375,_ZN5boost10shared_ptrINS_7runtime11basic_paramEEC2INS1_14enum_parameterINS_9unit_test12report_levelELNS1_11args_amountE0EEEEEPT_
FN:372,375,_ZN5boost10shared_ptrINS_7runtime11basic_paramEEC2INS1_14enum_parameterINS_9unit_test13output_formatELNS1_11args_amountE0EEEEEPT_
FN:372,375,_ZN5boost10shared_ptrINS_7runtime11basic_paramEEC2INS1_14enum_parameterINS_9unit_test9log_levelELNS1_11args_amountE0EEEEEPT_
FN:372,375,_ZN5boost10shared_ptrINS_7runtime11basic_paramEEC2INS1_6optionEEEPT_
FN:372,375,_ZN5boost10shared_ptrINS_7runtime11basic_paramEEC2INS1_9parameterINS_9unit_test12report_levelELNS1_11args_amountE0ELb1EEEEEPT_
FN:372,375,_ZN5boost10shared_ptrINS_7runtime11basic_paramEEC2INS1_9parameterINS_9unit_test13output_formatELNS1_11args_amountE0ELb1EEEEEPT_
FN:372,375,_ZN5boost10shared_ptrINS_7runtime11basic_paramEEC2INS1_9parameterINS_9unit_test9log_levelELNS1_11args_amountE0ELb1EEEEEPT_
FN:372,375,_ZN5boost10shared_ptrINS_7runtime11basic_paramEEC2INS1_9parameterINSt7__cxx1112basic_stringIcSt11char_traitsIcESaIcEEELNS1_11args_amountE0ELb0EEEEEPT_
FN:372,375,_ZN5boost10shared_ptrINS_7runtime11basic_paramEEC2INS1_9parameterINSt7__cxx1112basic_stringIcSt11char_traitsIcESaIcEEELNS1_11args_amountE2ELb0EEEEEPT_
FN:372,375,_ZN5boost10shared_ptrINS_7runtime11basic_paramEEC2INS1_9parameterIjLNS1_11args_amountE0ELb0EEEEEPT_
FN:372,375,_ZN5boost10shared_ptrINS_7runtime11basic_paramEEC2INS1_9parameterImLNS1_11args_amountE0ELb0EEEEEPT_
FN:372,375,_ZN5boost10shared_ptrINS_7runtime3cla13rt_cla_detail14parameter_trieEEC2IS4_EEPT_
FN:372,375,_ZN5boost10shared_ptrINS_7runtime3cla6parserEEC2IS3_EEPT_
FN:372,375,_ZN5boost10shared_ptrINS_7runtime8argumentEEC2INS1_14typed_argumentINS_9unit_test12report_levelEEEEEPT_
FN:372,375,_ZN5boost10shared_ptrINS_7runtime8argumentEEC2INS1_14typed_argumentINS_9unit_test13output_formatEEEEEPT_
FN:372,375,_ZN5boost10shared_ptrINS_7runtime8argumentEEC2INS1_14typed_argumentINS_9unit_test9log_levelEEEEEPT_
FN:372,375,_ZN5boost10shared_ptrINS_7runtime8argumentEEC2INS1_14typed_argumentINSt7__cxx1112basic_stringIcSt11char_traitsIcESaIcEEEEEEEPT_
FN:372,375,_ZN5boost10shared_ptrINS_7runtime8argumentEEC2INS1_14typed_argumentISt6vectorINSt7__cxx1112basic_stringIcSt11char_traitsIcESaIcEEESaISC_EEEEEEPT_
FN:372,375,_ZN5boost10shared_ptrINS_7runtime8argumentEEC2INS1_14typed_argumentIbEEEEPT_
FN:372,375,_ZN5boost10shared_ptrINS_7runtime8argumentEEC2INS1_14typed_argumentIjEEEEPT_
FN:372,375,_ZN5boost10shared_ptrINS_7runtime8argumentEEC2INS1_14typed_argumentImEEEEPT_
FN:372,375,_ZN5boost10shared_ptrINS_9unit_test17test_unit_fixtureEEC2INS1_9framework4impl21global_fixture_handleEEEPT_
FN:372,375,_ZN5boost10shared_ptrINS_9unit_test23unit_test_log_formatterEEC2IS2_EEPT_
FN:372,375,_ZN5boost10shared_ptrINS_9unit_test9decorator4baseEEC2INS2_10depends_onEEEPT_
FN:372,375,_ZN5boost10shared_ptrINS_9unit_test9decorator4baseEEC2INS2_11descriptionEEEPT_
FN:372,375,_ZN5boost10shared_ptrINS_9unit_test9decorator4baseEEC2INS2_12preconditionEEEPT_
FN:372,375,_ZN5boost10shared_ptrINS_9unit_test9decorator4baseEEC2INS2_15stack_decoratorEEEPT_
FN:372,375,_ZN5boost10shared_ptrINS_9unit_test9decorator4baseEEC2INS2_17expected_failuresEEEPT_
FN:372,375,_ZN5boost10shared_ptrINS_9unit_test9decorator4baseEEC2INS2_5labelEEEPT_
FN:372,375,_ZN5boost10shared_ptrINS_9unit_test9decorator4baseEEC2INS2_7timeoutEEEPT_
FN:372,375,_ZN5boost10shared_ptrINS_9unit_test9decorator4baseEEC2INS2_9fixture_tEEEPT_
FN:385,388,_ZN5boost10shared_ptrINS_9unit_test14runtime_config13stream_holder16callback_cleanerEEC2IS4_NS_6detail14sp_inplace_tagINS7_13sp_ms_deleterIS4_EEEEEEPT_T0_
FN:459,461,_ZN5boost10shared_ptrINS_16exception_detail15error_info_baseEEC2ERKS3_
FN:459,461,_ZN5boost10shared_ptrINS_7runtime11basic_paramEEC2ERKS3_
FN:459,461,_ZN5boost10shared_ptrINS_7runtime3cla13rt_cla_detail14parameter_trieEEC2ERKS5_
FN:459,461,_ZN5boost10shared_ptrINS_7runtime8argumentEEC2ERKS3_
FN:459,461,_ZN5boost10shared_ptrINS_9unit_test17test_unit_fixtureEEC2ERKS3_
FN:459,461,_ZN5boost10shared_ptrINS_9unit_test19test_unit_generatorEEC2ERKS3_
FN:459,461,_ZN5boost10shared_ptrINS_9unit_test9decorator4baseEEC2ERKS4_
FN:501,503,_ZN5boost10shared_ptrINS_9unit_test14runtime_config13stream_holder16callback_cleanerEEC2IS4_EERKNS0_IT_EEPS4_
FN:584,588,_ZN5boost10shared_ptrINS_16exception_detail15error_info_baseEEaSERKS3_
FN:584,588,_ZN5boost10shared_ptrINS_7runtime11basic_paramEEaSERKS3_
FN:584,588,_ZN5boost10shared_ptrINS_7runtime3cla13rt_cla_detail14parameter_trieEEaSERKS5_
FN:584,588,_ZN5boost10shared_ptrINS_9unit_test9decorator4baseEEaSERKS4_
FN:671,674,_ZN5boost10shared_ptrINS_16exception_detail15error_info_baseEEC2EOS3_
FN:671,674,_ZN5boost10shared_ptrINS_23basic_wrap_stringstreamIcEEEC2EOS3_
FN:671,674,_ZN5boost10shared_ptrINS_2io18ios_base_all_saverEEC2EOS3_
FN:671,674,_ZN5boost10shared_ptrINS_7runtime11basic_paramEEC2EOS3_
FN:671,674,_ZN5boost10shared_ptrINS_7runtime3cla13rt_cla_detail14parameter_trieEEC2EOS5_
FN:671,674,_ZN5boost10shared_ptrINS_7runtime8argumentEEC2EOS3_
FN:671,674,_ZN5boost10shared_ptrINS_9unit_test14runtime_config13stream_holder16callback_cleanerEEC2EOS5_
FN:671,674,_ZN5boost10shared_ptrINS_9unit_test17test_unit_fixtureEEC2EOS3_
FN:671,674,_ZN5boost10shared_ptrINS_9unit_test19test_unit_generatorEEC2EOS3_
FN:671,674,_ZN5boost10shared_ptrINS_9unit_test23unit_test_log_formatterEEC2EOS3_
FN:671,674,_ZN5boost10shared_ptrINS_9unit_test9decorator4baseEEC2EOS4_
FN:692,696,_ZN5boost10shared_ptrINS_2io18ios_base_all_saverEEaSEOS3_
FN:692,696,_ZN5boost10shared_ptrINS_7runtime3cla13rt_cla_detail14parameter_trieEEaSEOS5_
FN:692,696,_ZN5boost10shared_ptrINS_7runtime8argumentEEaSEOS3_
FN:692,696,_ZN5boost10shared_ptrINS_9unit_test14runtime_config13stream_holder16callback_cleanerEEaSEOS5_
FN:692,696,_ZN5boost10shared_ptrINS_9unit_test17test_unit_fixtureEEaSEOS3_
FN:692,696,_ZN5boost10shared_ptrINS_9unit_test23unit_test_log_formatterEEaSEOS3_
FN:692,696,_ZN5boost10shared_ptrINS_9unit_test9decorator4baseEEaSEOS4_
FN:725,728,_ZN5boost10shared_ptrINS_7runtime11basic_paramEE5resetEv
FN:725,728,_ZN5boost10shared_ptrINS_7runtime3cla13rt_cla_detail14parameter_trieEE5resetEv
FN:725,728,_ZN5boost10shared_ptrINS_9unit_test14runtime_config13stream_holder16callback_cleanerEE5resetEv
FN:730,734,_ZN5boost10shared_ptrINS_23basic_wrap_stringstreamIcEEE5resetIS2_EEvPT_
FN:730,734,_ZN5boost10shared_ptrINS_2io18ios_base_all_saverEE5resetIS2_EEvPT_
FN:730,734,_ZN5boost10shared_ptrINS_7runtime3cla6parserEE5resetIS3_EEvPT_
FN:730,734,_ZN5boost10shared_ptrINS_9unit_test23unit_test_log_formatterEE5resetIS2_EEvPT_
FN:776,780,_ZNK5boost10shared_ptrINS_16exception_detail15error_info_baseEEdeEv
FN:776,780,_ZNK5boost10shared_ptrINS_23basic_wrap_stringstreamIcEEEdeEv
FN:776,780,_ZNK5boost10shared_ptrINS_6detail22translator_holder_baseEEdeEv
FN:776,780,_ZNK5boost10shared_ptrINS_7runtime8argumentEEdeEv
FN:782,786,_ZNK5boost10shared_ptrINS_16exception_detail15error_info_baseEEptEv
FN:782,786,_ZNK5boost10shared_ptrINS_23basic_wrap_stringstreamIcEEEptEv
FN:782,786,_ZNK5boost10shared_ptrINS_2io18ios_base_all_saverEEptEv
FN:782,786,_ZNK5boost10shared_ptrINS_7runtime11basic_paramEEptEv
FN:782,786,_ZNK5boost10shared_ptrINS_7runtime3cla13rt_cla_detail14parameter_trieEEptEv
FN:782,786,_ZNK5boost10shared_ptrINS_7runtime3cla6parserEEptEv
FN:782,786,_ZNK5boost10shared_ptrINS_7runtime8argumentEEptEv
FN:782,786,_ZNK5boost10shared_ptrINS_9unit_test14runtime_config13stream_holder16callback_cleanerEEptEv
FN:782,786,_ZNK5boost10shared_ptrINS_9unit_test19test_unit_generatorEEptEv
FN:782,786,_ZNK5boost10shared_ptrINS_9unit_test23unit_test_log_formatterEEptEv
FN:782,786,_ZNK5boost10shared_ptrINS_9unit_test9decorator4baseEEptEv
FN:796,799,_ZNK5boost10shared_ptrINS_9unit_test17test_unit_fixtureEE3getEv
FN:796,799,_ZNK5boost10shared_ptrINS_9unit_test23unit_test_log_formatterEE3getEv
FN:814,818,_ZN5boost10shared_ptrINS_16exception_detail15error_info_baseEE4swapERS3_
FN:814,818,_ZN5boost10shared_ptrINS_23basic_wrap_stringstreamIcEEE4swapERS3_
FN:814,818,_ZN5boost10shared_ptrINS_2io18ios_base_all_saverEE4swapERS3_
FN:814,818,_ZN5boost10shared_ptrINS_7runtime11basic_paramEE4swapERS3_
FN:814,818,_ZN5boost10shared_ptrINS_7runtime3cla13rt_cla_detail14parameter_trieEE4swapERS5_
FN:814,818,_ZN5boost10shared_ptrINS_7runtime3cla6parserEE4swapERS4_
FN:814,818,_ZN5boost10shared_ptrINS_7runtime8argumentEE4swapERS3_
FN:814,818,_ZN5boost10shared_ptrINS_9unit_test14runtime_config13stream_holder16callback_cleanerEE4swapERS5_
FN:814,818,_ZN5boost10shared_ptrINS_9unit_test17test_unit_fixtureEE4swapERS3_
FN:814,818,_ZN5boost10shared_ptrINS_9unit_test23unit_test_log_formatterEE4swapERS3_
FN:814,818,_ZN5boost10shared_ptrINS_9unit_test9decorator4baseEE4swapERS4_
FN:855,858,_ZNK5boost10shared_ptrINS_9unit_test14runtime_config13stream_holder16callback_cleanerEE29_internal_get_untyped_deleterEv
FNDA:0,_ZN5boost11get_pointerINS_9unit_test17test_unit_fixtureEEEPNS_10shared_ptrIT_E12element_typeERKS5_
FNDA:633,_ZN5boost6detail26sp_enable_shared_from_thisEz
FNDA:0,_ZN5boost6detail20sp_pointer_constructINS_16exception_detail15error_info_baseES3_EEvPNS_10shared_ptrIT_EEPT0_RNS0_12shared_countE
FNDA:0,_ZN5boost6detail20sp_pointer_constructINS_23basic_wrap_stringstreamIcEES3_EEvPNS_10shared_ptrIT_EEPT0_RNS0_12shared_countE
FNDA:6,_ZN5boost6detail20sp_pointer_constructINS_2io18ios_base_all_saverES3_EEvPNS_10shared_ptrIT_EEPT0_RNS0_12shared_countE
FNDA:1,_ZN5boost6detail20sp_pointer_constructINS_7runtime11basic_paramENS2_14enum_parameterINS_9unit_test12report_levelELNS2_11args_amountE0EEEEEvPNS_10shared_ptrIT_EEPT0_RNS0_12shared_countE
FNDA:4,_ZN5boost6detail20sp_pointer_constructINS_7runtime11basic_paramENS2_14enum_parameterINS_9unit_test13output_formatELNS2_11args_amountE0EEEEEvPNS_10shared_ptrIT_EEPT0_RNS0_12shared_countE
FNDA:1,_ZN5boost6detail20sp_pointer_constructINS_7runtime11basic_paramENS2_14enum_parameterINS_9unit_test9log_levelELNS2_11args_amountE0EEEEEvPNS_10shared_ptrIT_EEPT0_RNS0_12shared_countE
FNDA:13,_ZN5boost6detail20sp_pointer_constructINS_7runtime11basic_paramENS2_6optionEEEvPNS_10shared_ptrIT_EEPT0_RNS0_12shared_countE
FNDA:0,_ZN5boost6detail20sp_pointer_constructINS_7runtime11basic_paramENS2_9parameterINS_9unit_test12report_levelELNS2_11args_amountE0ELb1EEEEEvPNS_10shared_ptrIT_EEPT0_RNS0_12shared_countE
FNDA:0,_ZN5boost6detail20sp_pointer_constructINS_7runtime11basic_paramENS2_9parameterINS_9unit_test13output_formatELNS2_11args_amountE0ELb1EEEEEvPNS_10shared_ptrIT_EEPT0_RNS0_12shared_countE
FNDA:0,_ZN5boost6detail20sp_pointer_constructINS_7runtime11basic_paramENS2_9parameterINS_9unit_test9log_levelELNS2_11args_amountE0ELb1EEEEEvPNS_10shared_ptrIT_EEPT0_RNS0_12shared_countE
FNDA:5,_ZN5boost6detail20sp_pointer_constructINS_7runtime11basic_paramENS2_9parameterINSt7__cxx1112basic_stringIcSt11char_traitsIcESaIcEEELNS2_11args_amountE0ELb0EEEEEvPNS_10shared_ptrIT_EEPT0_RNS0_12shared_countE
FNDA:2,_ZN5boost6detail20sp_pointer_constructINS_7runtime11basic_paramENS2_9parameterINSt7__cxx1112basic_stringIcSt11char_traitsIcESaIcEEELNS2_11args_amountE2ELb0EEEEEvPNS_10shared_ptrIT_EEPT0_RNS0_12shared_countE
FNDA:1,_ZN5boost6detail20sp_pointer_constructINS_7runtime11basic_paramENS2_9parameterIjLNS2_11args_amountE0ELb0EEEEEvPNS_10shared_ptrIT_EEPT0_RNS0_12shared_countE
FNDA:1,_ZN5boost6detail20sp_pointer_constructINS_7runtime11basic_paramENS2_9parameterImLNS2_11args_amountE0ELb0EEEEEvPNS_10shared_ptrIT_EEPT0_RNS0_12shared_countE
FNDA:572,_ZN5boost6detail20sp_pointer_constructINS_7runtime3cla13rt_cla_detail14parameter_trieES5_EEvPNS_10shared_ptrIT_EEPT0_RNS0_12shared_countE
FNDA:1,_ZN5boost6detail20sp_pointer_constructINS_7runtime3cla6parserES4_EEvPNS_10shared_ptrIT_EEPT0_RNS0_12shared_countE
FNDA:1,_ZN5boost6detail20sp_pointer_constructINS_7runtime8argumentENS2_14typed_argumentINS_9unit_test12report_levelEEEEEvPNS_10shared_ptrIT_EEPT0_RNS0_12shared_countE
FNDA:3,_ZN5boost6detail20sp_pointer_constructINS_7runtime8argumentENS2_14typed_argumentINS_9unit_test13output_formatEEEEEvPNS_10shared_ptrIT_EEPT0_RNS0_12shared_countE
FNDA:1,_ZN5boost6detail20sp_pointer_constructINS_7runtime8argumentENS2_14typed_argumentINS_9unit_test9log_levelEEEEEvPNS_10shared_ptrIT_EEPT0_RNS0_12shared_countE
FNDA:1,_ZN5boost6detail20sp_pointer_constructINS_7runtime8argumentENS2_14typed_argumentINSt7__cxx1112basic_stringIcSt11char_traitsIcESaIcEEEEEEEvPNS_10shared_ptrIT_EEPT0_RNS0_12shared_countE
FNDA:2,_ZN5boost6detail20sp_pointer_constructINS_7runtime8argumentENS2_14typed_argumentISt6vectorINSt7__cxx1112basic_stringIcSt11char_traitsIcESaIcEEESaISB_EEEEEEvPNS_10shared_ptrIT_EEPT0_RNS0_12shared_countE
FNDA:13,_ZN5boost6detail20sp_pointer_constructINS_7runtime8argumentENS2_14typed_argumentIbEEEEvPNS_10shared_ptrIT_EEPT0_RNS0_12shared_countE
FNDA:1,_ZN5boost6detail20sp_pointer_constructINS_7runtime8argumentENS2_14typed_argumentIjEEEEvPNS_10shared_ptrIT_EEPT0_RNS0_12shared_countE
FNDA:1,_ZN5boost6detail20sp_pointer_constructINS_7runtime8argumentENS2_14typed_argumentImEEEEvPNS_10shared_ptrIT_EEPT0_RNS0_12shared_countE
FNDA:0,_ZN5boost6detail20sp_pointer_constructINS_9unit_test17test_unit_fixtureENS2_9framework4impl21global_fixture_handleEEEvPNS_10shared_ptrIT_EEPT0_RNS0_12shared_countE
FNDA:3,_ZN5boost6detail20sp_pointer_constructINS_9unit_test23unit_test_log_formatterES3_EEvPNS_10shared_ptrIT_EEPT0_RNS0_12shared_countE
FNDA:0,_ZN5boost6detail20sp_pointer_constructINS_9unit_test9decorator4baseENS3_10depends_onEEEvPNS_10shared_ptrIT_EEPT0_RNS0_12shared_countE
FNDA:0,_ZN5boost6detail20sp_pointer_constructINS_9unit_test9decorator4baseENS3_11descriptionEEEvPNS_10shared_ptrIT_EEPT0_RNS0_12shared_countE
FNDA:0,_ZN5boost6detail20sp_pointer_constructINS_9unit_test9decorator4baseENS3_12preconditionEEEvPNS_10shared_ptrIT_EEPT0_RNS0_12shared_countE
FNDA:0,_ZN5boost6detail20sp_pointer_constructINS_9unit_test9decorator4baseENS3_15stack_decoratorEEEvPNS_10shared_ptrIT_EEPT0_RNS0_12shared_countE
FNDA:0,_ZN5boost6detail20sp_pointer_constructINS_9unit_test9decorator4baseENS3_17expected_failuresEEEvPNS_10shared_ptrIT_EEPT0_RNS0_12shared_countE
FNDA:0,_ZN5boost6detail20sp_pointer_constructINS_9unit_test9decorator4baseENS3_5labelEEEvPNS_10shared_ptrIT_EEPT0_RNS0_12shared_countE
FNDA:0,_ZN5boost6detail20sp_pointer_constructINS_9unit_test9decorator4baseENS3_7timeoutEEEvPNS_10shared_ptrIT_EEPT0_RNS0_12shared_countE
FNDA:0,_ZN5boost6detail20sp_pointer_constructINS_9unit_test9decorator4baseENS3_9fixture_tEEEvPNS_10shared_ptrIT_EEPT0_RNS0_12shared_countE
FNDA:0,_ZN5boost6detail20sp_deleter_constructINS_9unit_test14runtime_config13stream_holder16callback_cleanerES5_EEvPNS_10shared_ptrIT_EEPT0_
FNDA:0,_ZN5boost10shared_ptrINS_16exception_detail15error_info_baseEEC2Ev
FNDA:141,_ZN5boost10shared_ptrINS_23basic_wrap_stringstreamIcEEEC2Ev
FNDA:2,_ZN5boost10shared_ptrINS_6detail22translator_holder_baseEEC2Ev
FNDA:678,_ZN5boost10shared_ptrINS_7runtime11basic_paramEEC2Ev
FNDA:3,_ZN5boost10shared_ptrINS_7runtime3cla13rt_cla_detail14parameter_trieEEC1Ev
FNDA:23,_ZN5boost10shared_ptrINS_7runtime8argumentEEC2Ev
FNDA:3,_ZN5boost10shared_ptrINS_9unit_test14runtime_config13stream_holder16callback_cleanerEEC2Ev
FNDA:3,_ZN5boost10shared_ptrINS_9unit_test23unit_test_log_formatterEEC2Ev
FNDA:0,_ZN5boost10shared_ptrINS_16exception_detail15error_info_baseEEC2IS2_EEPT_
FNDA:0,_ZN5boost10shared_ptrINS_23basic_wrap_stringstreamIcEEEC2IS2_EEPT_
FNDA:6,_ZN5boost10shared_ptrINS_2io18ios_base_all_saverEEC2IS2_EEPT_
FNDA:1,_ZN5boost10shared_ptrINS_7runtime11basic_paramEEC2INS1_14enum_parameterINS_9unit_test12report_levelELNS1_11args_amountE0EEEEEPT_
FNDA:4,_ZN5boost10shared_ptrINS_7runtime11basic_paramEEC2INS1_14enum_parameterINS_9unit_test13output_formatELNS1_11args_amountE0EEEEEPT_
FNDA:1,_ZN5boost10shared_ptrINS_7runtime11basic_paramEEC2INS1_14enum_parameterINS_9unit_test9log_levelELNS1_11args_amountE0EEEEEPT_
FNDA:13,_ZN5boost10shared_ptrINS_7runtime11basic_paramEEC2INS1_6optionEEEPT_
FNDA:0,_ZN5boost10shared_ptrINS_7runtime11basic_paramEEC2INS1_9parameterINS_9unit_test12report_levelELNS1_11args_amountE0ELb1EEEEEPT_
FNDA:0,_ZN5boost10shared_ptrINS_7runtime11basic_paramEEC2INS1_9parameterINS_9unit_test13output_formatELNS1_11args_amountE0ELb1EEEEEPT_
FNDA:0,_ZN5boost10shared_ptrINS_7runtime11basic_paramEEC2INS1_9parameterINS_9unit_test9log_levelELNS1_11args_amountE0ELb1EEEEEPT_
FNDA:5,_ZN5boost10shared_ptrINS_7runtime11basic_paramEEC2INS1_9parameterINSt7__cxx1112basic_stringIcSt11char_traitsIcESaIcEEELNS1_11args_amountE0ELb0EEEEEPT_
FNDA:2,_ZN5boost10shared_ptrINS_7runtime11basic_paramEEC2INS1_9parameterINSt7__cxx1112basic_stringIcSt11char_traitsIcESaIcEEELNS1_11args_amountE2ELb0EEEEEPT_
FNDA:1,_ZN5boost10shared_ptrINS_7runtime11basic_paramEEC2INS1_9parameterIjLNS1_11args_amountE0ELb0EEEEEPT_
FNDA:1,_ZN5boost10shared_ptrINS_7runtime11basic_paramEEC2INS1_9parameterImLNS1_11args_amountE0ELb0EEEEEPT_
FNDA:572,_ZN5boost10shared_ptrINS_7runtime3cla13rt_cla_detail14parameter_trieEEC2IS4_EEPT_
FNDA:1,_ZN5boost10shared_ptrINS_7runtime3cla6parserEEC2IS3_EEPT_
FNDA:1,_ZN5boost10shared_ptrINS_7runtime8argumentEEC2INS1_14typed_argumentINS_9unit_test12report_levelEEEEEPT_
FNDA:3,_ZN5boost10shared_ptrINS_7runtime8argumentEEC2INS1_14typed_argumentINS_9unit_test13output_formatEEEEEPT_
FNDA:1,_ZN5boost10shared_ptrINS_7runtime8argumentEEC2INS1_14typed_argumentINS_9unit_test9log_levelEEEEEPT_
FNDA:1,_ZN5boost10shared_ptrINS_7runtime8argumentEEC2INS1_14typed_argumentINSt7__cxx1112basic_stringIcSt11char_traitsIcESaIcEEEEEEEPT_
FNDA:2,_ZN5boost10shared_ptrINS_7runtime8argumentEEC2INS1_14typed_argumentISt6vectorINSt7__cxx1112basic_stringIcSt11char_traitsIcESaIcEEESaISC_EEEEEEPT_
FNDA:13,_ZN5boost10shared_ptrINS_7runtime8argumentEEC2INS1_14typed_argumentIbEEEEPT_
FNDA:1,_ZN5boost10shared_ptrINS_7runtime8argumentEEC2INS1_14typed_argumentIjEEEEPT_
FNDA:1,_ZN5boost10shared_ptrINS_7runtime8argumentEEC2INS1_14typed_argumentImEEEEPT_
FNDA:0,_ZN5boost10shared_ptrINS_9unit_test17test_unit_fixtureEEC2INS1_9framework4impl21global_fixture_handleEEEPT_
FNDA:3,_ZN5boost10shared_ptrINS_9unit_test23unit_test_log_formatterEEC2IS2_EEPT_
FNDA:0,_ZN5boost10shared_ptrINS_9unit_test9decorator4baseEEC2INS2_10depends_onEEEPT_
FNDA:0,_ZN5boost10shared_ptrINS_9unit_test9decorator4baseEEC2INS2_11descriptionEEEPT_
FNDA:0,_ZN5boost10shared_ptrINS_9unit_test9decorator4baseEEC2INS2_12preconditionEEEPT_
FNDA:0,_ZN5boost10shared_ptrINS_9unit_test9decorator4baseEEC2INS2_15stack_decoratorEEEPT_
FNDA:0,_ZN5boost10shared_ptrINS_9unit_test9decorator4baseEEC2INS2_17expected_failuresEEEPT_
FNDA:0,_ZN5boost10shared_ptrINS_9unit_test9decorator4baseEEC2INS2_5labelEEEPT_
FNDA:0,_ZN5boost10shared_ptrINS_9unit_test9decorator4baseEEC2INS2_7timeoutEEEPT_
FNDA:0,_ZN5boost10shared_ptrINS_9unit_test9decorator4baseEEC2INS2_9fixture_tEEEPT_
FNDA:0,_ZN5boost10shared_ptrINS_9unit_test14runtime_config13stream_holder16callback_cleanerEEC2IS4_NS_6detail14sp_inplace_tagINS7_13sp_ms_deleterIS4_EEEEEEPT_T0_
FNDA:0,_ZN5boost10shared_ptrINS_16exception_detail15error_info_baseEEC2ERKS3_
FNDA:1358,_ZN5boost10shared_ptrINS_7runtime11basic_paramEEC2ERKS3_
FNDA:769,_ZN5boost10shared_ptrINS_7runtime3cla13rt_cla_detail14parameter_trieEEC2ERKS5_
FNDA:217,_ZN5boost10shared_ptrINS_7runtime8argumentEEC2ERKS3_
FNDA:0,_ZN5boost10shared_ptrINS_9unit_test17test_unit_fixtureEEC2ERKS3_
FNDA:0,_ZN5boost10shared_ptrINS_9unit_test19test_unit_generatorEEC2ERKS3_
FNDA:0,_ZN5boost10shared_ptrINS_9unit_test9decorator4baseEEC2ERKS4_
FNDA:0,_ZN5boost10shared_ptrINS_9unit_test14runtime_config13stream_holder16callback_cleanerEEC2IS4_EERKNS0_IT_EEPS4_
FNDA:0,_ZN5boost10shared_ptrINS_16exception_detail15error_info_baseEEaSERKS3_
FNDA:569,_ZN5boost10shared_ptrINS_7runtime11basic_paramEEaSERKS3_
FNDA:12,_ZN5boost10shared_ptrINS_7runtime3cla13rt_cla_detail14parameter_trieEEaSERKS5_
FNDA:0,_ZN5boost10shared_ptrINS_9unit_test9decorator4baseEEaSERKS4_
FNDA:0,_ZN5boost10shared_ptrINS_16exception_detail15error_info_baseEEC2EOS3_
FNDA:0,_ZN5boost10shared_ptrINS_23basic_wrap_stringstreamIcEEEC2EOS3_
FNDA:6,_ZN5boost10shared_ptrINS_2io18ios_base_all_saverEEC2EOS3_
FNDA:28,_ZN5boost10shared_ptrINS_7runtime11basic_paramEEC2EOS3_
FNDA:1825,_ZN5boost10shared_ptrINS_7runtime3cla13rt_cla_detail14parameter_trieEEC2EOS5_
FNDA:23,_ZN5boost10shared_ptrINS_7runtime8argumentEEC2EOS3_
FNDA:0,_ZN5boost10shared_ptrINS_9unit_test14runtime_config13stream_holder16callback_cleanerEEC2EOS5_
FNDA:0,_ZN5boost10shared_ptrINS_9unit_test17test_unit_fixtureEEC2EOS3_
FNDA:0,_ZN5boost10shared_ptrINS_9unit_test19test_unit_generatorEEC2EOS3_
FNDA:6,_ZN5boost10shared_ptrINS_9unit_test23unit_test_log_formatterEEC2EOS3_
FNDA:0,_ZN5boost10shared_ptrINS_9unit_test9decorator4baseEEC2EOS4_
FNDA:0,_ZN5boost10shared_ptrINS_2io18ios_base_all_saverEEaSEOS3_
FNDA:687,_ZN5boost10shared_ptrINS_7runtime3cla13rt_cla_detail14parameter_trieEEaSEOS5_
FNDA:23,_ZN5boost10shared_ptrINS_7runtime8argumentEEaSEOS3_
FNDA:0,_ZN5boost10shared_ptrINS_9unit_test14runtime_config13stream_holder16callback_cleanerEEaSEOS5_
FNDA:0,_ZN5boost10shared_ptrINS_9unit_test17test_unit_fixtureEEaSEOS3_
FNDA:0,_ZN5boost10shared_ptrINS_9unit_test23unit_test_log_formatterEEaSEOS3_
FNDA:0,_ZN5boost10shared_ptrINS_9unit_test9decorator4baseEEaSEOS4_
FNDA:106,_ZN5boost10shared_ptrINS_7runtime11basic_paramEE5resetEv
FNDA:0,_ZN5boost10shared_ptrINS_7runtime3cla13rt_cla_detail14parameter_trieEE5resetEv
FNDA:1,_ZN5boost10shared_ptrINS_9unit_test14runtime_config13stream_holder16callback_cleanerEE5resetEv
FNDA:0,_ZN5boost10shared_ptrINS_23basic_wrap_stringstreamIcEEE5resetIS2_EEvPT_
FNDA:3,_ZN5boost10shared_ptrINS_2io18ios_base_all_saverEE5resetIS2_EEvPT_
FNDA:1,_ZN5boost10shared_ptrINS_7runtime3cla6parserEE5resetIS3_EEvPT_
FNDA:3,_ZN5boost10shared_ptrINS_9unit_test23unit_test_log_formatterEE5resetIS2_EEvPT_
FNDA:0,_ZNK5boost10shared_ptrINS_16exception_detail15error_info_baseEEdeEv
FNDA:0,_ZNK5boost10shared_ptrINS_23basic_wrap_stringstreamIcEEEdeEv
FNDA:0,_ZNK5boost10shared_ptrINS_6detail22translator_holder_baseEEdeEv
FNDA:217,_ZNK5boost10shared_ptrINS_7runtime8argumentEEdeEv
FNDA:0,_ZNK5boost10shared_ptrINS_16exception_detail15error_info_baseEEptEv
FNDA:0,_ZNK5boost10shared_ptrINS_23basic_wrap_stringstreamIcEEEptEv
FNDA:102,_ZNK5boost10shared_ptrINS_2io18ios_base_all_saverEEptEv
FNDA:863,_ZNK5boost10shared_ptrINS_7runtime11basic_paramEEptEv
FNDA:1362,_ZNK5boost10shared_ptrINS_7runtime3cla13rt_cla_detail14parameter_trieEEptEv
FNDA:1,_ZNK5boost10shared_ptrINS_7runtime3cla6parserEEptEv
FNDA:217,_ZNK5boost10shared_ptrINS_7runtime8argumentEEptEv
FNDA:0,_ZNK5boost10shared_ptrINS_9unit_test14runtime_config13stream_holder16callback_cleanerEEptEv
FNDA:0,_ZNK5boost10shared_ptrINS_9unit_test19test_unit_generatorEEptEv
FNDA:712,_ZNK5boost10shared_ptrINS_9unit_test23unit_test_log_formatterEEptEv
FNDA:0,_ZNK5boost10shared_ptrINS_9unit_test9decorator4baseEEptEv
FNDA:0,_ZNK5boost10shared_ptrINS_9unit_test17test_unit_fixtureEE3getEv
FNDA:0,_ZNK5boost10shared_ptrINS_9unit_test23unit_test_log_formatterEE3getEv
FNDA:0,_ZN5boost10shared_ptrINS_16exception_detail15error_info_baseEE4swapERS3_
FNDA:0,_ZN5boost10shared_ptrINS_23basic_wrap_stringstreamIcEEE4swapERS3_
FNDA:3,_ZN5boost10shared_ptrINS_2io18ios_base_all_saverEE4swapERS3_
FNDA:675,_ZN5boost10shared_ptrINS_7runtime11basic_paramEE4swapERS3_
FNDA:699,_ZN5boost10shared_ptrINS_7runtime3cla13rt_cla_detail14parameter_trieEE4swapERS5_
FNDA:1,_ZN5boost10shared_ptrINS_7runtime3cla6parserEE4swapERS4_
FNDA:23,_ZN5boost10shared_ptrINS_7runtime8argumentEE4swapERS3_
FNDA:1,_ZN5boost10shared_ptrINS_9unit_test14runtime_config13stream_holder16callback_cleanerEE4swapERS5_
FNDA:0,_ZN5boost10shared_ptrINS_9unit_test17test_unit_fixtureEE4swapERS3_
FNDA:3,_ZN5boost10shared_ptrINS_9unit_test23unit_test_log_formatterEE4swapERS3_
FNDA:0,_ZN5boost10shared_ptrINS_9unit_test9decorator4baseEE4swapERS4_
FNDA:0,_ZNK5boost10shared_ptrINS_9unit_test14runtime_config13stream_holder16callback_cleanerEE29_internal_get_untyped_deleterEv
FNF:146
FNH:79
DA:237,633
DA:239,633
DA:278,633
DA:280,633
DA:281,633
DA:282,633
DA:302,0
DA:304,0
DA:305,0
DA:347,853
DA:349,853
DA:372,633
DA:374,633
DA:375,633
DA:385,0
DA:387,0
DA:388,0
DA:459,2344
DA:461,2344
DA:501,0
DA:503,0
DA:584,581
DA:586,581
DA:587,581
DA:671,1888
DA:673,1888
DA:674,1888
DA:692,710
DA:694,710
DA:695,710
DA:725,107
DA:727,107
DA:728,107
DA:730,7
DA:732,7
DA:733,7
DA:734,7
DA:776,217
DA:778,217
DA:779,217
DA:782,3257
DA:784,3257
DA:785,3257
DA:796,0
DA:798,0
DA:814,1405
DA:816,1405
DA:817,1405
DA:818,1405
DA:855,0
DA:857,0
DA:1029,0
DA:1031,0
LF:53
LH:39
end_of_record
TN:
SF:/usr/include/boost/test/debug.hpp
FNF:0
FNH:0
LF:0
LH:0
end_of_record
TN:
SF:/usr/include/boost/test/detail/global_typedef.hpp
FN:68,71,_ZN5boost9unit_test9ut_detail19test_id_2_unit_typeEm
FN:75,79,_ZN5boost9unit_test9ut_detail20test_unit_id_restoreC2ERmm
FN:80,82,_ZN5boost9unit_test9ut_detail20test_unit_id_restoreD2Ev
FNDA:281,_ZN5boost9unit_test9ut_detail19test_id_2_unit_typeEm
FNDA:52,_ZN5boost9unit_test9ut_detail20test_unit_id_restoreC2ERmm
FNDA:52,_ZN5boost9unit_test9ut_detail20test_unit_id_restoreD2Ev
FNF:3
FNH:3
DA:68,281
DA:70,281
DA:75,52
DA:76,52
DA:77,52
DA:78,52
DA:79,52
DA:80,52
DA:81,52
DA:82,52
LF:10
LH:10
end_of_record
TN:
SF:/usr/include/boost/test/detail/throw_exception.hpp
FN:48,48,_ZN5boost9unit_test9ut_detail15throw_exceptionINS0_9framework11setup_errorEEEvRKT_
FN:48,48,_ZN5boost9unit_test9ut_detail15throw_exceptionINS0_9framework14internal_errorEEEvRKT_
FN:48,48,_ZN5boost9unit_test9ut_detail15throw_exceptionINS0_9framework15nothing_to_testEEEvRKT_
FN:48,48,_ZN5boost9unit_test9ut_detail15throw_exceptionINS_12system_errorEEEvRKT_
FN:48,48,_ZN5boost9unit_test9ut_detail15throw_exceptionINS_17execution_abortedEEEvRKT_
FN:48,48,_ZN5boost9unit_test9ut_detail15throw_exceptionINS_19execution_exceptionEEEvRKT_
FN:48,48,_ZN5boost9unit_test9ut_detail15throw_exceptionINS_3nfp10nfp_detail27access_to_invalid_parameterEEEvRKT_
FN:48,48,_ZN5boost9unit_test9ut_detail15throw_exceptionINS_6detail23system_signal_exceptionEEEvRKT_
FN:48,48,_ZN5boost9unit_test9ut_detail15throw_exceptionINS_7runtime12format_errorEEEvRKT_
FN:48,48,_ZN5boost9unit_test9ut_detail15throw_exceptionINS_7runtime13duplicate_argEEEvRKT_
FN:48,48,_ZN5boost9unit_test9ut_detail15throw_exceptionINS_7runtime14invalid_cla_idEEEvRKT_
FN:48,48,_ZN5boost9unit_test9ut_detail15throw_exceptionINS_7runtime15ambiguous_paramEEEvRKT_
FN:48,48,_ZN5boost9unit_test9ut_detail15throw_exceptionINS_7runtime15duplicate_paramEEEvRKT_
FN:48,48,_ZN5boost9unit_test9ut_detail15throw_exceptionINS_7runtime15missing_req_argEEEvRKT_
FN:48,48,_ZN5boost9unit_test9ut_detail15throw_exceptionINS_7runtime17arg_type_mismatchEEEvRKT_
FN:48,48,_ZN5boost9unit_test9ut_detail15throw_exceptionINS_7runtime17conflicting_paramEEEvRKT_
FN:48,48,_ZN5boost9unit_test9ut_detail15throw_exceptionINS_7runtime18invalid_param_specEEEvRKT_
FN:48,48,_ZN5boost9unit_test9ut_detail15throw_exceptionINS_7runtime18unrecognized_paramEEEvRKT_
FN:48,48,_ZN5boost9unit_test9ut_detail15throw_exceptionINS_7runtime26access_to_missing_argumentEEEvRKT_
FNDA:0,_ZN5boost9unit_test9ut_detail15throw_exceptionINS0_9framework11setup_errorEEEvRKT_
FNDA:0,_ZN5boost9unit_test9ut_detail15throw_exceptionINS0_9framework14internal_errorEEEvRKT_
FNDA:0,_ZN5boost9unit_test9ut_detail15throw_exceptionINS0_9framework15nothing_to_testEEEvRKT_
FNDA:0,_ZN5boost9unit_test9ut_detail15throw_exceptionINS_12system_errorEEEvRKT_
FNDA:0,_ZN5boost9unit_test9ut_detail15throw_exceptionINS_17execution_abortedEEEvRKT_
FNDA:0,_ZN5boost9unit_test9ut_detail15throw_exceptionINS_19execution_exceptionEEEvRKT_
FNDA:0,_ZN5boost9unit_test9ut_detail15throw_exceptionINS_3nfp10nfp_detail27access_to_invalid_parameterEEEvRKT_
FNDA:0,_ZN5boost9unit_test9ut_detail15throw_exceptionINS_6detail23system_signal_exceptionEEEvRKT_
FNDA:0,_ZN5boost9unit_test9ut_detail15throw_exceptionINS_7runtime12format_errorEEEvRKT_
FNDA:0,_ZN5boost9unit_test9ut_detail15throw_exceptionINS_7runtime13duplicate_argEEEvRKT_
FNDA:0,_ZN5boost9unit_test9ut_detail15throw_exceptionINS_7runtime14invalid_cla_idEEEvRKT_
FNDA:0,_ZN5boost9unit_test9ut_detail15throw_exceptionINS_7runtime15ambiguous_paramEEEvRKT_
FNDA:0,_ZN5boost9unit_test9ut_detail15throw_exceptionINS_7runtime15duplicate_paramEEEvRKT_
FNDA:0,_ZN5boost9unit_test9ut_detail15throw_exceptionINS_7runtime15missing_req_argEEEvRKT_
FNDA:0,_ZN5boost9unit_test9ut_detail15throw_exceptionINS_7runtime17arg_type_mismatchEEEvRKT_
FNDA:0,_ZN5boost9unit_test9ut_detail15throw_exceptionINS_7runtime17conflicting_paramEEEvRKT_
FNDA:0,_ZN5boost9unit_test9ut_detail15throw_exceptionINS_7runtime18invalid_param_specEEEvRKT_
FNDA:0,_ZN5boost9unit_test9ut_detail15throw_exceptionINS_7runtime18unrecognized_paramEEEvRKT_
FNDA:0,_ZN5boost9unit_test9ut_detail15throw_exceptionINS_7runtime26access_to_missing_argumentEEEvRKT_
FNF:19
FNH:0
DA:48,0
LF:1
LH:0
end_of_record
TN:
SF:/usr/include/boost/test/execution_monitor.hpp
FN:293,293,_ZNK5boost19execution_exception4codeEv
FN:295,295,_ZNK5boost19execution_exception4whatEv
FN:297,297,_ZNK5boost19execution_exception5whereEv
FNDA:0,_ZNK5boost19execution_exception4codeEv
FNDA:0,_ZNK5boost19execution_exception4whatEv
FNDA:0,_ZNK5boost19execution_exception5whereEv
FNF:3
FNH:0
DA:293,0
DA:295,0
DA:297,0
LF:3
LH:0
end_of_record
TN:
SF:/usr/include/boost/test/framework.hpp
FN:159,159,_ZN5boost9unit_test9framework17context_generatorC2Ev
FN:228,231,_ZN5boost9unit_test9framework3getINS0_10test_suiteEEERT_m
FN:228,231,_ZN5boost9unit_test9framework3getINS0_9test_caseEEERT_m
FN:228,231,_ZN5boost9unit_test9framework3getINS0_9test_unitEEERT_m
FN:279,279,_ZN5boost9unit_test9framework14internal_errorC2ENS0_13basic_cstringIKcEE
FN:286,286,_ZN5boost9unit_test9framework11setup_errorC2ENS0_13basic_cstringIKcEE
FN:294,294,_ZN5boost9unit_test9framework15nothing_to_testC2Ei
FNDA:8,_ZN5boost9unit_test9framework17context_generatorC2Ev
FNDA:4,_ZN5boost9unit_test9framework3getINS0_10test_suiteEEERT_m
FNDA:230,_ZN5boost9unit_test9framework3getINS0_9test_caseEEERT_m
FNDA:1,_ZN5boost9unit_test9framework3getINS0_9test_unitEEERT_m
FNDA:0,_ZN5boost9unit_test9framework14internal_errorC2ENS0_13basic_cstringIKcEE
FNDA:0,_ZN5boost9unit_test9framework11setup_errorC2ENS0_13basic_cstringIKcEE
FNDA:0,_ZN5boost9unit_test9framework15nothing_to_testC2Ei
FNF:7
FNH:4
DA:159,8
DA:228,235
DA:230,235
DA:279,0
DA:286,0
DA:294,0
LF:6
LH:3
end_of_record
TN:
SF:/usr/include/boost/test/impl/compiler_log_formatter.ipp
FN:108,125,_ZN5boost9unit_test6output22compiler_log_formatter16test_unit_finishERSoRKNS0_9test_unitEm
FN:130,137,_ZN5boost9unit_test6output22compiler_log_formatter17test_unit_skippedERSoRKNS0_9test_unitENS0_13basic_cstringIKcEE
FN:142,165,_ZN5boost9unit_test6output22compiler_log_formatter19log_exception_startERSoRKNS0_19log_checkpoint_dataERKNS_19execution_exceptionE
FN:170,173,_ZN5boost9unit_test6output22compiler_log_formatter20log_exception_finishERSo
FN:178,207,_ZN5boost9unit_test6output22compiler_log_formatter15log_entry_startERSoRKNS0_14log_entry_dataENS0_23unit_test_log_formatter15log_entry_typesE
FN:212,215,_ZN5boost9unit_test6output22compiler_log_formatter15log_entry_valueERSoNS0_13basic_cstringIKcEE
FN:220,223,_ZN5boost9unit_test6output22compiler_log_formatter15log_entry_valueERSoRKNS0_12lazy_ostreamE
FN:228,234,_ZN5boost9unit_test6output22compiler_log_formatter16log_entry_finishERSo
FN:240,251,_ZN5boost9unit_test6output22compiler_log_formatter12print_prefixERSoNS0_13basic_cstringIKcEEm
FN:256,264,_ZN5boost9unit_test6output22compiler_log_formatter19entry_context_startERSoNS0_9log_levelE
FN:269,275,_ZN5boost9unit_test6output22compiler_log_formatter20entry_context_finishERSoNS0_9log_levelE
FN:280,283,_ZN5boost9unit_test6output22compiler_log_formatter17log_entry_contextERSoNS0_9log_levelENS0_13basic_cstringIKcEE
FN:51,54,_ZN5boost9unit_test6output12_GLOBAL__N_121test_phase_identifierEv
FN:61,68,_ZN5boost9unit_test6output22compiler_log_formatter9log_startERSom
FN:73,76,_ZN5boost9unit_test6output22compiler_log_formatter10log_finishERSo
FN:81,91,_ZN5boost9unit_test6output22compiler_log_formatter14log_build_infoERSob
FN:96,103,_ZN5boost9unit_test6output22compiler_log_formatter15test_unit_startERSoRKNS0_9test_unitE
FNDA:47,_ZN5boost9unit_test6output22compiler_log_formatter16test_unit_finishERSoRKNS0_9test_unitEm
FNDA:0,_ZN5boost9unit_test6output22compiler_log_formatter17test_unit_skippedERSoRKNS0_9test_unitENS0_13basic_cstringIKcEE
FNDA:0,_ZN5boost9unit_test6output22compiler_log_formatter19log_exception_startERSoRKNS0_19log_checkpoint_dataERKNS_19execution_exceptionE
FNDA:0,_ZN5boost9unit_test6output22compiler_log_formatter20log_exception_finishERSo
FNDA:8,_ZN5boost9unit_test6output22compiler_log_formatter15log_entry_startERSoRKNS0_14log_entry_dataENS0_23unit_test_log_formatter15log_entry_typesE
FNDA:0,_ZN5boost9unit_test6output22compiler_log_formatter15log_entry_valueERSoNS0_13basic_cstringIKcEE
FNDA:8,_ZN5boost9unit_test6output22compiler_log_formatter15log_entry_valueERSoRKNS0_12lazy_ostreamE
FNDA:8,_ZN5boost9unit_test6output22compiler_log_formatter16log_entry_finishERSo
FNDA:94,_ZN5boost9unit_test6output22compiler_log_formatter12print_prefixERSoNS0_13basic_cstringIKcEEm
FNDA:0,_ZN5boost9unit_test6output22compiler_log_formatter19entry_context_startERSoNS0_9log_levelE
FNDA:0,_ZN5boost9unit_test6output22compiler_log_formatter20entry_context_finishERSoNS0_9log_levelE
FNDA:0,_ZN5boost9unit_test6output22compiler_log_formatter17log_entry_contextERSoNS0_9log_levelENS0_13basic_cstringIKcEE
FNDA:0,_ZN5boost9unit_test6output12_GLOBAL__N_121test_phase_identifierEv
FNDA:1,_ZN5boost9unit_test6output22compiler_log_formatter9log_startERSom
FNDA:1,_ZN5boost9unit_test6output22compiler_log_formatter10log_finishERSo
FNDA:1,_ZN5boost9unit_test6output22compiler_log_formatter14log_build_infoERSob
FNDA:47,_ZN5boost9unit_test6output22compiler_log_formatter15test_unit_startERSoRKNS0_9test_unitE
FNF:17
FNH:9
DA:51,0
DA:53,0
DA:61,1
DA:63,1
DA:65,1
DA:66,1
DA:67,1
DA:68,1
DA:73,1
DA:75,1
DA:76,1
DA:81,1
DA:83,1
DA:87,0
DA:88,0
DA:89,0
DA:91,1
DA:96,47
DA:98,47
DA:100,47
DA:102,47
DA:103,47
DA:108,47
DA:110,47
DA:112,47
DA:114,47
DA:116,47
DA:117,47
DA:118,47
DA:119,0
DA:121,47
DA:124,47
DA:125,47
DA:130,0
DA:132,0
DA:134,0
DA:136,0
DA:137,0
DA:142,0
DA:144,0
DA:146,0
DA:149,0
DA:151,0
DA:152,0
DA:153,0
DA:155,0
DA:156,0
DA:157,0
DA:159,0
DA:161,0
DA:162,0
DA:163,0
DA:164,0
DA:165,0
DA:170,0
DA:172,0
DA:173,0
DA:178,8
DA:182,8
DA:183,0
DA:184,0
DA:185,0
DA:186,0
DA:187,0
DA:188,8
DA:189,8
DA:190,8
DA:191,0
DA:192,0
DA:193,0
DA:194,0
DA:195,0
DA:196,0
DA:197,0
DA:198,0
DA:199,0
DA:200,0
DA:201,0
DA:202,0
DA:203,0
DA:204,0
DA:205,0
DA:207,8
DA:212,0
DA:214,0
DA:215,0
DA:220,8
DA:222,8
DA:223,8
DA:228,8
DA:230,8
DA:231,8
DA:233,8
DA:234,8
DA:240,94
DA:242,94
DA:248,92
DA:251,94
DA:256,0
DA:258,0
DA:259,0
DA:262,0
DA:264,0
DA:269,0
DA:271,0
DA:272,0
DA:274,0
DA:275,0
DA:280,0
DA:282,0
DA:283,0
LF:111
LH:45
end_of_record
TN:
SF:/usr/include/boost/test/impl/debug.ipp
FN:1034,1043,_ZN5boost5debug18break_memory_allocEl
FN:182,182,_ZN5boost5debug12_GLOBAL__N_19fd_holderC2Ei
FN:183,187,_ZN5boost5debug12_GLOBAL__N_19fd_holderD2Ev
FN:189,189,_ZN5boost5debug12_GLOBAL__N_19fd_holdercviEv
FN:206,206,_ZNK5boost5debug12_GLOBAL__N_112process_info10parent_pidEv
FN:207,207,_ZNK5boost5debug12_GLOBAL__N_112process_info11binary_nameEv
FN:208,208,_ZNK5boost5debug12_GLOBAL__N_112process_info11binary_pathEv
FN:227,303,_ZN5boost5debug12_GLOBAL__N_112process_infoC2Ei
FN:312,331,_ZN5boost5debug12_GLOBAL__N_1L20prepare_window_titleERKNS0_16dbg_startup_infoE
FN:342,354,_ZN5boost5debug12_GLOBAL__N_18copy_argERNS_9unit_test13basic_cstringIcEENS3_IKcEE
FN:359,398,_ZN5boost5debug12_GLOBAL__N_111safe_execlpEPKcz
FN:407,417,_ZN5boost5debug12_GLOBAL__N_1L23start_debugger_in_emacsERKNS0_16dbg_startup_infoEPKcS6_
FN:426,463,_ZN5boost5debug12_GLOBAL__N_1L21prepare_gdb_cmnd_fileERKNS0_16dbg_startup_infoE
FN:468,476,_ZN5boost5debug12_GLOBAL__N_1L20start_gdb_in_consoleERKNS0_16dbg_startup_infoE
FN:481,492,_ZN5boost5debug12_GLOBAL__N_1L18start_gdb_in_xtermERKNS0_16dbg_startup_infoE
FN:497,507,_ZN5boost5debug12_GLOBAL__N_1L18start_gdb_in_emacsERKNS0_16dbg_startup_infoE
FN:512,515,_ZN5boost5debug12_GLOBAL__N_1L19start_gdb_in_xemacsERKNS0_16dbg_startup_infoE
FN:524,534,_ZN5boost5debug12_GLOBAL__N_1L20prepare_dbx_cmd_lineERKNS0_16dbg_startup_infoEb
FN:539,545,_ZN5boost5debug12_GLOBAL__N_1L20start_dbx_in_consoleERKNS0_16dbg_startup_infoE
FN:550,562,_ZN5boost5debug12_GLOBAL__N_1L18start_dbx_in_xtermERKNS0_16dbg_startup_infoE
FN:567,574,_ZN5boost5debug12_GLOBAL__N_1L18start_dbx_in_emacsERKNS0_16dbg_startup_infoE
FN:579,582,_ZN5boost5debug12_GLOBAL__N_1L19start_dbx_in_xemacsERKNS0_16dbg_startup_infoE
FN:587,598,_ZN5boost5debug12_GLOBAL__N_1L16start_dbx_in_dddERKNS0_16dbg_startup_infoE
FN:619,635,_ZN5boost5debug12_GLOBAL__N_16info_tC2Ev
FN:648,706,_ZN5boost5debug14under_debuggerEv
FN:716,758,_ZN5boost5debug14debugger_breakEv
FN:769,779,_ZN5boost5debug12set_debuggerB5cxx11ENS_9unit_test13basic_cstringIKcEENS_8functionIFvRKNS0_16dbg_startup_infoEEEE
FN:821,989,_ZN5boost5debug15attach_debuggerEb
FN:998,1024,_ZN5boost5debug19detect_memory_leaksEbNS_9unit_test13basic_cstringIKcEE
FNDA:1,_ZN5boost5debug18break_memory_allocEl
FNDA:300,_ZN5boost5debug12_GLOBAL__N_19fd_holderC2Ei
FNDA:300,_ZN5boost5debug12_GLOBAL__N_19fd_holderD2Ev
FNDA:600,_ZN5boost5debug12_GLOBAL__N_19fd_holdercviEv
FNDA:600,_ZNK5boost5debug12_GLOBAL__N_112process_info10parent_pidEv
FNDA:300,_ZNK5boost5debug12_GLOBAL__N_112process_info11binary_nameEv
FNDA:0,_ZNK5boost5debug12_GLOBAL__N_112process_info11binary_pathEv
FNDA:300,_ZN5boost5debug12_GLOBAL__N_112process_infoC2Ei
FNDA:0,_ZN5boost5debug12_GLOBAL__N_1L20prepare_window_titleERKNS0_16dbg_startup_infoE
FNDA:0,_ZN5boost5debug12_GLOBAL__N_18copy_argERNS_9unit_test13basic_cstringIcEENS3_IKcEE
FNDA:0,_ZN5boost5debug12_GLOBAL__N_111safe_execlpEPKcz
FNDA:0,_ZN5boost5debug12_GLOBAL__N_1L23start_debugger_in_emacsERKNS0_16dbg_startup_infoEPKcS6_
FNDA:0,_ZN5boost5debug12_GLOBAL__N_1L21prepare_gdb_cmnd_fileERKNS0_16dbg_startup_infoE
FNDA:0,_ZN5boost5debug12_GLOBAL__N_1L20start_gdb_in_consoleERKNS0_16dbg_startup_infoE
FNDA:0,_ZN5boost5debug12_GLOBAL__N_1L18start_gdb_in_xtermERKNS0_16dbg_startup_infoE
FNDA:0,_ZN5boost5debug12_GLOBAL__N_1L18start_gdb_in_emacsERKNS0_16dbg_startup_infoE
FNDA:0,_ZN5boost5debug12_GLOBAL__N_1L19start_gdb_in_xemacsERKNS0_16dbg_startup_infoE
FNDA:0,_ZN5boost5debug12_GLOBAL__N_1L20prepare_dbx_cmd_lineERKNS0_16dbg_startup_infoEb
FNDA:0,_ZN5boost5debug12_GLOBAL__N_1L20start_dbx_in_consoleERKNS0_16dbg_startup_infoE
FNDA:0,_ZN5boost5debug12_GLOBAL__N_1L18start_dbx_in_xtermERKNS0_16dbg_startup_infoE
FNDA:0,_ZN5boost5debug12_GLOBAL__N_1L18start_dbx_in_emacsERKNS0_16dbg_startup_infoE
FNDA:0,_ZN5boost5debug12_GLOBAL__N_1L19start_dbx_in_xemacsERKNS0_16dbg_startup_infoE
FNDA:0,_ZN5boost5debug12_GLOBAL__N_1L16start_dbx_in_dddERKNS0_16dbg_startup_infoE
FNDA:1,_ZN5boost5debug12_GLOBAL__N_16info_tC2Ev
FNDA:50,_ZN5boost5debug14under_debuggerEv
FNDA:0,_ZN5boost5debug14debugger_breakEv
FNDA:0,_ZN5boost5debug12set_debuggerB5cxx11ENS_9unit_test13basic_cstringIKcEENS_8functionIFvRKNS0_16dbg_startup_infoEEEE
FNDA:0,_ZN5boost5debug15attach_debuggerEb
FNDA:1,_ZN5boost5debug19detect_memory_leaksEbNS_9unit_test13basic_cstringIKcEE
FNF:29
FNH:10
DA:182,300
DA:183,300
DA:185,300
DA:186,300
DA:187,300
DA:189,600
DA:206,600
DA:207,300
DA:208,0
DA:227,300
DA:228,300
DA:267,300
DA:269,300
DA:271,300
DA:272,0
DA:274,300
DA:275,300
DA:276,0
DA:278,300
DA:280,300
DA:281,1750
DA:282,1450
DA:284,300
DA:285,2700
DA:286,2400
DA:288,300
DA:290,300
DA:292,300
DA:293,300
DA:295,300
DA:296,100
DA:298,200
DA:299,200
DA:303,300
DA:312,0
DA:318,0
DA:320,0
DA:323,0
DA:324,0
DA:326,0
DA:328,0
DA:330,0
DA:342,0
DA:344,0
DA:345,0
DA:347,0
DA:349,0
DA:351,0
DA:353,0
DA:359,0
DA:367,0
DA:369,0
DA:370,0
DA:371,0
DA:372,0
DA:375,0
DA:376,0
DA:377,0
DA:380,0
DA:381,0
DA:383,0
DA:385,0
DA:386,0
DA:387,0
DA:388,0
DA:389,0
DA:390,0
DA:393,0
DA:395,0
DA:397,0
DA:407,0
DA:409,0
DA:411,0
DA:412,0
DA:414,0
DA:415,0
DA:416,0
DA:426,0
DA:430,0
DA:431,0
DA:436,0
DA:437,0
DA:438,0
DA:440,0
DA:441,0
DA:446,0
DA:447,0
DA:448,0
DA:449,0
DA:450,0
DA:451,0
DA:452,0
DA:453,0
DA:454,0
DA:456,0
DA:457,0
DA:458,0
DA:459,0
DA:460,0
DA:462,0
DA:463,0
DA:468,0
DA:470,0
DA:472,0
DA:473,0
DA:475,0
DA:481,0
DA:483,0
DA:484,0
DA:486,0
DA:487,0
DA:489,0
DA:497,0
DA:499,0
DA:500,0
DA:501,0
DA:504,0
DA:506,0
DA:512,0
DA:515,0
DA:524,0
DA:528,0
DA:530,0
DA:533,0
DA:539,0
DA:542,0
DA:544,0
DA:545,0
DA:550,0
DA:552,0
DA:553,0
DA:554,0
DA:557,0
DA:559,0
DA:567,0
DA:574,0
DA:579,0
DA:582,0
DA:587,0
DA:589,0
DA:590,0
DA:591,0
DA:594,0
DA:596,0
DA:619,1
DA:621,1
DA:622,4
DA:623,1
DA:625,2
DA:626,2
DA:627,2
DA:628,2
DA:630,2
DA:631,2
DA:632,2
DA:633,2
DA:634,1
DA:635,1
DA:648,50
DA:657,50
DA:659,50
DA:661,350
DA:662,300
DA:665,300
DA:666,0
DA:668,300
DA:671,50
DA:716,0
DA:753,0
DA:758,0
DA:769,0
DA:771,0
DA:773,0
DA:775,0
DA:776,0
DA:778,0
DA:779,0
DA:821,0
DA:823,0
DA:824,0
DA:933,0
DA:934,0
DA:935,0
DA:936,0
DA:938,0
DA:939,0
DA:941,0
DA:943,0
DA:944,0
DA:946,0
DA:947,0
DA:949,0
DA:950,0
DA:951,0
DA:953,0
DA:954,0
DA:955,0
DA:956,0
DA:957,0
DA:959,0
DA:960,0
DA:961,0
DA:963,0
DA:965,0
DA:966,0
DA:970,0
DA:971,0
DA:973,0
DA:979,0
DA:980,0
DA:982,0
DA:989,0
DA:998,1
DA:1024,1
DA:1034,1
DA:1043,1
LF:216
LH:57
end_of_record
TN:
SF:/usr/include/boost/test/impl/decorator.ipp
FN:106,111,_ZNK5boost9unit_test9decorator15stack_decoratordeEv
FN:114,117,_ZN5boost9unit_test9decorator15stack_decorator5applyERNS0_9test_unitE
FN:124,127,_ZN5boost9unit_test9decorator5label5applyERNS0_9test_unitE
FN:136,139,_ZN5boost9unit_test9decorator17expected_failures5applyERNS0_9test_unitE
FN:148,151,_ZN5boost9unit_test9decorator7timeout5applyERNS0_9test_unitE
FN:160,163,_ZN5boost9unit_test9decorator11description5applyERNS0_9test_unitE
FN:172,194,_ZN5boost9unit_test9decorator10depends_on5applyERNS0_9test_unitE
FN:203,210,_ZN5boost9unit_test9decorator14enable_if_impl10apply_implERNS0_9test_unitEb
FN:219,222,_ZN5boost9unit_test9decorator9fixture_t5applyERNS0_9test_unitE
FN:231,234,_ZN5boost9unit_test9decorator12precondition5applyERNS0_9test_unitE
FN:38,38,_ZN5boost9unit_test9decorator11collector_t8instanceEv
FN:42,47,_ZN5boost9unit_test9decorator11collector_tmlERKNS1_4baseE
FN:52,58,_ZN5boost9unit_test9decorator11collector_t8store_inERNS0_9test_unitE
FN:63,72,_ZN5boost9unit_test9decorator11collector_t5resetEv
FN:75,79,_ZN5boost9unit_test9decorator11collector_t5stackEv
FN:84,87,_ZNK5boost9unit_test9decorator11collector_t19get_lazy_decoratorsEv
FN:96,99,_ZNK5boost9unit_test9decorator4basedeEv
FNDA:0,_ZNK5boost9unit_test9decorator15stack_decoratordeEv
FNDA:0,_ZN5boost9unit_test9decorator15stack_decorator5applyERNS0_9test_unitE
FNDA:0,_ZN5boost9unit_test9decorator5label5applyERNS0_9test_unitE
FNDA:0,_ZN5boost9unit_test9decorator17expected_failures5applyERNS0_9test_unitE
FNDA:0,_ZN5boost9unit_test9decorator7timeout5applyERNS0_9test_unitE
FNDA:0,_ZN5boost9unit_test9decorator11description5applyERNS0_9test_unitE
FNDA:0,_ZN5boost9unit_test9decorator10depends_on5applyERNS0_9test_unitE
FNDA:0,_ZN5boost9unit_test9decorator14enable_if_impl10apply_implERNS0_9test_unitEb
FNDA:0,_ZN5boost9unit_test9decorator9fixture_t5applyERNS0_9test_unitE
FNDA:0,_ZN5boost9unit_test9decorator12precondition5applyERNS0_9test_unitE
FNDA:46,_ZN5boost9unit_test9decorator11collector_t8instanceEv
FNDA:0,_ZN5boost9unit_test9decorator11collector_tmlERKNS1_4baseE
FNDA:46,_ZN5boost9unit_test9decorator11collector_t8store_inERNS0_9test_unitE
FNDA:46,_ZN5boost9unit_test9decorator11collector_t5resetEv
FNDA:0,_ZN5boost9unit_test9decorator11collector_t5stackEv
FNDA:0,_ZNK5boost9unit_test9decorator11collector_t19get_lazy_decoratorsEv
FNDA:0,_ZNK5boost9unit_test9decorator4basedeEv
FNF:17
FNH:3
DA:38,46
DA:42,0
DA:44,0
DA:46,0
DA:52,46
DA:54,138
DA:55,46
DA:56,46
DA:57,46
DA:58,46
DA:63,46
DA:65,46
DA:66,0
DA:69,46
DA:70,46
DA:72,46
DA:75,0
DA:77,0
DA:78,0
DA:79,0
DA:84,0
DA:86,0
DA:96,0
DA:98,0
DA:106,0
DA:108,0
DA:109,0
DA:110,0
DA:114,0
DA:117,0
DA:124,0
DA:126,0
DA:127,0
DA:136,0
DA:138,0
DA:139,0
DA:148,0
DA:150,0
DA:151,0
DA:160,0
DA:162,0
DA:163,0
DA:172,0
DA:177,0
DA:179,0
DA:180,0
DA:181,0
DA:183,0
DA:185,0
DA:188,0
DA:189,0
DA:192,0
DA:194,0
DA:203,0
DA:205,0
DA:209,0
DA:210,0
DA:219,0
DA:221,0
DA:222,0
DA:231,0
DA:233,0
DA:234,0
LF:63
LH:12
end_of_record
TN:
SF:/usr/include/boost/test/impl/execution_monitor.ipp
FN:1288,1294,_ZN5boost17execution_monitorC2Ev
FN:1299,1386,_ZN5boost17execution_monitor7executeERKNS_8functionIFivEEE
FN:1393,1393,_ZN5boost6detail7forwardC2ERKNS_8functionIFvvEEE
FN:1395,1395,_ZN5boost6detail7forwardclEv
FN:1402,1405,_ZN5boost17execution_monitor8vexecuteERKNS_8functionIFvvEEE
FN:1411,1418,_ZN5boost12system_errorC2EPKc
FN:1426,1430,_ZN5boost19execution_exceptionC2ENS0_10error_codeENS_9unit_test13basic_cstringIKcEERKNS0_8locationE
FN:1434,1438,_ZN5boost19execution_exception8locationC2EPKcmS3_
FN:1440,1444,_ZN5boost19execution_exception8locationC2ENS_9unit_test13basic_cstringIKcEEmPS4_
FN:1455,1487,_ZN5boost3fpe6enableEj
FN:1492,1523,_ZN5boost3fpe7disableEj
FN:247,255,_ZN5boost6detail7extractINS_10error_infoINS_11throw_file_EPKcEEEENT_10value_typeEPKNS_9exceptionE
FN:247,255,_ZN5boost6detail7extractINS_10error_infoINS_11throw_line_EiEEEENT_10value_typeEPKNS_9exceptionE
FN:247,255,_ZN5boost6detail7extractINS_10error_infoINS_15throw_function_EPKcEEEENT_10value_typeEPKNS_9exceptionE
FN:261,274,_ZN5boost6detailL12report_errorENS_19execution_exception10error_codeEPKNS_9exceptionEPKcPA1_13__va_list_tag
FN:280,286,_ZN5boost6detailL12report_errorENS_19execution_exception10error_codeEPKNS_9exceptionEPKcz
FN:294,300,_ZN5boost6detailL12report_errorENS_19execution_exception10error_codeEPKcz
FN:306,309,_ZN5boost6detail9do_invokeINS_10shared_ptrINS0_22translator_holder_baseEEENS_8functionIFivEEEEEiRKT_RKT0_
FN:314,321,_ZN5boost6detail16fpe_except_guardC2Ej
FN:322,328,_ZN5boost6detail16fpe_except_guardD2Ev
FN:342,345,_ZN5boost6detail11typeid_nameISt10bad_typeidEENSt7__cxx1112basic_stringIcSt11char_traitsIcESaIcEEERKT_
FN:342,345,_ZN5boost6detail11typeid_nameISt11logic_errorEENSt7__cxx1112basic_stringIcSt11char_traitsIcESaIcEEERKT_
FN:342,345,_ZN5boost6detail11typeid_nameISt11range_errorEENSt7__cxx1112basic_stringIcSt11char_traitsIcESaIcEEERKT_
FN:342,345,_ZN5boost6detail11typeid_nameISt12domain_errorEENSt7__cxx1112basic_stringIcSt11char_traitsIcESaIcEEERKT_
FN:342,345,_ZN5boost6detail11typeid_nameISt12length_errorEENSt7__cxx1112basic_stringIcSt11char_traitsIcESaIcEEERKT_
FN:342,345,_ZN5boost6detail11typeid_nameISt12out_of_rangeEENSt7__cxx1112basic_stringIcSt11char_traitsIcESaIcEEERKT_
FN:342,345,_ZN5boost6detail11typeid_nameISt13bad_exceptionEENSt7__cxx1112basic_stringIcSt11char_traitsIcESaIcEEERKT_
FN:342,345,_ZN5boost6detail11typeid_nameISt13runtime_errorEENSt7__cxx1112basic_stringIcSt11char_traitsIcESaIcEEERKT_
FN:342,345,_ZN5boost6detail11typeid_nameISt14overflow_errorEENSt7__cxx1112basic_stringIcSt11char_traitsIcESaIcEEERKT_
FN:342,345,_ZN5boost6detail11typeid_nameISt15underflow_errorEENSt7__cxx1112basic_stringIcSt11char_traitsIcESaIcEEERKT_
FN:342,345,_ZN5boost6detail11typeid_nameISt16invalid_argumentEENSt7__cxx1112basic_stringIcSt11char_traitsIcESaIcEEERKT_
FN:342,345,_ZN5boost6detail11typeid_nameISt8bad_castEENSt7__cxx1112basic_stringIcSt11char_traitsIcESaIcEEERKT_
FN:342,345,_ZN5boost6detail11typeid_nameISt9bad_allocEENSt7__cxx1112basic_stringIcSt11char_traitsIcESaIcEEERKT_
FN:342,345,_ZN5boost6detail11typeid_nameISt9exceptionEENSt7__cxx1112basic_stringIcSt11char_traitsIcESaIcEEERKT_
FN:365,368,_ZN5boost6detail23system_signal_exceptionC2Ev
FN:371,375,_ZN5boost6detail23system_signal_exceptionclEP9siginfo_tPv
FN:387,643,_ZNK5boost6detail23system_signal_exception6reportEv
FN:675,677,_ZN5boost6detail13signal_actionC2Ev
FN:681,708,_ZN5boost6detail13signal_actionC2EibbPc
FN:712,716,_ZN5boost6detail13signal_actionD2Ev
FN:737,742,_ZN5boost6detail14signal_handler11jump_bufferEv
FN:744,749,_ZN5boost6detail14signal_handler7sys_sigEv
FN:778,817,_ZN5boost6detail14signal_handlerC2EbbmbPc
FN:821,849,_ZN5boost6detail14signal_handlerD2Ev
FN:859,864,boost_execution_monitor_jumping_signal_handler
FN:868,875,boost_execution_monitor_attaching_signal_handler
FN:888,913,_ZN5boost17execution_monitor13catch_signalsERKNS_8functionIFivEEE
FNDA:2,_ZN5boost17execution_monitorC2Ev
FNDA:50,_ZN5boost17execution_monitor7executeERKNS_8functionIFivEEE
FNDA:50,_ZN5boost6detail7forwardC2ERKNS_8functionIFvvEEE
FNDA:50,_ZN5boost6detail7forwardclEv
FNDA:50,_ZN5boost17execution_monitor8vexecuteERKNS_8functionIFvvEEE
FNDA:0,_ZN5boost12system_errorC2EPKc
FNDA:0,_ZN5boost19execution_exceptionC2ENS0_10error_codeENS_9unit_test13basic_cstringIKcEERKNS0_8locationE
FNDA:0,_ZN5boost19execution_exception8locationC2EPKcmS3_
FNDA:0,_ZN5boost19execution_exception8locationC2ENS_9unit_test13basic_cstringIKcEEmPS4_
FNDA:50,_ZN5boost3fpe6enableEj
FNDA:50,_ZN5boost3fpe7disableEj
FNDA:0,_ZN5boost6detail7extractINS_10error_infoINS_11throw_file_EPKcEEEENT_10value_typeEPKNS_9exceptionE
FNDA:0,_ZN5boost6detail7extractINS_10error_infoINS_11throw_line_EiEEEENT_10value_typeEPKNS_9exceptionE
FNDA:0,_ZN5boost6detail7extractINS_10error_infoINS_15throw_function_EPKcEEEENT_10value_typeEPKNS_9exceptionE
FNDA:0,_ZN5boost6detailL12report_errorENS_19execution_exception10error_codeEPKNS_9exceptionEPKcPA1_13__va_list_tag
FNDA:0,_ZN5boost6detailL12report_errorENS_19execution_exception10error_codeEPKNS_9exceptionEPKcz
FNDA:0,_ZN5boost6detailL12report_errorENS_19execution_exception10error_codeEPKcz
FNDA:50,_ZN5boost6detail9do_invokeINS_10shared_ptrINS0_22translator_holder_baseEEENS_8functionIFivEEEEEiRKT_RKT0_
FNDA:50,_ZN5boost6detail16fpe_except_guardC2Ej
FNDA:50,_ZN5boost6detail16fpe_except_guardD2Ev
FNDA:0,_ZN5boost6detail11typeid_nameISt10bad_typeidEENSt7__cxx1112basic_stringIcSt11char_traitsIcESaIcEEERKT_
FNDA:0,_ZN5boost6detail11typeid_nameISt11logic_errorEENSt7__cxx1112basic_stringIcSt11char_traitsIcESaIcEEERKT_
FNDA:0,_ZN5boost6detail11typeid_nameISt11range_errorEENSt7__cxx1112basic_stringIcSt11char_traitsIcESaIcEEERKT_
FNDA:0,_ZN5boost6detail11typeid_nameISt12domain_errorEENSt7__cxx1112basic_stringIcSt11char_traitsIcESaIcEEERKT_
FNDA:0,_ZN5boost6detail11typeid_nameISt12length_errorEENSt7__cxx1112basic_stringIcSt11char_traitsIcESaIcEEERKT_
FNDA:0,_ZN5boost6detail11typeid_nameISt12out_of_rangeEENSt7__cxx1112basic_stringIcSt11char_traitsIcESaIcEEERKT_
FNDA:0,_ZN5boost6detail11typeid_nameISt13bad_exceptionEENSt7__cxx1112basic_stringIcSt11char_traitsIcESaIcEEERKT_
FNDA:0,_ZN5boost6detail11typeid_nameISt13runtime_errorEENSt7__cxx1112basic_stringIcSt11char_traitsIcESaIcEEERKT_
FNDA:0,_ZN5boost6detail11typeid_nameISt14overflow_errorEENSt7__cxx1112basic_stringIcSt11char_traitsIcESaIcEEERKT_
FNDA:0,_ZN5boost6detail11typeid_nameISt15underflow_errorEENSt7__cxx1112basic_stringIcSt11char_traitsIcESaIcEEERKT_
FNDA:0,_ZN5boost6detail11typeid_nameISt16invalid_argumentEENSt7__cxx1112basic_stringIcSt11char_traitsIcESaIcEEERKT_
FNDA:0,_ZN5boost6detail11typeid_nameISt8bad_castEENSt7__cxx1112basic_stringIcSt11char_traitsIcESaIcEEERKT_
FNDA:0,_ZN5boost6detail11typeid_nameISt9bad_allocEENSt7__cxx1112basic_stringIcSt11char_traitsIcESaIcEEERKT_
FNDA:0,_ZN5boost6detail11typeid_nameISt9exceptionEENSt7__cxx1112basic_stringIcSt11char_traitsIcESaIcEEERKT_
FNDA:50,_ZN5boost6detail23system_signal_exceptionC2Ev
FNDA:0,_ZN5boost6detail23system_signal_exceptionclEP9siginfo_tPv
FNDA:0,_ZNK5boost6detail23system_signal_exception6reportEv
FNDA:50,_ZN5boost6detail13signal_actionC2Ev
FNDA:350,_ZN5boost6detail13signal_actionC2EibbPc
FNDA:400,_ZN5boost6detail13signal_actionD2Ev
FNDA:50,_ZN5boost6detail14signal_handler11jump_bufferEv
FNDA:0,_ZN5boost6detail14signal_handler7sys_sigEv
FNDA:50,_ZN5boost6detail14signal_handlerC2EbbmbPc
FNDA:50,_ZN5boost6detail14signal_handlerD2Ev
FNDA:0,boost_execution_monitor_jumping_signal_handler
FNDA:0,boost_execution_monitor_attaching_signal_handler
FNDA:50,_ZN5boost17execution_monitor13catch_signalsERKNS_8functionIFivEEE
FNF:47
FNH:18
DA:247,0
DA:249,0
DA:250,0
DA:252,0
DA:254,0
DA:261,0
DA:266,0
DA:267,0
DA:269,0
DA:271,0
DA:280,0
DA:283,0
DA:285,0
DA:286,0
DA:294,0
DA:297,0
DA:299,0
DA:300,0
DA:306,50
DA:308,50
DA:314,50
DA:315,50
DA:318,50
DA:319,50
DA:320,0
DA:321,50
DA:322,50
DA:324,50
DA:325,0
DA:326,50
DA:327,50
DA:328,50
DA:342,0
DA:344,0
DA:365,50
DA:366,50
DA:367,50
DA:368,50
DA:371,0
DA:373,0
DA:374,0
DA:375,0
DA:387,0
DA:389,0
DA:390,0
DA:392,0
DA:398,0
DA:399,0
DA:401,0
DA:402,0
DA:404,0
DA:405,0
DA:407,0
DA:408,0
DA:409,0
DA:411,0
DA:414,0
DA:415,0
DA:417,0
DA:420,0
DA:421,0
DA:423,0
DA:425,0
DA:426,0
DA:429,0
DA:430,0
DA:431,0
DA:433,0
DA:434,0
DA:436,0
DA:437,0
DA:438,0
DA:439,0
DA:441,0
DA:442,0
DA:443,0
DA:444,0
DA:446,0
DA:447,0
DA:448,0
DA:449,0
DA:451,0
DA:452,0
DA:454,0
DA:455,0
DA:457,0
DA:458,0
DA:459,0
DA:460,0
DA:462,0
DA:463,0
DA:464,0
DA:465,0
DA:467,0
DA:468,0
DA:469,0
DA:470,0
DA:472,0
DA:473,0
DA:474,0
DA:475,0
DA:477,0
DA:478,0
DA:480,0
DA:482,0
DA:483,0
DA:484,0
DA:485,0
DA:487,0
DA:488,0
DA:489,0
DA:490,0
DA:492,0
DA:493,0
DA:494,0
DA:495,0
DA:497,0
DA:498,0
DA:499,0
DA:500,0
DA:502,0
DA:503,0
DA:504,0
DA:505,0
DA:507,0
DA:508,0
DA:509,0
DA:510,0
DA:512,0
DA:513,0
DA:514,0
DA:515,0
DA:517,0
DA:518,0
DA:519,0
DA:520,0
DA:522,0
DA:523,0
DA:524,0
DA:525,0
DA:527,0
DA:528,0
DA:530,0
DA:532,0
DA:533,0
DA:535,0
DA:536,0
DA:538,0
DA:539,0
DA:540,0
DA:541,0
DA:543,0
DA:544,0
DA:546,0
DA:547,0
DA:549,0
DA:550,0
DA:552,0
DA:554,0
DA:555,0
DA:557,0
DA:558,0
DA:560,0
DA:561,0
DA:562,0
DA:563,0
DA:565,0
DA:566,0
DA:567,0
DA:568,0
DA:570,0
DA:571,0
DA:573,0
DA:574,0
DA:576,0
DA:577,0
DA:579,0
DA:583,0
DA:584,0
DA:586,0
DA:587,0
DA:589,0
DA:590,0
DA:591,0
DA:592,0
DA:594,0
DA:595,0
DA:596,0
DA:597,0
DA:599,0
DA:600,0
DA:601,0
DA:602,0
DA:604,0
DA:605,0
DA:606,0
DA:607,0
DA:609,0
DA:610,0
DA:619,0
DA:620,0
DA:622,0
DA:623,0
DA:625,0
DA:629,0
DA:630,0
DA:632,0
DA:634,0
DA:635,0
DA:637,0
DA:639,0
DA:640,0
DA:641,0
DA:675,50
DA:676,50
DA:677,50
DA:681,350
DA:682,350
DA:683,350
DA:685,350
DA:686,50
DA:688,300
DA:690,300
DA:692,300
DA:693,0
DA:694,0
DA:697,300
DA:698,300
DA:700,300
DA:703,300
DA:704,300
DA:707,300
DA:712,400
DA:714,400
DA:715,300
DA:716,400
DA:737,50
DA:739,50
DA:741,50
DA:744,0
DA:746,0
DA:748,0
DA:778,50
DA:782,50
DA:783,50
DA:784,50
DA:785,50
DA:786,50
DA:787,50
DA:788,50
DA:790,50
DA:792,50
DA:793,100
DA:795,50
DA:797,50
DA:798,0
DA:799,0
DA:803,50
DA:805,50
DA:807,50
DA:809,50
DA:810,50
DA:811,50
DA:812,50
DA:813,50
DA:817,50
DA:821,50
DA:823,50
DA:825,50
DA:826,0
DA:833,50
DA:838,50
DA:839,50
DA:840,50
DA:841,0
DA:842,0
DA:843,0
DA:844,0
DA:848,50
DA:849,50
DA:859,0
DA:861,0
DA:863,0
DA:868,0
DA:870,0
DA:871,0
DA:874,0
DA:875,0
DA:888,50
DA:897,50
DA:898,2
DA:904,50
DA:907,100
DA:909,50
DA:910,100
DA:912,0
DA:913,50
DA:1288,2
DA:1289,2
DA:1290,2
DA:1291,2
DA:1292,2
DA:1293,2
DA:1294,2
DA:1299,50
DA:1301,50
DA:1302,0
DA:1305,50
DA:1308,50
DA:1309,50
DA:1318,0
DA:1319,0
DA:1320,0
DA:1321,0
DA:1322,0
DA:1323,0
DA:1326,0
DA:1327,0
DA:1329,0
DA:1348,0
DA:1349,0
DA:1350,0
DA:1351,0
DA:1352,0
DA:1353,0
DA:1354,0
DA:1355,0
DA:1356,0
DA:1357,0
DA:1358,0
DA:1359,0
DA:1360,0
DA:1361,0
DA:1365,0
DA:1366,0
DA:1367,0
DA:1368,0
DA:1369,0
DA:1372,0
DA:1373,0
DA:1376,0
DA:1377,0
DA:1380,0
DA:1381,0
DA:1385,0
DA:1393,50
DA:1395,50
DA:1402,50
DA:1404,50
DA:1405,50
DA:1411,0
DA:1415,0
DA:1417,0
DA:1418,0
DA:1426,0
DA:1427,0
DA:1428,0
DA:1429,0
DA:1430,0
DA:1434,0
DA:1435,0
DA:1436,0
DA:1437,0
DA:1438,0
DA:1440,0
DA:1441,0
DA:1442,0
DA:1443,0
DA:1444,0
DA:1455,50
DA:1480,50
DA:1481,50
DA:1482,50
DA:1492,50
DA:1516,50
DA:1517,50
DA:1518,50
LF:377
LH:104
end_of_record
TN:
SF:/usr/include/boost/test/impl/framework.ipp
FN:103,114,_ZN5boost9unit_test9framework4implL8tu_depthEmmRSt3mapImNS2_10order_infoESt4lessImESaISt4pairIKmS4_EEE
FN:1163,1214,_ZN5boost9unit_test9framework4initEPFPNS0_10test_suiteEiPPcEiS5_
FN:119,144,_ZN5boost9unit_test9framework4implL26collect_dependant_siblingsEmmmRSt3mapImNS2_10order_infoESt4lessImESaISt4pairIKmS4_EEE
FN:1219,1251,_ZN5boost9unit_test9framework20finalize_setup_phaseEm
FN:1230,1235,_ZZN5boost9unit_test9framework20finalize_setup_phaseEmEN16apply_decorators16test_suite_startERKNS0_10test_suiteE
FN:1237,1243,_ZZN5boost9unit_test9framework20finalize_setup_phaseEmEN16apply_decorators5visitERKNS0_9test_unitE
FN:1258,1261,_ZN5boost9unit_test9framework16test_in_progressEv
FN:1270,1300,_ZN5boost9unit_test9framework8shutdownEv
FN:1309,1323,_ZN5boost9unit_test9framework18register_test_unitEPNS0_9test_caseE
FN:1332,1346,_ZN5boost9unit_test9framework18register_test_unitEPNS0_10test_suiteE
FN:1355,1358,_ZN5boost9unit_test9framework20deregister_test_unitEPNS0_9test_unitE
FN:1367,1370,_ZN5boost9unit_test9framework5clearEv
FN:1379,1382,_ZN5boost9unit_test9framework17register_observerERNS0_13test_observerE
FN:1391,1394,_ZN5boost9unit_test9framework19deregister_observerERNS0_13test_observerE
FN:1403,1406,_ZN5boost9unit_test9framework23register_global_fixtureERNS0_14global_fixtureE
FN:1415,1418,_ZN5boost9unit_test9framework25deregister_global_fixtureERNS0_14global_fixtureE
FN:1427,1436,_ZN5boost9unit_test9framework11add_contextERKNS0_12lazy_ostreamEb
FN:1445,1445,_ZN5boost9unit_test9framework13frame_with_idC2Ei
FN:1447,1450,_ZN5boost9unit_test9framework13frame_with_idclERKNS1_5state13context_frameE
FN:1457,1472,_ZN5boost9unit_test9framework13clear_contextEi
FN:1481,1484,_ZN5boost9unit_test9framework11get_contextEv
FN:149,169,_ZN5boost9unit_test9framework4implL19assign_sibling_rankEmRSt3mapImNS2_10order_infoESt4lessImESaISt4pairIKmS4_EEE
FN:1493,1496,_ZNK5boost9unit_test9framework17context_generator8is_emptyEv
FN:1501,1504,_ZNK5boost9unit_test9framework17context_generator4nextEv
FN:1513,1519,_ZN5boost9unit_test9framework17master_test_suiteEv
FN:1523,1525,_ZN5boost9unit_test9framework4impl29master_test_suite_name_setterC2ENS0_13basic_cstringIKcEE
FN:1536,1547,_ZN5boost9unit_test9framework23current_auto_test_suiteEPNS0_10test_suiteEb
FN:1556,1559,_ZN5boost9unit_test9framework17current_test_caseEv
FN:1563,1566,_ZN5boost9unit_test9framework17current_test_unitEv
FN:1571,1574,_ZN5boost9unit_test9framework20current_test_case_idEv
FN:1583,1590,_ZN5boost9unit_test9framework3getEmNS0_14test_unit_typeE
FN:1600,1600,_ZN5boost9unit_test9framework14swap_on_deleteISt6vectorINS_10shared_ptrINS0_17test_unit_fixtureEEESaIS6_EEEC2ERS8_SA_
FN:1601,1603,_ZN5boost9unit_test9framework14swap_on_deleteISt6vectorINS_10shared_ptrINS0_17test_unit_fixtureEEESaIS6_EEED2Ev
FN:1610,1614,_ZN5boost9unit_test9framework24register_observer_helperC2ERNS0_13test_observerE
FN:1616,1619,_ZN5boost9unit_test9framework24register_observer_helperD2Ev
FN:1621,1624,_ZN5boost9unit_test9framework24register_observer_helper14deregister_obsEv
FN:1626,1629,_ZN5boost9unit_test9framework24register_observer_helper12register_obsEv
FN:1637,1750,_ZN5boost9unit_test9framework3runEmb
FN:1755,1758,_ZN5boost9unit_test9framework3runEPKNS0_9test_unitEb
FN:1767,1771,_ZN5boost9unit_test9framework16assertion_resultENS0_16assertion_resultE
FN:178,188,_ZN5boost9unit_test9framework4implL16invoke_init_funcEPFPNS0_10test_suiteEiPPcE
FN:1780,1784,_ZN5boost9unit_test9framework16exception_caughtERKNS_19execution_exceptionE
FN:1793,1797,_ZN5boost9unit_test9framework17test_unit_abortedERKNS0_9test_unitE
FN:1804,1808,_ZN5boost9unit_test9framework12test_abortedEv
FN:196,216,_ZN5boost9unit_test9framework4impl11name_filter9componentC2ENS0_13basic_cstringIKcEE
FN:218,235,_ZNK5boost9unit_test9framework4impl11name_filter9component4passERKNS0_9test_unitE
FN:244,259,_ZN5boost9unit_test9framework4impl11name_filterC2ERSt6vectorImSaImEENS0_13basic_cstringIKcEE
FN:262,274,_ZN5boost9unit_test9framework4impl11name_filter11filter_unitERKNS0_9test_unitE
FN:277,282,_ZN5boost9unit_test9framework4impl11name_filter5visitERKNS0_9test_caseE
FN:283,296,_ZN5boost9unit_test9framework4impl11name_filter16test_suite_startERKNS0_10test_suiteE
FN:297,300,_ZN5boost9unit_test9framework4impl11name_filter17test_suite_finishERKNS0_10test_suiteE
FN:316,319,_ZN5boost9unit_test9framework4impl12label_filterC2ERSt6vectorImSaImEENS0_13basic_cstringIKcEE
FN:323,332,_ZN5boost9unit_test9framework4impl12label_filter5visitERKNS0_9test_unitE
FN:345,348,_ZN5boost9unit_test9framework4impl14set_run_statusC2ENS0_9test_unit10run_statusEPSt6vectorImSaImEE
FN:351,368,_ZN5boost9unit_test9framework4impl14set_run_status5visitERKNS0_9test_unitE
FN:381,393,_ZN5boost9unit_test9framework4implL23add_filtered_test_unitsEmNS0_13basic_cstringIKcEERSt6vectorImSaImEE
FN:398,438,_ZN5boost9unit_test9framework4implL13parse_filtersEmRSt6vectorImSaImEES6_
FN:444,455,_ZN5boost9unit_test9framework4impl14random_shuffleIN9__gnu_cxx17__normal_iteratorIPmSt6vectorImSaImEEEEKNS1_5state23random_generator_helperEEEvT_SE_RT0_
FN:462,462,_ZN5boost9unit_test9framework4impl21global_fixture_handleC2EPNS0_17test_unit_fixtureE
FN:463,463,_ZN5boost9unit_test9framework4impl21global_fixture_handleD0Ev
FN:463,463,_ZN5boost9unit_test9framework4impl21global_fixture_handleD2Ev
FN:465,467,_ZN5boost9unit_test9framework4impl21global_fixture_handle5setupEv
FN:468,470,_ZN5boost9unit_test9framework4impl21global_fixture_handle8teardownEv
FN:487,497,_ZN5boost9unit_test9framework5stateC2Ev
FN:499,499,_ZN5boost9unit_test9framework5stateD2Ev
FN:501,513,_ZN5boost9unit_test9framework5state5clearEv
FN:515,515,_ZN5boost9unit_test9framework5state9set_tu_idERNS0_9test_unitEm
FN:520,542,_ZN5boost9unit_test9framework5state21deduce_siblings_orderEmmRSt3mapImNS1_4impl10order_infoESt4lessImESaISt4pairIKmS5_EEE
FN:549,566,_ZN5boost9unit_test9framework5state27finalize_default_run_statusEmNS0_9test_unit10run_statusE
FN:570,584,_ZN5boost9unit_test9framework5state19finalize_run_statusEm
FN:588,647,_ZN5boost9unit_test9framework5state17deduce_run_statusEm
FN:655,657,_ZNK5boost9unit_test9framework5state23random_generator_helperclEm
FN:661,848,_ZN5boost9unit_test9framework5state17execute_test_treeEmmPKNS2_23random_generator_helperE
FN:83,83,_ZN5boost9unit_test9framework4impl10order_infoC2Ev
FN:852,860,_ZN5boost9unit_test9framework5state13child_timeoutEmm
FN:863,867,_ZNK5boost9unit_test9framework5state14priority_orderclEPNS0_13test_observerES5_
FN:874,878,_ZN5boost9unit_test9framework5state13context_frameC2ERKNSt7__cxx1112basic_stringIcSt11char_traitsIcESaIcEEEib
FN:917,917,_ZN5boost9unit_test9framework4impl12_GLOBAL__N_111s_frk_stateEv
FN:923,926,_ZN5boost9unit_test9framework4impl19setup_for_executionERKNS0_9test_unitE
FN:929,929,_ZN5boost9unit_test9framework4impl17sum_to_first_onlyC2Ev
FN:931,937,_ZN5boost9unit_test9framework4impl17sum_to_first_onlyclINSt7__cxx1112basic_stringIcSt11char_traitsIcESaIcEEESt4pairIPKcNS0_13output_formatEEEET_RKSG_RKT0_
FN:931,937,_ZN5boost9unit_test9framework4impl17sum_to_first_onlyclINSt7__cxx1112basic_stringIcSt11char_traitsIcESaIcEEESt4pairIPKcNS0_9log_levelEEEET_RKSG_RKT0_
FN:943,947,_ZN5boost9unit_test9framework4impl28shutdown_loggers_and_reportsEv
FN:95,98,_ZN5boost9unit_test9framework4implL13get_tu_parentEm
FN:950,964,_ZN5boost9unit_test9framework4impl43unregister_global_fixture_and_configurationEv
FN:967,1150,_ZN5boost9unit_test9framework4impl13setup_loggersEv
FNDA:0,_ZN5boost9unit_test9framework4implL8tu_depthEmmRSt3mapImNS2_10order_infoESt4lessImESaISt4pairIKmS4_EEE
FNDA:1,_ZN5boost9unit_test9framework4initEPFPNS0_10test_suiteEiPPcEiS5_
FNDA:0,_ZN5boost9unit_test9framework4implL26collect_dependant_siblingsEmmmRSt3mapImNS2_10order_infoESt4lessImESaISt4pairIKmS4_EEE
FNDA:1,_ZN5boost9unit_test9framework20finalize_setup_phaseEm
FNDA:1,_ZZN5boost9unit_test9framework20finalize_setup_phaseEmEN16apply_decorators16test_suite_startERKNS0_10test_suiteE
FNDA:47,_ZZN5boost9unit_test9framework20finalize_setup_phaseEmEN16apply_decorators5visitERKNS0_9test_unitE
FNDA:95,_ZN5boost9unit_test9framework16test_in_progressEv
FNDA:1,_ZN5boost9unit_test9framework8shutdownEv
FNDA:46,_ZN5boost9unit_test9framework18register_test_unitEPNS0_9test_caseE
FNDA:1,_ZN5boost9unit_test9framework18register_test_unitEPNS0_10test_suiteE
FNDA:47,_ZN5boost9unit_test9framework20deregister_test_unitEPNS0_9test_unitE
FNDA:0,_ZN5boost9unit_test9framework5clearEv
FNDA:4,_ZN5boost9unit_test9framework17register_observerERNS0_13test_observerE
FNDA:4,_ZN5boost9unit_test9framework19deregister_observerERNS0_13test_observerE
FNDA:0,_ZN5boost9unit_test9framework23register_global_fixtureERNS0_14global_fixtureE
FNDA:0,_ZN5boost9unit_test9framework25deregister_global_fixtureERNS0_14global_fixtureE
FNDA:0,_ZN5boost9unit_test9framework11add_contextERKNS0_12lazy_ostreamEb
FNDA:0,_ZN5boost9unit_test9framework13frame_with_idC2Ei
FNDA:0,_ZN5boost9unit_test9framework13frame_with_idclERKNS1_5state13context_frameE
FNDA:102,_ZN5boost9unit_test9framework13clear_contextEi
FNDA:8,_ZN5boost9unit_test9framework11get_contextEv
FNDA:46,_ZN5boost9unit_test9framework4implL19assign_sibling_rankEmRSt3mapImNS2_10order_infoESt4lessImESaISt4pairIKmS4_EEE
FNDA:8,_ZNK5boost9unit_test9framework17context_generator8is_emptyEv
FNDA:0,_ZNK5boost9unit_test9framework17context_generator4nextEv
FNDA:17,_ZN5boost9unit_test9framework17master_test_suiteEv
FNDA:1,_ZN5boost9unit_test9framework4impl29master_test_suite_name_setterC2ENS0_13basic_cstringIKcEE
FNDA:46,_ZN5boost9unit_test9framework23current_auto_test_suiteEPNS0_10test_suiteEb
FNDA:0,_ZN5boost9unit_test9framework17current_test_caseEv
FNDA:0,_ZN5boost9unit_test9framework17current_test_unitEv
FNDA:94,_ZN5boost9unit_test9framework20current_test_case_idEv
FNDA:516,_ZN5boost9unit_test9framework3getEmNS0_14test_unit_typeE
FNDA:1,_ZN5boost9unit_test9framework14swap_on_deleteISt6vectorINS_10shared_ptrINS0_17test_unit_fixtureEEESaIS6_EEEC2ERS8_SA_
FNDA:1,_ZN5boost9unit_test9framework14swap_on_deleteISt6vectorINS_10shared_ptrINS0_17test_unit_fixtureEEESaIS6_EEED2Ev
FNDA:1,_ZN5boost9unit_test9framework24register_observer_helperC2ERNS0_13test_observerE
FNDA:1,_ZN5boost9unit_test9framework24register_observer_helperD2Ev
FNDA:1,_ZN5boost9unit_test9framework24register_observer_helper14deregister_obsEv
FNDA:2,_ZN5boost9unit_test9framework24register_observer_helper12register_obsEv
FNDA:1,_ZN5boost9unit_test9framework3runEmb
FNDA:0,_ZN5boost9unit_test9framework3runEPKNS0_9test_unitEb
FNDA:94,_ZN5boost9unit_test9framework16assertion_resultENS0_16assertion_resultE
FNDA:1,_ZN5boost9unit_test9framework4implL16invoke_init_funcEPFPNS0_10test_suiteEiPPcE
FNDA:0,_ZN5boost9unit_test9framework16exception_caughtERKNS_19execution_exceptionE
FNDA:0,_ZN5boost9unit_test9framework17test_unit_abortedERKNS0_9test_unitE
FNDA:0,_ZN5boost9unit_test9framework12test_abortedEv
FNDA:0,_ZN5boost9unit_test9framework4impl11name_filter9componentC2ENS0_13basic_cstringIKcEE
FNDA:0,_ZNK5boost9unit_test9framework4impl11name_filter9component4passERKNS0_9test_unitE
FNDA:0,_ZN5boost9unit_test9framework4impl11name_filterC2ERSt6vectorImSaImEENS0_13basic_cstringIKcEE
FNDA:0,_ZN5boost9unit_test9framework4impl11name_filter11filter_unitERKNS0_9test_unitE
FNDA:0,_ZN5boost9unit_test9framework4impl11name_filter5visitERKNS0_9test_caseE
FNDA:0,_ZN5boost9unit_test9framework4impl11name_filter16test_suite_startERKNS0_10test_suiteE
FNDA:0,_ZN5boost9unit_test9framework4impl11name_filter17test_suite_finishERKNS0_10test_suiteE
FNDA:0,_ZN5boost9unit_test9framework4impl12label_filterC2ERSt6vectorImSaImEENS0_13basic_cstringIKcEE
FNDA:0,_ZN5boost9unit_test9framework4impl12label_filter5visitERKNS0_9test_unitE
FNDA:1,_ZN5boost9unit_test9framework4impl14set_run_statusC2ENS0_9test_unit10run_statusEPSt6vectorImSaImEE
FNDA:47,_ZN5boost9unit_test9framework4impl14set_run_status5visitERKNS0_9test_unitE
FNDA:0,_ZN5boost9unit_test9framework4implL23add_filtered_test_unitsEmNS0_13basic_cstringIKcEERSt6vectorImSaImEE
FNDA:0,_ZN5boost9unit_test9framework4implL13parse_filtersEmRSt6vectorImSaImEES6_
FNDA:0,_ZN5boost9unit_test9framework4impl14random_shuffleIN9__gnu_cxx17__normal_iteratorIPmSt6vectorImSaImEEEEKNS1_5state23random_generator_helperEEEvT_SE_RT0_
FNDA:0,_ZN5boost9unit_test9framework4impl21global_fixture_handleC2EPNS0_17test_unit_fixtureE
FNDA:0,_ZN5boost9unit_test9framework4impl21global_fixture_handleD0Ev
FNDA:0,_ZN5boost9unit_test9framework4impl21global_fixture_handleD2Ev
FNDA:0,_ZN5boost9unit_test9framework4impl21global_fixture_handle5setupEv
FNDA:0,_ZN5boost9unit_test9framework4impl21global_fixture_handle8teardownEv
FNDA:1,_ZN5boost9unit_test9framework5stateC2Ev
FNDA:1,_ZN5boost9unit_test9framework5stateD2Ev
FNDA:1,_ZN5boost9unit_test9framework5state5clearEv
FNDA:47,_ZN5boost9unit_test9framework5state9set_tu_idERNS0_9test_unitEm
FNDA:47,_ZN5boost9unit_test9framework5state21deduce_siblings_orderEmmRSt3mapImNS1_4impl10order_infoESt4lessImESaISt4pairIKmS5_EEE
FNDA:47,_ZN5boost9unit_test9framework5state27finalize_default_run_statusEmNS0_9test_unit10run_statusE
FNDA:47,_ZN5boost9unit_test9framework5state19finalize_run_statusEm
FNDA:1,_ZN5boost9unit_test9framework5state17deduce_run_statusEm
FNDA:0,_ZNK5boost9unit_test9framework5state23random_generator_helperclEm
FNDA:47,_ZN5boost9unit_test9framework5state17execute_test_treeEmmPKNS2_23random_generator_helperE
FNDA:46,_ZN5boost9unit_test9framework4impl10order_infoC2Ev
FNDA:46,_ZN5boost9unit_test9framework5state13child_timeoutEmm
FNDA:20,_ZNK5boost9unit_test9framework5state14priority_orderclEPNS0_13test_observerES5_
FNDA:0,_ZN5boost9unit_test9framework5state13context_frameC2ERKNSt7__cxx1112basic_stringIcSt11char_traitsIcESaIcEEEib
FNDA:2956,_ZN5boost9unit_test9framework4impl12_GLOBAL__N_111s_frk_stateEv
FNDA:0,_ZN5boost9unit_test9framework4impl19setup_for_executionERKNS0_9test_unitE
FNDA:0,_ZN5boost9unit_test9framework4impl17sum_to_first_onlyC2Ev
FNDA:0,_ZN5boost9unit_test9framework4impl17sum_to_first_onlyclINSt7__cxx1112basic_stringIcSt11char_traitsIcESaIcEEESt4pairIPKcNS0_13output_formatEEEET_RKSG_RKT0_
FNDA:0,_ZN5boost9unit_test9framework4impl17sum_to_first_onlyclINSt7__cxx1112basic_stringIcSt11char_traitsIcESaIcEEESt4pairIPKcNS0_9log_levelEEEET_RKSG_RKT0_
FNDA:1,_ZN5boost9unit_test9framework4impl28shutdown_loggers_and_reportsEv
FNDA:0,_ZN5boost9unit_test9framework4implL13get_tu_parentEm
FNDA:1,_ZN5boost9unit_test9framework4impl43unregister_global_fixture_and_configurationEv
FNDA:1,_ZN5boost9unit_test9framework4impl13setup_loggersEv
FNF:86
FNH:47
DA:83,46
DA:95,0
DA:97,0
DA:103,0
DA:105,0
DA:106,0
DA:108,0
DA:110,0
DA:111,0
DA:113,0
DA:119,0
DA:121,0
DA:122,0
DA:124,0
DA:125,0
DA:126,0
DA:129,0
DA:130,0
DA:131,0
DA:135,0
DA:136,0
DA:137,0
DA:138,0
DA:139,0
DA:140,0
DA:141,0
DA:143,0
DA:144,0
DA:149,46
DA:151,46
DA:153,46
DA:156,46
DA:157,0
DA:159,46
DA:162,46
DA:164,46
DA:165,46
DA:166,0
DA:168,46
DA:178,1
DA:183,1
DA:185,1
DA:186,0
DA:188,1
DA:196,0
DA:197,0
DA:198,0
DA:199,0
DA:200,0
DA:201,0
DA:202,0
DA:204,0
DA:205,0
DA:206,0
DA:208,0
DA:209,0
DA:210,0
DA:213,0
DA:214,0
DA:216,0
DA:218,0
DA:220,0
DA:222,0
DA:223,0
DA:225,0
DA:226,0
DA:227,0
DA:228,0
DA:229,0
DA:230,0
DA:231,0
DA:232,0
DA:233,0
DA:244,0
DA:247,0
DA:248,0
DA:250,0
DA:251,0
DA:252,0
DA:253,0
DA:254,0
DA:256,0
DA:259,0
DA:262,0
DA:265,0
DA:266,0
DA:269,0
DA:273,0
DA:277,0
DA:280,0
DA:281,0
DA:282,0
DA:283,0
DA:285,0
DA:286,0
DA:288,0
DA:289,0
DA:290,0
DA:293,0
DA:295,0
DA:297,0
DA:299,0
DA:300,0
DA:316,0
DA:317,0
DA:318,0
DA:319,0
DA:323,0
DA:325,0
DA:327,0
DA:328,0
DA:331,0
DA:345,1
DA:346,2
DA:347,1
DA:348,1
DA:351,47
DA:353,47
DA:354,47
DA:355,0
DA:356,0
DA:358,0
DA:359,0
DA:361,0
DA:364,0
DA:367,47
DA:381,0
DA:384,0
DA:385,0
DA:386,0
DA:387,0
DA:388,0
DA:390,0
DA:391,0
DA:392,0
DA:393,0
DA:398,0
DA:401,0
DA:403,0
DA:405,0
DA:406,0
DA:409,0
DA:410,0
DA:412,0
DA:413,0
DA:415,0
DA:418,0
DA:419,0
DA:420,0
DA:421,0
DA:424,0
DA:427,0
DA:428,0
DA:429,0
DA:430,0
DA:433,0
DA:437,0
DA:444,0
DA:447,0
DA:448,0
DA:449,0
DA:450,0
DA:452,0
DA:455,0
DA:462,0
DA:463,0
DA:465,0
DA:466,0
DA:467,0
DA:468,0
DA:469,0
DA:470,0
DA:487,1
DA:488,1
DA:489,1
DA:490,1
DA:491,1
DA:492,1
DA:493,1
DA:494,1
DA:495,2
DA:497,1
DA:499,1
DA:501,1
DA:503,48
DA:504,47
DA:505,47
DA:508,47
DA:509,1
DA:511,46
DA:513,1
DA:515,47
DA:520,47
DA:522,47
DA:525,47
DA:526,0
DA:528,47
DA:529,46
DA:531,1
DA:534,93
DA:535,46
DA:537,1
DA:538,93
DA:539,46
DA:540,46
DA:549,47
DA:551,47
DA:553,47
DA:554,46
DA:557,47
DA:558,1
DA:559,93
DA:560,46
DA:562,1
DA:565,47
DA:570,47
DA:572,47
DA:575,47
DA:576,1
DA:577,93
DA:578,46
DA:580,1
DA:583,47
DA:588,1
DA:591,1
DA:592,1
DA:595,1
DA:596,0
DA:599,1
DA:600,1
DA:603,1
DA:604,0
DA:606,0
DA:609,0
DA:610,0
DA:613,0
DA:614,0
DA:617,0
DA:618,0
DA:619,0
DA:625,0
DA:626,0
DA:627,0
DA:629,0
DA:632,1
DA:633,0
DA:635,0
DA:638,0
DA:639,0
DA:641,0
DA:642,0
DA:643,0
DA:646,1
DA:647,1
DA:655,0
DA:656,0
DA:661,47
DA:665,47
DA:667,47
DA:669,47
DA:670,0
DA:671,0
DA:672,0
DA:677,47
DA:679,0
DA:680,0
DA:682,0
DA:684,47
DA:685,47
DA:688,47
DA:689,47
DA:691,0
DA:692,0
DA:697,0
DA:701,235
DA:702,94
DA:705,47
DA:706,0
DA:707,0
DA:708,0
DA:709,0
DA:710,0
DA:711,0
DA:712,0
DA:713,0
DA:715,0
DA:719,47
DA:721,47
DA:723,47
DA:726,47
DA:728,47
DA:729,1
DA:731,1
DA:734,93
DA:736,46
DA:738,46
DA:740,46
DA:742,46
DA:743,0
DA:746,46
DA:748,46
DA:749,0
DA:750,0
DA:752,0
DA:753,0
DA:763,0
DA:766,0
DA:767,0
DA:768,0
DA:770,0
DA:771,0
DA:772,0
DA:773,0
DA:774,0
DA:777,0
DA:779,0
DA:780,0
DA:782,0
DA:784,0
DA:786,0
DA:787,0
DA:790,0
DA:791,0
DA:792,0
DA:793,0
DA:795,0
DA:796,0
DA:803,0
DA:806,46
DA:809,46
DA:812,46
DA:815,46
DA:816,46
DA:819,46
DA:822,46
DA:826,47
DA:828,47
DA:829,0
DA:830,0
DA:832,0
DA:833,0
DA:834,0
DA:838,47
DA:839,0
DA:840,0
DA:844,235
DA:845,94
DA:847,47
DA:848,47
DA:852,46
DA:854,46
DA:855,46
DA:857,0
DA:859,0
DA:863,20
DA:865,30
DA:866,30
DA:874,0
DA:875,0
DA:876,0
DA:877,0
DA:878,0
DA:917,2956
DA:923,0
DA:925,0
DA:926,0
DA:929,0
DA:931,0
DA:932,0
DA:933,0
DA:934,0
DA:936,0
DA:943,1
DA:945,1
DA:946,1
DA:947,1
DA:950,1
DA:953,1
DA:954,1
DA:955,0
DA:957,1
DA:959,1
DA:960,5
DA:961,2
DA:963,1
DA:964,1
DA:967,1
DA:973,1
DA:974,1
DA:979,1
DA:980,1
DA:981,1
DA:982,1
DA:984,1
DA:985,1
DA:990,0
DA:991,0
DA:993,0
DA:994,1
DA:995,1
DA:1000,0
DA:1024,0
DA:1026,0
DA:1032,0
DA:1035,0
DA:1036,0
DA:1038,0
DA:1039,0
DA:1040,0
DA:1041,0
DA:1042,0
DA:1045,0
DA:1047,0
DA:1050,0
DA:1052,0
DA:1053,0
DA:1054,0
DA:1056,0
DA:1057,0
DA:1058,0
DA:1060,0
DA:1061,0
DA:1062,0
DA:1063,0
DA:1068,0
DA:1080,0
DA:1081,0
DA:1084,0
DA:1086,0
DA:1088,0
DA:1089,0
DA:1091,0
DA:1092,0
DA:1093,0
DA:1094,0
DA:1096,0
DA:1098,0
DA:1099,0
DA:1100,0
DA:1101,0
DA:1106,0
DA:1117,0
DA:1119,0
DA:1123,0
DA:1124,0
DA:1125,0
DA:1126,0
DA:1130,0
DA:1133,0
DA:1134,0
DA:1136,0
DA:1140,0
DA:1141,0
DA:1142,0
DA:1143,0
DA:1144,0
DA:1146,0
DA:1147,0
DA:1150,1
DA:1163,1
DA:1168,1
DA:1171,1
DA:1174,1
DA:1175,1
DA:1177,1
DA:1180,0
DA:1181,0
DA:1183,0
DA:1185,1
DA:1188,1
DA:1189,1
DA:1191,1
DA:1192,0
DA:1193,0
DA:1197,1
DA:1198,1
DA:1199,1
DA:1200,1
DA:1204,1
DA:1205,1
DA:1209,1
DA:1211,0
DA:1212,0
DA:1213,0
DA:1214,1
DA:1219,1
DA:1221,1
DA:1222,1
DA:1230,1
DA:1232,1
DA:1233,1
DA:1234,1
DA:1237,47
DA:1239,47
DA:1240,0
DA:1242,47
DA:1244,1
DA:1245,1
DA:1248,1
DA:1249,1
DA:1250,1
DA:1251,1
DA:1258,95
DA:1260,95
DA:1270,1
DA:1274,1
DA:1277,1
DA:1300,1
DA:1309,46
DA:1311,46
DA:1313,46
DA:1315,46
DA:1319,46
DA:1320,46
DA:1322,46
DA:1323,46
DA:1332,1
DA:1334,1
DA:1336,1
DA:1338,1
DA:1342,1
DA:1343,1
DA:1345,1
DA:1346,1
DA:1355,47
DA:1357,47
DA:1358,47
DA:1367,0
DA:1369,0
DA:1370,0
DA:1379,4
DA:1381,4
DA:1382,4
DA:1391,4
DA:1393,4
DA:1394,4
DA:1403,0
DA:1405,0
DA:1406,0
DA:1415,0
DA:1417,0
DA:1418,0
DA:1427,0
DA:1429,0
DA:1430,0
DA:1431,0
DA:1433,0
DA:1435,0
DA:1436,0
DA:1445,0
DA:1447,0
DA:1449,0
DA:1457,102
DA:1459,102
DA:1460,102
DA:1461,0
DA:1462,0
DA:1467,0
DA:1469,0
DA:1470,0
DA:1472,102
DA:1481,8
DA:1483,8
DA:1493,8
DA:1495,8
DA:1501,0
DA:1503,0
DA:1513,17
DA:1515,17
DA:1516,1
DA:1518,17
DA:1523,1
DA:1524,1
DA:1525,1
DA:1536,46
DA:1538,46
DA:1539,1
DA:1541,46
DA:1542,0
DA:1543,46
DA:1544,0
DA:1546,46
DA:1556,0
DA:1558,0
DA:1563,0
DA:1565,0
DA:1571,94
DA:1573,94
DA:1583,516
DA:1585,516
DA:1587,516
DA:1589,516
DA:1600,1
DA:1601,1
DA:1602,1
DA:1603,1
DA:1610,1
DA:1611,1
DA:1613,1
DA:1614,1
DA:1616,1
DA:1617,1
DA:1618,1
DA:1619,1
DA:1621,1
DA:1622,1
DA:1623,1
DA:1624,1
DA:1626,2
DA:1627,2
DA:1628,2
DA:1629,2
DA:1637,1
DA:1639,1
DA:1640,1
DA:1643,1
DA:1645,1
DA:1646,1
DA:1648,1
DA:1652,1
DA:1653,1
DA:1654,1
DA:1655,1
DA:1657,1
DA:1658,1
DA:1660,1
DA:1662,1
DA:1664,7
DA:1666,3
DA:1667,3
DA:1668,3
DA:1669,3
DA:1670,0
DA:1673,3
DA:1674,0
DA:1678,3
DA:1679,0
DA:1680,0
DA:1682,0
DA:1683,0
DA:1686,0
DA:1691,1
DA:1693,1
DA:1696,1
DA:1698,1
DA:1700,1
DA:1701,0
DA:1702,0
DA:1705,1
DA:1708,1
DA:1709,1
DA:1710,1
DA:1711,1
DA:1712,1
DA:1713,0
DA:1714,0
DA:1716,0
DA:1717,0
DA:1718,0
DA:1722,1
DA:1725,1
DA:1727,1
DA:1729,1
DA:1732,1
DA:1734,1
DA:1735,1
DA:1739,1
DA:1740,7
DA:1741,3
DA:1742,3
DA:1743,3
DA:1746,1
DA:1749,1
DA:1750,1
DA:1755,0
DA:1757,0
DA:1758,0
DA:1767,94
DA:1769,470
DA:1770,188
DA:1771,94
DA:1780,0
DA:1782,0
DA:1783,0
DA:1784,0
DA:1793,0
DA:1795,0
DA:1796,0
DA:1797,0
DA:1804,0
DA:1806,0
DA:1807,0
DA:1808,0
LF:693
LH:318
end_of_record
TN:
SF:/usr/include/boost/test/impl/junit_log_formatter.ipp
FN:111,123,_ZN5boost9unit_test6output19junit_result_helperC2ERSoRKNS0_9test_unitERKSt3mapImNS1_10junit_impl16junit_log_helperESt4lessImESaISt4pairIKmS9_EEERKS9_b
FN:125,149,_ZNK5boost9unit_test6output19junit_result_helper13add_log_entryERKNS1_10junit_impl16junit_log_helper15assertion_entryE
FN:156,160,_ZN5boost9unit_test6output19junit_result_helper24conditional_cdata_helperC2ERSoNSt7__cxx1112basic_stringIcSt11char_traitsIcESaIcEEE
FN:162,166,_ZN5boost9unit_test6output19junit_result_helper24conditional_cdata_helperD2Ev
FN:168,179,_ZN5boost9unit_test6output19junit_result_helper24conditional_cdata_helperclERKNSt7__cxx1112basic_stringIcSt11char_traitsIcESaIcEEE
FN:182,209,_ZNK5boost9unit_test6output19junit_result_helper20build_skipping_chainB5cxx11ERKNS0_9test_unitE
FN:211,226,_ZNK5boost9unit_test6output19junit_result_helper14get_class_nameB5cxx11ERKNS0_9test_unitE
FN:228,259,_ZNK5boost9unit_test6output19junit_result_helper21write_testcase_headerERKNS0_9test_unitEPKNS0_12test_resultsEi
FN:261,296,_ZNK5boost9unit_test6output19junit_result_helper25write_testcase_system_outERKNS1_10junit_impl16junit_log_helperEPKNS0_9test_unitEb
FN:298,348,_ZNK5boost9unit_test6output19junit_result_helper25write_testcase_system_errERKNS1_10junit_impl16junit_log_helperEPKNS0_9test_unitEPKNS0_12test_resultsE
FN:350,369,_ZNK5boost9unit_test6output19junit_result_helper17get_nb_assertionsERKNS1_10junit_impl16junit_log_helperERKNS0_9test_unitEPKNS0_12test_resultsE
FN:371,398,_ZNK5boost9unit_test6output19junit_result_helper20output_detailed_logsERKNS1_10junit_impl16junit_log_helperERKNS0_9test_unitEbPKNS0_12test_resultsE
FN:400,413,_ZN5boost9unit_test6output19junit_result_helper5visitERKNS0_9test_caseE
FN:415,472,_ZN5boost9unit_test6output19junit_result_helper16test_suite_startERKNS0_10test_suiteE
FN:474,483,_ZN5boost9unit_test6output19junit_result_helper17test_suite_finishERKNS0_10test_suiteE
FN:498,521,_ZN5boost9unit_test6output19junit_log_formatter10log_finishERSo
FN:526,529,_ZN5boost9unit_test6output19junit_log_formatter14log_build_infoERSob
FN:534,538,_ZN5boost9unit_test6output19junit_log_formatter15test_unit_startERSoRKNS0_9test_unitE
FN:546,552,_ZN5boost9unit_test6output19junit_log_formatter16test_unit_finishERSoRKNS0_9test_unitEm
FN:555,560,_ZN5boost9unit_test6output19junit_log_formatter17test_unit_abortedERSoRKNS0_9test_unitE
FN:56,62,_ZN5boost9unit_test6output15s_replace_charsclIcEEvRT_
FN:565,579,_ZN5boost9unit_test6output19junit_log_formatter19test_unit_timed_outERSoRKNS0_9test_unitE
FN:584,591,_ZN5boost9unit_test6output19junit_log_formatter17test_unit_skippedERSoRKNS0_9test_unitENS0_13basic_cstringIKcEE
FN:596,659,_ZN5boost9unit_test6output19junit_log_formatter19log_exception_startERSoRKNS0_19log_checkpoint_dataERKNS_19execution_exceptionE
FN:65,70,_ZN5boost9unit_test6output17tu_name_normalizeENSt7__cxx1112basic_stringIcSt11char_traitsIcESaIcEEE
FN:664,669,_ZN5boost9unit_test6output19junit_log_formatter20log_exception_finishERSo
FN:674,742,_ZN5boost9unit_test6output19junit_log_formatter15log_entry_startERSoRKNS0_14log_entry_dataENS0_23unit_test_log_formatter15log_entry_typesE
FN:72,76,_ZN5boost9unit_test6output23tu_name_remove_newlinesENSt7__cxx1112basic_stringIcSt11char_traitsIcESaIcEEE
FN:747,766,_ZN5boost9unit_test6output19junit_log_formatter15log_entry_valueERSoNS0_13basic_cstringIKcEE
FN:771,789,_ZN5boost9unit_test6output19junit_log_formatter16log_entry_finishERSo
FN:78,88,_ZN5boost9unit_test6output13file_basenameENS0_13basic_cstringIKcEE
FN:794,812,_ZN5boost9unit_test6output19junit_log_formatter19entry_context_startERSoNS0_9log_levelE
FN:817,824,_ZN5boost9unit_test6output19junit_log_formatter20entry_context_finishERSoNS0_9log_levelE
FN:829,840,_ZN5boost9unit_test6output19junit_log_formatter17log_entry_contextERSoNS0_9log_levelENS0_13basic_cstringIKcEE
FN:846,870,_ZNK5boost9unit_test6output19junit_log_formatter30get_default_stream_descriptionB5cxx11Ev
FN:95,100,_ZN5boost9unit_test6output19junit_log_formatter9log_startERSom
FNDA:0,_ZN5boost9unit_test6output19junit_result_helperC2ERSoRKNS0_9test_unitERKSt3mapImNS1_10junit_impl16junit_log_helperESt4lessImESaISt4pairIKmS9_EEERKS9_b
FNDA:0,_ZNK5boost9unit_test6output19junit_result_helper13add_log_entryERKNS1_10junit_impl16junit_log_helper15assertion_entryE
FNDA:0,_ZN5boost9unit_test6output19junit_result_helper24conditional_cdata_helperC2ERSoNSt7__cxx1112basic_stringIcSt11char_traitsIcESaIcEEE
FNDA:0,_ZN5boost9unit_test6output19junit_result_helper24conditional_cdata_helperD2Ev
FNDA:0,_ZN5boost9unit_test6output19junit_result_helper24conditional_cdata_helperclERKNSt7__cxx1112basic_stringIcSt11char_traitsIcESaIcEEE
FNDA:0,_ZNK5boost9unit_test6output19junit_result_helper20build_skipping_chainB5cxx11ERKNS0_9test_unitE
FNDA:0,_ZNK5boost9unit_test6output19junit_result_helper14get_class_nameB5cxx11ERKNS0_9test_unitE
FNDA:0,_ZNK5boost9unit_test6output19junit_result_helper21write_testcase_headerERKNS0_9test_unitEPKNS0_12test_resultsEi
FNDA:0,_ZNK5boost9unit_test6output19junit_result_helper25write_testcase_system_outERKNS1_10junit_impl16junit_log_helperEPKNS0_9test_unitEb
FNDA:0,_ZNK5boost9unit_test6output19junit_result_helper25write_testcase_system_errERKNS1_10junit_impl16junit_log_helperEPKNS0_9test_unitEPKNS0_12test_resultsE
FNDA:0,_ZNK5boost9unit_test6output19junit_result_helper17get_nb_assertionsERKNS1_10junit_impl16junit_log_helperERKNS0_9test_unitEPKNS0_12test_resultsE
FNDA:0,_ZNK5boost9unit_test6output19junit_result_helper20output_detailed_logsERKNS1_10junit_impl16junit_log_helperERKNS0_9test_unitEbPKNS0_12test_resultsE
FNDA:0,_ZN5boost9unit_test6output19junit_result_helper5visitERKNS0_9test_caseE
FNDA:0,_ZN5boost9unit_test6output19junit_result_helper16test_suite_startERKNS0_10test_suiteE
FNDA:0,_ZN5boost9unit_test6output19junit_result_helper17test_suite_finishERKNS0_10test_suiteE
FNDA:0,_ZN5boost9unit_test6output19junit_log_formatter10log_finishERSo
FNDA:0,_ZN5boost9unit_test6output19junit_log_formatter14log_build_infoERSob
FNDA:0,_ZN5boost9unit_test6output19junit_log_formatter15test_unit_startERSoRKNS0_9test_unitE
FNDA:0,_ZN5boost9unit_test6output19junit_log_formatter16test_unit_finishERSoRKNS0_9test_unitEm
FNDA:0,_ZN5boost9unit_test6output19junit_log_formatter17test_unit_abortedERSoRKNS0_9test_unitE
FNDA:0,_ZN5boost9unit_test6output15s_replace_charsclIcEEvRT_
FNDA:0,_ZN5boost9unit_test6output19junit_log_formatter19test_unit_timed_outERSoRKNS0_9test_unitE
FNDA:0,_ZN5boost9unit_test6output19junit_log_formatter17test_unit_skippedERSoRKNS0_9test_unitENS0_13basic_cstringIKcEE
FNDA:0,_ZN5boost9unit_test6output19junit_log_formatter19log_exception_startERSoRKNS0_19log_checkpoint_dataERKNS_19execution_exceptionE
FNDA:0,_ZN5boost9unit_test6output17tu_name_normalizeENSt7__cxx1112basic_stringIcSt11char_traitsIcESaIcEEE
FNDA:0,_ZN5boost9unit_test6output19junit_log_formatter20log_exception_finishERSo
FNDA:0,_ZN5boost9unit_test6output19junit_log_formatter15log_entry_startERSoRKNS0_14log_entry_dataENS0_23unit_test_log_formatter15log_entry_typesE
FNDA:0,_ZN5boost9unit_test6output23tu_name_remove_newlinesENSt7__cxx1112basic_stringIcSt11char_traitsIcESaIcEEE
FNDA:0,_ZN5boost9unit_test6output19junit_log_formatter15log_entry_valueERSoNS0_13basic_cstringIKcEE
FNDA:0,_ZN5boost9unit_test6output19junit_log_formatter16log_entry_finishERSo
FNDA:0,_ZN5boost9unit_test6output13file_basenameENS0_13basic_cstringIKcEE
FNDA:0,_ZN5boost9unit_test6output19junit_log_formatter19entry_context_startERSoNS0_9log_levelE
FNDA:0,_ZN5boost9unit_test6output19junit_log_formatter20entry_context_finishERSoNS0_9log_levelE
FNDA:0,_ZN5boost9unit_test6output19junit_log_formatter17log_entry_contextERSoNS0_9log_levelENS0_13basic_cstringIKcEE
FNDA:0,_ZNK5boost9unit_test6output19junit_log_formatter30get_default_stream_descriptionB5cxx11Ev
FNDA:0,_ZN5boost9unit_test6output19junit_log_formatter9log_startERSom
FNF:36
FNH:0
DA:56,0
DA:58,0
DA:59,0
DA:60,0
DA:61,0
DA:62,0
DA:65,0
DA:68,0
DA:69,0
DA:72,0
DA:74,0
DA:75,0
DA:78,0
DA:80,0
DA:81,0
DA:83,0
DA:84,0
DA:86,0
DA:95,0
DA:97,0
DA:98,0
DA:99,0
DA:100,0
DA:111,0
DA:117,0
DA:118,0
DA:119,0
DA:120,0
DA:121,0
DA:122,0
DA:123,0
DA:125,0
DA:127,0
DA:128,0
DA:129,0
DA:131,0
DA:132,0
DA:135,0
DA:138,0
DA:140,0
DA:141,0
DA:142,0
DA:144,0
DA:145,0
DA:148,0
DA:149,0
DA:156,0
DA:157,0
DA:158,0
DA:159,0
DA:160,0
DA:162,0
DA:163,0
DA:164,0
DA:166,0
DA:168,0
DA:169,0
DA:170,0
DA:171,0
DA:172,0
DA:173,0
DA:176,0
DA:177,0
DA:179,0
DA:182,0
DA:186,0
DA:188,0
DA:190,0
DA:191,0
DA:192,0
DA:193,0
DA:194,0
DA:197,0
DA:199,0
DA:201,0
DA:202,0
DA:204,0
DA:205,0
DA:208,0
DA:209,0
DA:211,0
DA:212,0
DA:213,0
DA:214,0
DA:215,0
DA:216,0
DA:217,0
DA:221,0
DA:222,0
DA:225,0
DA:226,0
DA:228,0
DA:232,0
DA:233,0
DA:235,0
DA:236,0
DA:239,0
DA:240,0
DA:243,0
DA:244,0
DA:245,0
DA:247,0
DA:250,0
DA:251,0
DA:252,0
DA:255,0
DA:256,0
DA:257,0
DA:258,0
DA:259,0
DA:261,0
DA:266,0
DA:269,0
DA:270,0
DA:271,0
DA:272,0
DA:273,0
DA:275,0
DA:277,0
DA:280,0
DA:281,0
DA:282,0
DA:284,0
DA:288,0
DA:289,0
DA:290,0
DA:292,0
DA:293,0
DA:294,0
DA:296,0
DA:298,0
DA:303,0
DA:304,0
DA:306,0
DA:307,0
DA:308,0
DA:311,0
DA:314,0
DA:315,0
DA:316,0
DA:318,0
DA:322,0
DA:323,0
DA:324,0
DA:326,0
DA:327,0
DA:328,0
DA:332,0
DA:333,0
DA:335,0
DA:336,0
DA:337,0
DA:339,0
DA:342,0
DA:343,0
DA:345,0
DA:346,0
DA:347,0
DA:348,0
DA:350,0
DA:353,0
DA:354,0
DA:355,0
DA:356,0
DA:357,0
DA:358,0
DA:360,0
DA:361,0
DA:365,0
DA:368,0
DA:371,0
DA:376,0
DA:377,0
DA:378,0
DA:380,0
DA:382,0
DA:383,0
DA:387,0
DA:388,0
DA:389,0
DA:391,0
DA:395,0
DA:396,0
DA:397,0
DA:400,0
DA:403,0
DA:404,0
DA:405,0
DA:408,0
DA:411,0
DA:413,0
DA:415,0
DA:417,0
DA:420,0
DA:421,0
DA:429,0
DA:431,0
DA:433,0
DA:435,0
DA:436,0
DA:437,0
DA:439,0
DA:440,0
DA:441,0
DA:442,0
DA:443,0
DA:444,0
DA:445,0
DA:447,0
DA:449,0
DA:450,0
DA:451,0
DA:452,0
DA:454,0
DA:455,0
DA:456,0
DA:457,0
DA:458,0
DA:461,0
DA:465,0
DA:466,0
DA:467,0
DA:471,0
DA:474,0
DA:476,0
DA:477,0
DA:478,0
DA:480,0
DA:481,0
DA:498,0
DA:500,0
DA:503,0
DA:504,0
DA:507,0
DA:508,0
DA:510,0
DA:511,0
DA:512,0
DA:514,0
DA:515,0
DA:516,0
DA:517,0
DA:518,0
DA:520,0
DA:526,0
DA:528,0
DA:529,0
DA:534,0
DA:536,0
DA:537,0
DA:538,0
DA:546,0
DA:550,0
DA:551,0
DA:552,0
DA:555,0
DA:558,0
DA:560,0
DA:565,0
DA:567,0
DA:571,0
DA:572,0
DA:573,0
DA:574,0
DA:575,0
DA:576,0
DA:577,0
DA:578,0
DA:579,0
DA:584,0
DA:589,0
DA:590,0
DA:591,0
DA:596,0
DA:598,0
DA:599,0
DA:601,0
DA:603,0
DA:605,0
DA:607,0
DA:608,0
DA:610,0
DA:612,0
DA:613,0
DA:614,0
DA:615,0
DA:616,0
DA:617,0
DA:618,0
DA:619,0
DA:620,0
DA:621,0
DA:623,0
DA:624,0
DA:625,0
DA:626,0
DA:627,0
DA:628,0
DA:629,0
DA:630,0
DA:631,0
DA:632,0
DA:633,0
DA:636,0
DA:637,0
DA:638,0
DA:640,0
DA:641,0
DA:642,0
DA:644,0
DA:645,0
DA:647,0
DA:648,0
DA:649,0
DA:650,0
DA:651,0
DA:652,0
DA:656,0
DA:658,0
DA:659,0
DA:664,0
DA:667,0
DA:668,0
DA:669,0
DA:674,0
DA:676,0
DA:677,0
DA:678,0
DA:679,0
DA:681,0
DA:683,0
DA:684,0
DA:685,0
DA:691,0
DA:692,0
DA:693,0
DA:699,0
DA:700,0
DA:701,0
DA:703,0
DA:704,0
DA:706,0
DA:707,0
DA:708,0
DA:711,0
DA:712,0
DA:713,0
DA:714,0
DA:715,0
DA:716,0
DA:718,0
DA:719,0
DA:720,0
DA:721,0
DA:722,0
DA:726,0
DA:727,0
DA:728,0
DA:729,0
DA:730,0
DA:732,0
DA:733,0
DA:734,0
DA:735,0
DA:737,0
DA:738,0
DA:739,0
DA:740,0
DA:742,0
DA:747,0
DA:749,0
DA:750,0
DA:751,0
DA:753,0
DA:755,0
DA:757,0
DA:758,0
DA:764,0
DA:771,0
DA:773,0
DA:774,0
DA:776,0
DA:778,0
DA:779,0
DA:780,0
DA:781,0
DA:784,0
DA:788,0
DA:789,0
DA:794,0
DA:796,0
DA:797,0
DA:798,0
DA:800,0
DA:801,0
DA:803,0
DA:804,0
DA:806,0
DA:810,0
DA:817,0
DA:820,0
DA:821,0
DA:822,0
DA:823,0
DA:829,0
DA:831,0
DA:832,0
DA:833,0
DA:835,0
DA:836,0
DA:839,0
DA:846,0
DA:847,0
DA:849,0
DA:850,0
DA:852,0
DA:855,0
DA:857,0
DA:858,0
DA:859,0
DA:861,0
DA:862,0
DA:863,0
DA:864,0
DA:865,0
DA:866,0
DA:867,0
DA:869,0
DA:870,0
LF:429
LH:0
end_of_record
TN:
SF:/usr/include/boost/test/impl/plain_report_formatter.ipp
FN:101,150,_ZN5boost9unit_test6output22plain_report_formatter22test_unit_report_startERKNS0_9test_unitERSo
FN:155,158,_ZN5boost9unit_test6output22plain_report_formatter23test_unit_report_finishERKNS0_9test_unitERSo
FN:163,208,_ZN5boost9unit_test6output22plain_report_formatter22do_confirmation_reportERKNS0_9test_unitERSo
FN:52,57,_ZN5boost9unit_test6output12_GLOBAL__N_1lsINSt7__cxx1112basic_stringIcSt11char_traitsIcESaIcEEEEERSoRKNS0_5utils14custom_printerINSB_12custom_manipINS2_7quote_tEEEEERKT_
FN:62,72,_ZN5boost9unit_test6output12_GLOBAL__N_116print_stat_valueERSommmNS0_13basic_cstringIKcEES6_
FN:83,88,_ZN5boost9unit_test6output22plain_report_formatter20results_report_startERSo
FN:93,96,_ZN5boost9unit_test6output22plain_report_formatter21results_report_finishERSo
FNDA:0,_ZN5boost9unit_test6output22plain_report_formatter22test_unit_report_startERKNS0_9test_unitERSo
FNDA:0,_ZN5boost9unit_test6output22plain_report_formatter23test_unit_report_finishERKNS0_9test_unitERSo
FNDA:1,_ZN5boost9unit_test6output22plain_report_formatter22do_confirmation_reportERKNS0_9test_unitERSo
FNDA:0,_ZN5boost9unit_test6output12_GLOBAL__N_1lsINSt7__cxx1112basic_stringIcSt11char_traitsIcESaIcEEEEERSoRKNS0_5utils14custom_printerINSB_12custom_manipINS2_7quote_tEEEEERKT_
FNDA:0,_ZN5boost9unit_test6output12_GLOBAL__N_116print_stat_valueERSommmNS0_13basic_cstringIKcEES6_
FNDA:1,_ZN5boost9unit_test6output22plain_report_formatter20results_report_startERSo
FNDA:1,_ZN5boost9unit_test6output22plain_report_formatter21results_report_finishERSo
FNF:7
FNH:3
DA:52,0
DA:54,0
DA:56,0
DA:62,0
DA:64,0
DA:65,0
DA:67,0
DA:68,0
DA:69,0
DA:71,0
DA:83,1
DA:85,1
DA:86,1
DA:87,1
DA:88,1
DA:93,1
DA:95,1
DA:96,1
DA:101,0
DA:103,0
DA:105,0
DA:107,0
DA:108,0
DA:109,0
DA:110,0
DA:111,0
DA:112,0
DA:113,0
DA:114,0
DA:116,0
DA:118,0
DA:119,0
DA:121,0
DA:122,0
DA:123,0
DA:124,0
DA:128,0
DA:129,0
DA:131,0
DA:132,0
DA:134,0
DA:135,0
DA:137,0
DA:138,0
DA:139,0
DA:140,0
DA:141,0
DA:142,0
DA:143,0
DA:144,0
DA:145,0
DA:146,0
DA:147,0
DA:149,0
DA:155,0
DA:157,0
DA:158,0
DA:163,1
DA:165,1
DA:167,1
DA:168,1
DA:170,1
DA:171,1
DA:172,1
DA:174,0
DA:176,0
DA:177,0
DA:178,0
DA:179,0
DA:182,0
DA:183,0
DA:184,0
DA:185,0
DA:188,0
DA:189,0
DA:190,0
DA:193,0
DA:194,0
DA:195,0
DA:196,0
DA:197,0
DA:200,0
DA:202,0
DA:204,0
DA:205,0
DA:207,0
DA:208,0
LF:87
LH:15
end_of_record
TN:
SF:/usr/include/boost/test/impl/progress_monitor.ipp
FN:104,108,_ZN5boost9unit_test12_GLOBAL__N_121progress_monitor_implC2Ev
FN:115,115,_ZN5boost9unit_test12_GLOBAL__N_19s_pm_implEv
FN:124,124,_ZN5boost9unit_test18progress_monitor_t8instanceEv
FN:129,136,_ZN5boost9unit_test18progress_monitor_t10test_startEmm
FN:141,146,_ZN5boost9unit_test18progress_monitor_t12test_abortedEv
FN:151,157,_ZN5boost9unit_test18progress_monitor_t16test_unit_finishERKNS0_9test_unitEm
FN:162,170,_ZN5boost9unit_test18progress_monitor_t17test_unit_skippedERKNS0_9test_unitENS0_13basic_cstringIKcEE
FN:175,178,_ZN5boost9unit_test18progress_monitor_t10set_streamERSo
FN:43,57,_ZN5boost9unit_test16progress_displayC2EmRSo
FN:59,84,_ZN5boost9unit_test16progress_displaypLEm
FN:85,85,_ZN5boost9unit_test16progress_displayppEv
FN:86,86,_ZNK5boost9unit_test16progress_display5countEv
FNDA:0,_ZN5boost9unit_test12_GLOBAL__N_121progress_monitor_implC2Ev
FNDA:0,_ZN5boost9unit_test12_GLOBAL__N_19s_pm_implEv
FNDA:1,_ZN5boost9unit_test18progress_monitor_t8instanceEv
FNDA:0,_ZN5boost9unit_test18progress_monitor_t10test_startEmm
FNDA:0,_ZN5boost9unit_test18progress_monitor_t12test_abortedEv
FNDA:0,_ZN5boost9unit_test18progress_monitor_t16test_unit_finishERKNS0_9test_unitEm
FNDA:0,_ZN5boost9unit_test18progress_monitor_t17test_unit_skippedERKNS0_9test_unitENS0_13basic_cstringIKcEE
FNDA:0,_ZN5boost9unit_test18progress_monitor_t10set_streamERSo
FNDA:0,_ZN5boost9unit_test16progress_displayC2EmRSo
FNDA:0,_ZN5boost9unit_test16progress_displaypLEm
FNDA:0,_ZN5boost9unit_test16progress_displayppEv
FNDA:0,_ZNK5boost9unit_test16progress_display5countEv
FNF:12
FNH:1
DA:43,0
DA:44,0
DA:45,0
DA:46,0
DA:47,0
DA:48,0
DA:51,0
DA:52,0
DA:53,0
DA:55,0
DA:56,0
DA:57,0
DA:59,0
DA:61,0
DA:62,0
DA:67,0
DA:68,0
DA:71,0
DA:72,0
DA:74,0
DA:76,0
DA:77,0
DA:78,0
DA:80,0
DA:83,0
DA:85,0
DA:86,0
DA:104,0
DA:105,0
DA:106,0
DA:108,0
DA:115,0
DA:124,1
DA:129,0
DA:131,0
DA:133,0
DA:135,0
DA:136,0
DA:141,0
DA:143,0
DA:145,0
DA:146,0
DA:151,0
DA:153,0
DA:155,0
DA:156,0
DA:157,0
DA:162,0
DA:164,0
DA:166,0
DA:167,0
DA:169,0
DA:170,0
DA:175,0
DA:177,0
DA:178,0
LF:56
LH:1
end_of_record
TN:
SF:/usr/include/boost/test/impl/results_collector.ipp
FN:114,132,_ZN5boost9unit_test12test_results5clearEv
FN:146,146,_ZN5boost9unit_test12_GLOBAL__N_19s_rc_implEv
FN:151,153,_ZN5boost9unit_test12_GLOBAL__N_120clear_subtree_resultC2ERNS1_22results_collector_implE
FN:156,164,_ZN5boost9unit_test12_GLOBAL__N_120clear_subtree_result5visitERKNS0_9test_unitE
FN:173,173,_ZN5boost9unit_test19results_collector_t8instanceEv
FN:178,183,_ZN5boost9unit_test19results_collector_t10test_startEmm
FN:188,196,_ZN5boost9unit_test19results_collector_t15test_unit_startERKNS0_9test_unitE
FN:202,202,_ZN5boost9unit_test22results_collect_helperC2ERNS0_12test_resultsERKNS0_9test_unitE
FN:204,227,_ZN5boost9unit_test22results_collect_helper5visitERKNS0_9test_caseE
FN:228,239,_ZN5boost9unit_test22results_collect_helper16test_suite_startERKNS0_10test_suiteE
FN:250,267,_ZN5boost9unit_test19results_collector_t16test_unit_finishERKNS0_9test_unitEm
FN:272,285,_ZN5boost9unit_test19results_collector_t17test_unit_skippedERKNS0_9test_unitENS0_13basic_cstringIKcEE
FN:290,294,_ZN5boost9unit_test19results_collector_t19test_unit_timed_outERKNS0_9test_unitE
FN:299,311,_ZN5boost9unit_test19results_collector_t16assertion_resultENS0_16assertion_resultE
FN:316,324,_ZN5boost9unit_test19results_collector_t16exception_caughtERKNS_19execution_exceptionE
FN:329,332,_ZN5boost9unit_test19results_collector_t17test_unit_abortedERKNS0_9test_unitE
FN:337,340,_ZNK5boost9unit_test19results_collector_t7resultsEm
FN:44,47,_ZN5boost9unit_test12test_resultsC2Ev
FN:52,63,_ZNK5boost9unit_test12test_results6passedEv
FN:68,71,_ZNK5boost9unit_test12test_results7abortedEv
FN:76,79,_ZNK5boost9unit_test12test_results7skippedEv
FN:84,90,_ZNK5boost9unit_test12test_results11result_codeEv
FN:95,109,_ZN5boost9unit_test12test_resultspLERKS1_
FNDA:94,_ZN5boost9unit_test12test_results5clearEv
FNDA:237,_ZN5boost9unit_test12_GLOBAL__N_19s_rc_implEv
FNDA:1,_ZN5boost9unit_test12_GLOBAL__N_120clear_subtree_resultC2ERNS1_22results_collector_implE
FNDA:47,_ZN5boost9unit_test12_GLOBAL__N_120clear_subtree_result5visitERKNS0_9test_unitE
FNDA:1,_ZN5boost9unit_test19results_collector_t8instanceEv
FNDA:1,_ZN5boost9unit_test19results_collector_t10test_startEmm
FNDA:47,_ZN5boost9unit_test19results_collector_t15test_unit_startERKNS0_9test_unitE
FNDA:1,_ZN5boost9unit_test22results_collect_helperC2ERNS0_12test_resultsERKNS0_9test_unitE
FNDA:46,_ZN5boost9unit_test22results_collect_helper5visitERKNS0_9test_caseE
FNDA:1,_ZN5boost9unit_test22results_collect_helper16test_suite_startERKNS0_10test_suiteE
FNDA:47,_ZN5boost9unit_test19results_collector_t16test_unit_finishERKNS0_9test_unitEm
FNDA:0,_ZN5boost9unit_test19results_collector_t17test_unit_skippedERKNS0_9test_unitENS0_13basic_cstringIKcEE
FNDA:0,_ZN5boost9unit_test19results_collector_t19test_unit_timed_outERKNS0_9test_unitE
FNDA:94,_ZN5boost9unit_test19results_collector_t16assertion_resultENS0_16assertion_resultE
FNDA:0,_ZN5boost9unit_test19results_collector_t16exception_caughtERKNS_19execution_exceptionE
FNDA:0,_ZN5boost9unit_test19results_collector_t17test_unit_abortedERKNS0_9test_unitE
FNDA:48,_ZNK5boost9unit_test19results_collector_t7resultsEm
FNDA:47,_ZN5boost9unit_test12test_resultsC2Ev
FNDA:48,_ZNK5boost9unit_test12test_results6passedEv
FNDA:48,_ZNK5boost9unit_test12test_results7abortedEv
FNDA:0,_ZNK5boost9unit_test12test_results7skippedEv
FNDA:1,_ZNK5boost9unit_test12test_results11result_codeEv
FNDA:46,_ZN5boost9unit_test12test_resultspLERKS1_
FNF:23
FNH:18
DA:44,47
DA:46,47
DA:47,47
DA:52,48
DA:56,48
DA:57,48
DA:58,96
DA:60,48
DA:61,144
DA:62,96
DA:68,48
DA:70,48
DA:76,0
DA:78,0
DA:84,1
DA:86,1
DA:87,0
DA:89,1
DA:95,46
DA:97,46
DA:98,46
DA:99,46
DA:100,46
DA:101,46
DA:102,46
DA:103,46
DA:104,46
DA:105,46
DA:106,46
DA:107,46
DA:108,46
DA:109,46
DA:114,94
DA:116,94
DA:117,94
DA:118,94
DA:119,94
DA:120,94
DA:121,94
DA:122,94
DA:123,94
DA:124,94
DA:125,94
DA:126,94
DA:127,94
DA:128,94
DA:129,94
DA:130,94
DA:131,94
DA:132,94
DA:146,237
DA:151,1
DA:152,1
DA:153,1
DA:156,47
DA:159,47
DA:160,47
DA:161,0
DA:163,47
DA:173,1
DA:178,1
DA:181,1
DA:182,1
DA:183,1
DA:188,47
DA:191,47
DA:193,47
DA:195,47
DA:196,47
DA:202,1
DA:204,46
DA:206,46
DA:207,46
DA:209,46
DA:210,46
DA:211,0
DA:213,46
DA:215,0
DA:216,0
DA:218,0
DA:219,0
DA:222,0
DA:223,0
DA:225,0
DA:227,46
DA:228,1
DA:230,1
DA:231,1
DA:233,0
DA:234,0
DA:236,0
DA:237,0
DA:238,0
DA:250,47
DA:252,47
DA:253,47
DA:254,1
DA:255,1
DA:256,1
DA:258,46
DA:259,46
DA:260,0
DA:262,46
DA:263,46
DA:264,8
DA:266,47
DA:267,47
DA:272,0
DA:274,0
DA:275,0
DA:277,0
DA:279,0
DA:280,0
DA:281,0
DA:283,0
DA:284,0
DA:285,0
DA:290,0
DA:292,0
DA:293,0
DA:294,0
DA:299,94
DA:301,94
DA:303,94
DA:304,94
DA:305,0
DA:306,0
DA:309,94
DA:310,0
DA:311,94
DA:316,0
DA:318,0
DA:320,0
DA:321,0
DA:322,0
DA:324,0
DA:329,0
DA:331,0
DA:332,0
DA:337,48
DA:339,48
LF:141
LH:97
end_of_record
TN:
SF:/usr/include/boost/test/impl/results_reporter.ipp
FN:100,104,_ZN5boost9unit_test16results_reporter9set_levelENS0_12report_levelE
FN:109,113,_ZN5boost9unit_test16results_reporter10set_streamERSo
FN:118,121,_ZN5boost9unit_test16results_reporter10get_streamEv
FN:126,137,_ZN5boost9unit_test16results_reporter10set_formatENS0_13output_formatE
FN:142,146,_ZN5boost9unit_test16results_reporter10set_formatEPNS1_6formatE
FN:155,187,_ZN5boost9unit_test16results_reporter11make_reportENS0_12report_levelEm
FN:54,59,_ZN5boost9unit_test16results_reporter12_GLOBAL__N_121results_reporter_implC2Ev
FN:62,66,_ZN5boost9unit_test16results_reporter12_GLOBAL__N_121results_reporter_impl5visitERKNS0_9test_caseE
FN:67,76,_ZN5boost9unit_test16results_reporter12_GLOBAL__N_121results_reporter_impl16test_suite_startERKNS0_10test_suiteE
FN:77,80,_ZN5boost9unit_test16results_reporter12_GLOBAL__N_121results_reporter_impl17test_suite_finishERKNS0_10test_suiteE
FN:91,91,_ZN5boost9unit_test16results_reporter12_GLOBAL__N_19s_rr_implEv
FNDA:1,_ZN5boost9unit_test16results_reporter9set_levelENS0_12report_levelE
FNDA:1,_ZN5boost9unit_test16results_reporter10set_streamERSo
FNDA:0,_ZN5boost9unit_test16results_reporter10get_streamEv
FNDA:1,_ZN5boost9unit_test16results_reporter10set_formatENS0_13output_formatE
FNDA:1,_ZN5boost9unit_test16results_reporter10set_formatEPNS1_6formatE
FNDA:1,_ZN5boost9unit_test16results_reporter11make_reportENS0_12report_levelEm
FNDA:1,_ZN5boost9unit_test16results_reporter12_GLOBAL__N_121results_reporter_implC2Ev
FNDA:0,_ZN5boost9unit_test16results_reporter12_GLOBAL__N_121results_reporter_impl5visitERKNS0_9test_caseE
FNDA:0,_ZN5boost9unit_test16results_reporter12_GLOBAL__N_121results_reporter_impl16test_suite_startERKNS0_10test_suiteE
FNDA:0,_ZN5boost9unit_test16results_reporter12_GLOBAL__N_121results_reporter_impl17test_suite_finishERKNS0_10test_suiteE
FNDA:15,_ZN5boost9unit_test16results_reporter12_GLOBAL__N_19s_rr_implEv
FNF:11
FNH:7
DA:54,1
DA:55,2
DA:56,1
DA:57,1
DA:58,2
DA:59,1
DA:62,0
DA:64,0
DA:65,0
DA:66,0
DA:67,0
DA:69,0
DA:71,0
DA:72,0
DA:74,0
DA:75,0
DA:77,0
DA:79,0
DA:80,0
DA:91,15
DA:100,1
DA:102,1
DA:103,1
DA:104,1
DA:109,1
DA:111,1
DA:112,1
DA:113,1
DA:118,0
DA:120,0
DA:126,1
DA:128,1
DA:129,1
DA:131,1
DA:132,1
DA:133,0
DA:134,0
DA:135,0
DA:137,1
DA:142,1
DA:144,1
DA:145,1
DA:146,1
DA:155,1
DA:157,1
DA:158,1
DA:160,1
DA:161,0
DA:163,1
DA:164,0
DA:166,1
DA:168,1
DA:169,1
DA:171,1
DA:173,1
DA:174,1
DA:175,1
DA:176,1
DA:177,0
DA:179,0
DA:180,0
DA:181,0
DA:182,0
DA:185,1
DA:186,1
LF:65
LH:40
end_of_record
TN:
SF:/usr/include/boost/test/impl/test_framework_init_observer.ipp
FN:33,36,_ZN5boost9unit_test25framework_init_observer_t5clearEv
FN:41,44,_ZN5boost9unit_test25framework_init_observer_t10test_startEmm
FN:49,56,_ZN5boost9unit_test25framework_init_observer_t16assertion_resultENS0_16assertion_resultE
FN:61,64,_ZN5boost9unit_test25framework_init_observer_t16exception_caughtERKNS_19execution_exceptionE
FN:67,70,_ZN5boost9unit_test25framework_init_observer_t12test_abortedEv
FN:76,79,_ZNK5boost9unit_test25framework_init_observer_t10has_failedEv
FNDA:2,_ZN5boost9unit_test25framework_init_observer_t5clearEv
FNDA:1,_ZN5boost9unit_test25framework_init_observer_t10test_startEmm
FNDA:0,_ZN5boost9unit_test25framework_init_observer_t16assertion_resultENS0_16assertion_resultE
FNDA:0,_ZN5boost9unit_test25framework_init_observer_t16exception_caughtERKNS_19execution_exceptionE
FNDA:0,_ZN5boost9unit_test25framework_init_observer_t12test_abortedEv
FNDA:4,_ZNK5boost9unit_test25framework_init_observer_t10has_failedEv
FNF:6
FNH:3
DA:33,2
DA:35,2
DA:36,2
DA:41,1
DA:43,1
DA:44,1
DA:49,0
DA:51,0
DA:52,0
DA:53,0
DA:54,0
DA:56,0
DA:61,0
DA:63,0
DA:64,0
DA:67,0
DA:69,0
DA:70,0
DA:76,4
DA:78,4
LF:20
LH:8
end_of_record
TN:
SF:/usr/include/boost/test/impl/test_tools.ipp
FN:102,112,_ZN5boost10test_tools9tt_detail15print_log_valueIhEclERSoh
FN:117,128,_ZN5boost10test_tools9tt_detail15print_log_valueIwEclERSow
FN:133,136,_ZN5boost10test_tools9tt_detail15print_log_valueIPKcEclERSoS4_
FN:141,149,_ZN5boost10test_tools9tt_detail15print_log_valueIPKwEclERSoS4_
FN:164,319,_ZN5boost10test_tools9tt_detail13format_reportINS_9unit_test15unit_test_log_tEEEvRT_RKNS0_16assertion_resultERKNS3_12lazy_ostreamENS1_10tool_levelENS1_10check_typeEmP13__va_list_tagPKcSI_
FN:164,319,_ZN5boost10test_tools9tt_detail13format_reportINSt7__cxx1119basic_ostringstreamIcSt11char_traitsIcESaIcEEEEEvRT_RKNS0_16assertion_resultERKNS_9unit_test12lazy_ostreamENS1_10tool_levelENS1_10check_typeEmP13__va_list_tagPKcSN_
FN:324,412,_ZN5boost10test_tools9tt_detail16report_assertionERKNS0_16assertion_resultERKNS_9unit_test12lazy_ostreamENS5_13basic_cstringIKcEEmNS1_10tool_levelENS1_10check_typeEmz
FN:417,439,_ZN5boost10test_tools9tt_detail23format_assertion_resultENS_9unit_test13basic_cstringIKcEES5_
FN:444,456,_ZN5boost10test_tools9tt_detail18prod_report_formatB5cxx11ERKNS0_16assertion_resultERKNS_9unit_test12lazy_ostreamENS1_10check_typeEmz
FN:461,464,_ZN5boost10test_tools9tt_detail10equal_implEPKcS3_
FN:471,474,_ZN5boost10test_tools9tt_detail10equal_implEPKwS3_
FN:481,485,_ZN5boost10test_tools9tt_detail15is_defined_implENS_9unit_test13basic_cstringIKcEES5_
FN:493,496,_ZN5boost10test_tools9tt_detail13context_frameC2ERKNS_9unit_test12lazy_ostreamE
FN:500,503,_ZN5boost10test_tools9tt_detail13context_frameD2Ev
FN:507,510,_ZN5boost10test_tools9tt_detail13context_framecvbEv
FN:527,535,_ZN5boost10test_tools18output_test_stream4Impl8get_charEv
FN:537,541,_ZN5boost10test_tools18output_test_stream4Impl14check_and_fillERNS0_16assertion_resultE
FN:546,562,_ZN5boost10test_tools18output_test_streamC1ENS_9unit_test13basic_cstringIKcEEbb
FN:546,562,_ZN5boost10test_tools18output_test_streamC2ENS_9unit_test13basic_cstringIKcEEbb
FN:566,569,_ZN5boost10test_tools18output_test_streamD0Ev
FN:566,569,_ZN5boost10test_tools18output_test_streamD1Ev
FN:566,569,_ZN5boost10test_tools18output_test_streamD2Ev
FN:574,586,_ZN5boost10test_tools18output_test_stream8is_emptyEb
FN:591,603,_ZN5boost10test_tools18output_test_stream12check_lengthEmb
FN:608,620,_ZN5boost10test_tools18output_test_stream8is_equalENS_9unit_test13basic_cstringIKcEEb
FN:624,633,_ZN5boost10test_tools16pretty_print_logENSt7__cxx1112basic_stringIcSt11char_traitsIcESaIcEEE
FN:636,802,_ZN5boost10test_tools18output_test_stream13match_patternEb
FN:79,82,_ZN5boost10test_tools9tt_detail15print_log_valueIbEclERSob
FN:807,816,_ZN5boost10test_tools18output_test_stream5flushEv
FN:820,822,_ZNK5boost10test_tools18output_test_stream32get_stream_string_representationB5cxx11Ev
FN:827,832,_ZN5boost10test_tools18output_test_stream6lengthEv
FN:837,845,_ZN5boost10test_tools18output_test_stream4syncEv
FN:85,97,_ZN5boost10test_tools9tt_detail15print_log_valueIcEclERSoc
FNDA:0,_ZN5boost10test_tools9tt_detail15print_log_valueIhEclERSoh
FNDA:0,_ZN5boost10test_tools9tt_detail15print_log_valueIwEclERSow
FNDA:0,_ZN5boost10test_tools9tt_detail15print_log_valueIPKcEclERSoS4_
FNDA:0,_ZN5boost10test_tools9tt_detail15print_log_valueIPKwEclERSoS4_
FNDA:94,_ZN5boost10test_tools9tt_detail13format_reportINS_9unit_test15unit_test_log_tEEEvRT_RKNS0_16assertion_resultERKNS3_12lazy_ostreamENS1_10tool_levelENS1_10check_typeEmP13__va_list_tagPKcSI_
FNDA:0,_ZN5boost10test_tools9tt_detail13format_reportINSt7__cxx1119basic_ostringstreamIcSt11char_traitsIcESaIcEEEEEvRT_RKNS0_16assertion_resultERKNS_9unit_test12lazy_ostreamENS1_10tool_levelENS1_10check_typeEmP13__va_list_tagPKcSN_
FNDA:94,_ZN5boost10test_tools9tt_detail16report_assertionERKNS0_16assertion_resultERKNS_9unit_test12lazy_ostreamENS5_13basic_cstringIKcEEmNS1_10tool_levelENS1_10check_typeEmz
FNDA:0,_ZN5boost10test_tools9tt_detail23format_assertion_resultENS_9unit_test13basic_cstringIKcEES5_
FNDA:0,_ZN5boost10test_tools9tt_detail18prod_report_formatB5cxx11ERKNS0_16assertion_resultERKNS_9unit_test12lazy_ostreamENS1_10check_typeEmz
FNDA:0,_ZN5boost10test_tools9tt_detail10equal_implEPKcS3_
FNDA:0,_ZN5boost10test_tools9tt_detail10equal_implEPKwS3_
FNDA:0,_ZN5boost10test_tools9tt_detail15is_defined_implENS_9unit_test13basic_cstringIKcEES5_
FNDA:0,_ZN5boost10test_tools9tt_detail13context_frameC2ERKNS_9unit_test12lazy_ostreamE
FNDA:0,_ZN5boost10test_tools9tt_detail13context_frameD2Ev
FNDA:0,_ZN5boost10test_tools9tt_detail13context_framecvbEv
FNDA:0,_ZN5boost10test_tools18output_test_stream4Impl8get_charEv
FNDA:0,_ZN5boost10test_tools18output_test_stream4Impl14check_and_fillERNS0_16assertion_resultE
FNDA:0,_ZN5boost10test_tools18output_test_streamC1ENS_9unit_test13basic_cstringIKcEEbb
FNDA:0,_ZN5boost10test_tools18output_test_streamC2ENS_9unit_test13basic_cstringIKcEEbb
FNDA:0,_ZN5boost10test_tools18output_test_streamD0Ev
FNDA:0,_ZN5boost10test_tools18output_test_streamD1Ev
FNDA:0,_ZN5boost10test_tools18output_test_streamD2Ev
FNDA:0,_ZN5boost10test_tools18output_test_stream8is_emptyEb
FNDA:0,_ZN5boost10test_tools18output_test_stream12check_lengthEmb
FNDA:0,_ZN5boost10test_tools18output_test_stream8is_equalENS_9unit_test13basic_cstringIKcEEb
FNDA:0,_ZN5boost10test_tools16pretty_print_logENSt7__cxx1112basic_stringIcSt11char_traitsIcESaIcEEE
FNDA:0,_ZN5boost10test_tools18output_test_stream13match_patternEb
FNDA:0,_ZN5boost10test_tools9tt_detail15print_log_valueIbEclERSob
FNDA:0,_ZN5boost10test_tools18output_test_stream5flushEv
FNDA:0,_ZNK5boost10test_tools18output_test_stream32get_stream_string_representationB5cxx11Ev
FNDA:0,_ZN5boost10test_tools18output_test_stream6lengthEv
FNDA:0,_ZN5boost10test_tools18output_test_stream4syncEv
FNDA:0,_ZN5boost10test_tools9tt_detail15print_log_valueIcEclERSoc
FNF:33
FNH:2
DA:79,0
DA:81,0
DA:82,0
DA:85,0
DA:87,0
DA:88,0
DA:90,0
DA:92,0
DA:96,0
DA:97,0
DA:102,0
DA:104,0
DA:107,0
DA:111,0
DA:112,0
DA:117,0
DA:120,0
DA:121,0
DA:122,0
DA:123,0
DA:126,0
DA:128,0
DA:133,0
DA:135,0
DA:136,0
DA:141,0
DA:143,0
DA:144,0
DA:147,0
DA:149,0
DA:164,94
DA:171,94
DA:172,0
DA:173,0
DA:175,0
DA:176,0
DA:177,0
DA:179,0
DA:180,0
DA:182,0
DA:183,0
DA:185,0
DA:186,0
DA:189,0
DA:192,0
DA:193,0
DA:194,0
DA:196,0
DA:198,0
DA:199,0
DA:200,0
DA:202,94
DA:208,94
DA:209,94
DA:210,94
DA:211,94
DA:213,94
DA:215,94
DA:216,0
DA:218,94
DA:219,0
DA:220,94
DA:223,0
DA:225,0
DA:226,0
DA:227,0
DA:228,0
DA:229,0
DA:230,0
DA:232,0
DA:233,0
DA:234,0
DA:235,0
DA:236,0
DA:237,0
DA:238,0
DA:239,0
DA:241,0
DA:242,0
DA:243,0
DA:244,0
DA:245,0
DA:247,0
DA:248,0
DA:249,0
DA:251,0
DA:252,0
DA:253,0
DA:256,0
DA:257,0
DA:258,0
DA:259,0
DA:260,0
DA:261,0
DA:262,0
DA:265,0
DA:268,0
DA:269,0
DA:270,0
DA:272,0
DA:273,0
DA:275,0
DA:277,0
DA:278,0
DA:279,0
DA:280,0
DA:282,0
DA:283,0
DA:285,0
DA:288,0
DA:289,0
DA:290,0
DA:291,0
DA:293,0
DA:294,0
DA:295,0
DA:296,0
DA:297,0
DA:299,0
DA:300,0
DA:301,0
DA:303,0
DA:304,0
DA:305,0
DA:308,0
DA:309,0
DA:310,0
DA:312,0
DA:314,0
DA:315,0
DA:316,0
DA:319,94
DA:324,94
DA:334,94
DA:343,0
DA:344,0
DA:348,94
DA:349,94
DA:355,94
DA:356,94
DA:357,94
DA:358,94
DA:359,94
DA:360,94
DA:361,0
DA:362,0
DA:363,0
DA:364,0
DA:365,0
DA:366,0
DA:367,0
DA:368,0
DA:369,0
DA:370,0
DA:371,0
DA:372,0
DA:373,0
DA:374,0
DA:375,0
DA:376,0
DA:377,0
DA:380,94
DA:382,94
DA:384,94
DA:386,94
DA:387,94
DA:389,94
DA:390,94
DA:391,94
DA:392,94
DA:394,0
DA:395,0
DA:396,0
DA:398,0
DA:399,0
DA:400,0
DA:402,0
DA:403,0
DA:404,0
DA:405,0
DA:411,0
DA:417,0
DA:419,0
DA:421,0
DA:423,0
DA:424,0
DA:426,0
DA:427,0
DA:428,0
DA:430,0
DA:432,0
DA:435,0
DA:436,0
DA:438,0
DA:439,0
DA:444,0
DA:446,0
DA:449,0
DA:451,0
DA:453,0
DA:455,0
DA:456,0
DA:461,0
DA:463,0
DA:471,0
DA:473,0
DA:481,0
DA:483,0
DA:484,0
DA:493,0
DA:494,0
DA:496,0
DA:500,0
DA:502,0
DA:503,0
DA:507,0
DA:509,0
DA:527,0
DA:529,0
DA:531,0
DA:532,0
DA:534,0
DA:537,0
DA:539,0
DA:540,0
DA:541,0
DA:546,0
DA:547,0
DA:549,0
DA:550,0
DA:551,0
DA:552,0
DA:554,0
DA:556,0
DA:557,0
DA:560,0
DA:561,0
DA:562,0
DA:566,0
DA:568,0
DA:569,0
DA:574,0
DA:576,0
DA:578,0
DA:580,0
DA:582,0
DA:583,0
DA:585,0
DA:586,0
DA:591,0
DA:593,0
DA:595,0
DA:597,0
DA:599,0
DA:600,0
DA:602,0
DA:603,0
DA:608,0
DA:610,0
DA:612,0
DA:614,0
DA:616,0
DA:617,0
DA:619,0
DA:620,0
DA:624,0
DA:626,0
DA:627,0
DA:632,0
DA:636,0
DA:638,0
DA:639,0
DA:641,0
DA:643,0
DA:645,0
DA:646,0
DA:647,0
DA:650,0
DA:652,0
DA:653,0
DA:654,0
DA:656,0
DA:658,0
DA:659,0
DA:662,0
DA:665,0
DA:666,0
DA:667,0
DA:669,0
DA:671,0
DA:673,0
DA:675,0
DA:676,0
DA:679,0
DA:680,0
DA:681,0
DA:683,0
DA:687,0
DA:691,0
DA:694,0
DA:695,0
DA:697,0
DA:698,0
DA:699,0
DA:701,0
DA:702,0
DA:703,0
DA:704,0
DA:706,0
DA:707,0
DA:709,0
DA:711,0
DA:716,0
DA:717,0
DA:718,0
DA:719,0
DA:720,0
DA:722,0
DA:723,0
DA:726,0
DA:727,0
DA:728,0
DA:730,0
DA:731,0
DA:732,0
DA:733,0
DA:735,0
DA:738,0
DA:739,0
DA:740,0
DA:741,0
DA:747,0
DA:748,0
DA:749,0
DA:752,0
DA:754,0
DA:755,0
DA:756,0
DA:757,0
DA:758,0
DA:759,0
DA:761,0
DA:762,0
DA:765,0
DA:768,0
DA:769,0
DA:773,0
DA:774,0
DA:776,0
DA:777,0
DA:779,0
DA:790,0
DA:792,0
DA:793,0
DA:794,0
DA:798,0
DA:799,0
DA:801,0
DA:802,0
DA:807,0
DA:809,0
DA:812,0
DA:816,0
DA:820,0
DA:821,0
DA:827,0
DA:829,0
DA:831,0
DA:837,0
DA:843,0
DA:845,0
LF:371
LH:31
end_of_record
TN:
SF:/usr/include/boost/test/impl/test_tree.ipp
FN:103,106,_ZN5boost9unit_test9test_unit16add_preconditionERKNS_8functionIFNS_10test_tools16assertion_resultEmEEE
FN:111,148,_ZNK5boost9unit_test9test_unit19check_preconditionsEv
FN:153,159,_ZN5boost9unit_test9test_unit17increase_exp_failEm
FN:164,175,_ZNK5boost9unit_test9test_unit9full_nameB5cxx11Ev
FN:180,183,_ZN5boost9unit_test9test_unit9add_labelENS0_13basic_cstringIKcEE
FN:188,191,_ZNK5boost9unit_test9test_unit9has_labelENS0_13basic_cstringIKcEE
FN:199,204,_ZN5boost9unit_test9test_caseC2ENS0_13basic_cstringIKcEERKNS_8functionIFvvEEE
FN:208,213,_ZN5boost9unit_test9test_caseC2ENS0_13basic_cstringIKcEES4_mRKNS_8functionIFvvEEE
FN:223,227,_ZN5boost9unit_test10test_suiteC2ENS0_13basic_cstringIKcEES4_m
FN:231,235,_ZN5boost9unit_test10test_suiteC2ENS0_13basic_cstringIKcEE
FN:240,252,_ZN5boost9unit_test10test_suite3addEPNS0_9test_unitEmj
FN:257,262,_ZN5boost9unit_test10test_suite3addERKNS0_19test_unit_generatorEj
FN:267,275,_ZN5boost9unit_test10test_suite3addERKNS0_19test_unit_generatorERNS0_9decorator11collector_tE
FN:280,285,_ZN5boost9unit_test10test_suite3addENS_10shared_ptrINS0_19test_unit_generatorEEERNS0_9decorator11collector_tE
FN:290,315,_ZN5boost9unit_test10test_suite8generateEv
FN:320,337,_ZN5boost9unit_test10test_suite30check_for_duplicate_test_casesEv
FN:342,348,_ZN5boost9unit_test10test_suite6removeEm
FN:353,361,_ZNK5boost9unit_test10test_suite3getENS0_13basic_cstringIKcEE
FN:369,375,_ZN5boost9unit_test19master_test_suite_tC2Ev
FN:382,386,_ZN5boost9unit_test18traverse_test_treeERKNS0_9test_caseERNS0_17test_tree_visitorEb
FN:391,414,_ZN5boost9unit_test18traverse_test_treeERKNS0_10test_suiteERNS0_17test_tree_visitorEb
FN:419,425,_ZN5boost9unit_test18traverse_test_treeEmRNS0_17test_tree_visitorEb
FN:436,463,_ZN5boost9unit_test9ut_detail24normalize_test_case_nameB5cxx11ENS0_13basic_cstringIKcEE
FN:471,477,_ZN5boost9unit_test9ut_detail24auto_test_unit_registrarC2EPNS0_9test_caseERNS0_9decorator11collector_tEm
FN:481,500,_ZN5boost9unit_test9ut_detail24auto_test_unit_registrarC2ENS0_13basic_cstringIKcEES5_mRNS0_9decorator11collector_tE
FN:49,63,_ZN5boost9unit_test9test_unitC2ENS0_13basic_cstringIKcEES4_mNS0_14test_unit_typeE
FN:504,507,_ZN5boost9unit_test9ut_detail24auto_test_unit_registrarC2ERKNS0_19test_unit_generatorERNS0_9decorator11collector_tE
FN:511,514,_ZN5boost9unit_test9ut_detail24auto_test_unit_registrarC2ENS_10shared_ptrINS0_19test_unit_generatorEEERNS0_9decorator11collector_tE
FN:519,522,_ZN5boost9unit_test9ut_detail24auto_test_unit_registrarC2Ei
FN:532,536,_ZN5boost9unit_test14global_fixtureC2Ev
FN:538,545,_ZN5boost9unit_test14global_fixture25unregister_from_frameworkEv
FN:547,550,_ZN5boost9unit_test14global_fixtureD0Ev
FN:547,550,_ZN5boost9unit_test14global_fixtureD2Ev
FN:556,560,_ZN5boost9unit_test20global_configurationC2Ev
FN:562,570,_ZN5boost9unit_test20global_configuration25unregister_from_frameworkEv
FN:572,575,_ZN5boost9unit_test20global_configurationD0Ev
FN:572,575,_ZN5boost9unit_test20global_configurationD2Ev
FN:67,80,_ZN5boost9unit_test9test_unitC2ENS0_13basic_cstringIKcEE
FN:84,87,_ZN5boost9unit_test9test_unitD2Ev
FN:92,98,_ZN5boost9unit_test9test_unit10depends_onEPS1_
FNDA:0,_ZN5boost9unit_test9test_unit16add_preconditionERKNS_8functionIFNS_10test_tools16assertion_resultEmEEE
FNDA:47,_ZNK5boost9unit_test9test_unit19check_preconditionsEv
FNDA:0,_ZN5boost9unit_test9test_unit17increase_exp_failEm
FNDA:8,_ZNK5boost9unit_test9test_unit9full_nameB5cxx11Ev
FNDA:0,_ZN5boost9unit_test9test_unit9add_labelENS0_13basic_cstringIKcEE
FNDA:0,_ZNK5boost9unit_test9test_unit9has_labelENS0_13basic_cstringIKcEE
FNDA:0,_ZN5boost9unit_test9test_caseC2ENS0_13basic_cstringIKcEERKNS_8functionIFvvEEE
FNDA:46,_ZN5boost9unit_test9test_caseC2ENS0_13basic_cstringIKcEES4_mRKNS_8functionIFvvEEE
FNDA:0,_ZN5boost9unit_test10test_suiteC2ENS0_13basic_cstringIKcEES4_m
FNDA:1,_ZN5boost9unit_test10test_suiteC2ENS0_13basic_cstringIKcEE
FNDA:46,_ZN5boost9unit_test10test_suite3addEPNS0_9test_unitEmj
FNDA:0,_ZN5boost9unit_test10test_suite3addERKNS0_19test_unit_generatorEj
FNDA:0,_ZN5boost9unit_test10test_suite3addERKNS0_19test_unit_generatorERNS0_9decorator11collector_tE
FNDA:0,_ZN5boost9unit_test10test_suite3addENS_10shared_ptrINS0_19test_unit_generatorEEERNS0_9decorator11collector_tE
FNDA:1,_ZN5boost9unit_test10test_suite8generateEv
FNDA:1,_ZN5boost9unit_test10test_suite30check_for_duplicate_test_casesEv
FNDA:0,_ZN5boost9unit_test10test_suite6removeEm
FNDA:0,_ZNK5boost9unit_test10test_suite3getENS0_13basic_cstringIKcEE
FNDA:1,_ZN5boost9unit_test19master_test_suite_tC2Ev
FNDA:230,_ZN5boost9unit_test18traverse_test_treeERKNS0_9test_caseERNS0_17test_tree_visitorEb
FNDA:5,_ZN5boost9unit_test18traverse_test_treeERKNS0_10test_suiteERNS0_17test_tree_visitorEb
FNDA:234,_ZN5boost9unit_test18traverse_test_treeEmRNS0_17test_tree_visitorEb
FNDA:46,_ZN5boost9unit_test9ut_detail24normalize_test_case_nameB5cxx11ENS0_13basic_cstringIKcEE
FNDA:46,_ZN5boost9unit_test9ut_detail24auto_test_unit_registrarC2EPNS0_9test_caseERNS0_9decorator11collector_tEm
FNDA:0,_ZN5boost9unit_test9ut_detail24auto_test_unit_registrarC2ENS0_13basic_cstringIKcEES5_mRNS0_9decorator11collector_tE
FNDA:46,_ZN5boost9unit_test9test_unitC2ENS0_13basic_cstringIKcEES4_mNS0_14test_unit_typeE
FNDA:0,_ZN5boost9unit_test9ut_detail24auto_test_unit_registrarC2ERKNS0_19test_unit_generatorERNS0_9decorator11collector_tE
FNDA:0,_ZN5boost9unit_test9ut_detail24auto_test_unit_registrarC2ENS_10shared_ptrINS0_19test_unit_generatorEEERNS0_9decorator11collector_tE
FNDA:0,_ZN5boost9unit_test9ut_detail24auto_test_unit_registrarC2Ei
FNDA:0,_ZN5boost9unit_test14global_fixtureC2Ev
FNDA:0,_ZN5boost9unit_test14global_fixture25unregister_from_frameworkEv
FNDA:0,_ZN5boost9unit_test14global_fixtureD0Ev
FNDA:0,_ZN5boost9unit_test14global_fixtureD2Ev
FNDA:0,_ZN5boost9unit_test20global_configurationC2Ev
FNDA:0,_ZN5boost9unit_test20global_configuration25unregister_from_frameworkEv
FNDA:0,_ZN5boost9unit_test20global_configurationD0Ev
FNDA:0,_ZN5boost9unit_test20global_configurationD2Ev
FNDA:1,_ZN5boost9unit_test9test_unitC2ENS0_13basic_cstringIKcEE
FNDA:47,_ZN5boost9unit_test9test_unitD2Ev
FNDA:0,_ZN5boost9unit_test9test_unit10depends_onEPS1_
FNF:40
FNH:16
DA:49,46
DA:50,46
DA:51,46
DA:52,46
DA:53,46
DA:54,46
DA:55,46
DA:56,92
DA:57,46
DA:58,46
DA:59,46
DA:60,46
DA:61,138
DA:63,46
DA:67,1
DA:68,1
DA:69,1
DA:70,1
DA:71,1
DA:72,1
DA:73,2
DA:74,1
DA:75,1
DA:76,1
DA:77,1
DA:78,4
DA:80,1
DA:84,47
DA:86,47
DA:87,47
DA:92,0
DA:94,0
DA:97,0
DA:98,0
DA:103,0
DA:105,0
DA:106,0
DA:111,47
DA:113,47
DA:114,0
DA:116,0
DA:117,0
DA:118,0
DA:119,0
DA:120,0
DA:122,0
DA:123,0
DA:124,0
DA:125,0
DA:126,0
DA:127,0
DA:129,0
DA:130,0
DA:131,0
DA:132,0
DA:133,0
DA:136,47
DA:137,0
DA:138,0
DA:139,0
DA:140,0
DA:141,0
DA:142,0
DA:143,0
DA:144,0
DA:145,0
DA:147,47
DA:153,0
DA:155,0
DA:157,0
DA:158,0
DA:159,0
DA:164,8
DA:166,8
DA:167,8
DA:169,0
DA:170,0
DA:172,0
DA:174,0
DA:175,0
DA:180,0
DA:182,0
DA:183,0
DA:188,0
DA:190,0
DA:199,0
DA:201,0
DA:203,0
DA:204,0
DA:208,46
DA:210,46
DA:212,46
DA:213,46
DA:223,0
DA:224,0
DA:226,0
DA:227,0
DA:231,1
DA:232,1
DA:234,1
DA:235,1
DA:240,46
DA:242,46
DA:244,46
DA:245,46
DA:247,46
DA:248,0
DA:250,46
DA:251,0
DA:252,46
DA:257,0
DA:260,0
DA:261,0
DA:262,0
DA:267,0
DA:270,0
DA:271,0
DA:272,0
DA:274,0
DA:275,0
DA:280,0
DA:282,0
DA:283,0
DA:284,0
DA:285,0
DA:290,1
DA:294,1
DA:295,1
DA:296,0
DA:299,0
DA:300,0
DA:302,0
DA:306,1
DA:315,1
DA:320,1
DA:322,1
DA:323,1
DA:324,47
DA:325,46
DA:326,46
DA:327,46
DA:328,46
DA:334,46
DA:336,2
DA:337,1
DA:342,0
DA:344,0
DA:346,0
DA:347,0
DA:348,0
DA:353,0
DA:355,0
DA:356,0
DA:357,0
DA:360,0
DA:369,1
DA:371,1
DA:372,1
DA:374,1
DA:375,1
DA:382,230
DA:384,230
DA:385,230
DA:386,230
DA:391,5
DA:394,5
DA:395,0
DA:398,5
DA:399,0
DA:402,5
DA:403,235
DA:405,230
DA:406,230
DA:407,0
DA:409,230
DA:413,5
DA:419,234
DA:421,234
DA:422,230
DA:424,4
DA:425,234
DA:436,46
DA:438,46
DA:440,46
DA:441,0
DA:444,46
DA:445,46
DA:446,0
DA:449,46
DA:450,46
DA:451,46
DA:456,46
DA:457,368
DA:459,322
DA:462,46
DA:463,0
DA:471,46
DA:473,46
DA:475,46
DA:476,46
DA:477,46
DA:481,0
DA:483,0
DA:487,0
DA:488,0
DA:489,0
DA:492,0
DA:493,0
DA:496,0
DA:497,0
DA:499,0
DA:500,0
DA:504,0
DA:506,0
DA:507,0
DA:511,0
DA:513,0
DA:514,0
DA:519,0
DA:521,0
DA:522,0
DA:532,0
DA:534,0
DA:535,0
DA:536,0
DA:538,0
DA:541,0
DA:542,0
DA:544,0
DA:545,0
DA:547,0
DA:549,0
DA:550,0
DA:556,0
DA:558,0
DA:559,0
DA:560,0
DA:562,0
DA:566,0
DA:567,0
DA:569,0
DA:570,0
DA:572,0
DA:574,0
DA:575,0
LF:245
LH:108
end_of_record
TN:
SF:/usr/include/boost/test/impl/unit_test_log.ipp
FN:111,114,_ZN5boost9unit_test12_GLOBAL__N_130unit_test_log_data_helper_impl6streamEv
FN:116,119,_ZNK5boost9unit_test12_GLOBAL__N_130unit_test_log_data_helper_impl13get_log_levelEv
FN:124,129,_ZN5boost9unit_test12_GLOBAL__N_118unit_test_log_implC2Ev
FN:140,150,_ZNK5boost9unit_test12_GLOBAL__N_118unit_test_log_impl21has_entry_in_progressEv
FN:155,160,_ZN5boost9unit_test12_GLOBAL__N_118unit_test_log_impl14set_checkpointENS0_13basic_cstringIKcEEmS5_
FN:163,163,_ZN5boost9unit_test12_GLOBAL__N_110s_log_implEv
FN:169,182,_ZN5boost9unit_test12_GLOBAL__N_117log_entry_contextENS0_9log_levelERNS1_30unit_test_log_data_helper_implE
FN:187,190,_ZN5boost9unit_test12_GLOBAL__N_119clear_entry_contextEv
FN:200,200,_ZN5boost9unit_test15unit_test_log_t8instanceEv
FN:203,220,_ZN5boost9unit_test15unit_test_log_t9configureEv
FN:225,240,_ZN5boost9unit_test15unit_test_log_t10test_startEmm
FN:245,254,_ZN5boost9unit_test15unit_test_log_t11test_finishEv
FN:259,262,_ZN5boost9unit_test15unit_test_log_t12test_abortedEv
FN:267,280,_ZN5boost9unit_test15unit_test_log_t15test_unit_startERKNS0_9test_unitE
FN:285,301,_ZN5boost9unit_test15unit_test_log_t16test_unit_finishERKNS0_9test_unitEm
FN:306,320,_ZN5boost9unit_test15unit_test_log_t17test_unit_skippedERKNS0_9test_unitENS0_13basic_cstringIKcEE
FN:323,337,_ZN5boost9unit_test15unit_test_log_t17test_unit_abortedERKNS0_9test_unitE
FN:340,354,_ZN5boost9unit_test15unit_test_log_t19test_unit_timed_outERKNS0_9test_unitE
FN:359,384,_ZN5boost9unit_test15unit_test_log_t16exception_caughtERKNS_19execution_exceptionE
FN:389,392,_ZN5boost9unit_test15unit_test_log_t14set_checkpointENS0_13basic_cstringIKcEEmS4_
FN:397,400,_ZN5boost9unit_test14set_unix_slashEc
FN:403,427,_ZN5boost9unit_test15unit_test_log_tlsERKNS0_3log5beginE
FN:432,453,_ZN5boost9unit_test15unit_test_log_tlsERKNS0_3log3endE
FN:458,463,_ZN5boost9unit_test15unit_test_log_tlsENS0_9log_levelE
FN:468,473,_ZN5boost9unit_test15unit_test_log_tclENS0_9log_levelE
FN:478,514,_ZN5boost9unit_test15log_entry_startERNS0_12_GLOBAL__N_130unit_test_log_data_helper_implE
FN:51,56,_ZNK5boost9unit_test9ut_detail21entry_value_collectorlsERKNS0_12lazy_ostreamE
FN:519,535,_ZN5boost9unit_test15unit_test_log_tlsENS0_13basic_cstringIKcEE
FN:540,557,_ZN5boost9unit_test15unit_test_log_tlsERKNS0_12lazy_ostreamE
FN:562,575,_ZN5boost9unit_test15unit_test_log_t10set_streamERSo
FN:580,595,_ZN5boost9unit_test15unit_test_log_t10set_streamENS0_13output_formatERSo
FN:598,609,_ZNK5boost9unit_test15unit_test_log_t10get_streamENS0_13output_formatE
FN:61,66,_ZNK5boost9unit_test9ut_detail21entry_value_collectorlsENS0_13basic_cstringIKcEE
FN:614,628,_ZN5boost9unit_test15unit_test_log_t19set_threshold_levelENS0_9log_levelE
FN:633,650,_ZN5boost9unit_test15unit_test_log_t19set_threshold_levelENS0_13output_formatENS0_9log_levelE
FN:655,666,_ZN5boost9unit_test15unit_test_log_t10set_formatENS0_13output_formatE
FN:671,685,_ZN5boost9unit_test15unit_test_log_t10add_formatENS0_13output_formatE
FN:690,701,_ZN5boost9unit_test15unit_test_log_t13get_formatterENS0_13output_formatE
FN:70,74,_ZN5boost9unit_test9ut_detail21entry_value_collectorD2Ev
FN:705,721,_ZN5boost9unit_test15unit_test_log_t13add_formatterEPNS0_23unit_test_log_formatterE
FN:724,753,_ZN5boost9unit_test15unit_test_log_t13set_formatterEPNS0_23unit_test_log_formatterE
FN:762,765,_ZN5boost9unit_test23unit_test_log_formatter15log_entry_valueERSoRKNS0_12lazy_ostreamE
FN:768,771,_ZN5boost9unit_test23unit_test_log_formatter13set_log_levelENS0_9log_levelE
FN:774,777,_ZNK5boost9unit_test23unit_test_log_formatter13get_log_levelEv
FN:98,108,_ZN5boost9unit_test12_GLOBAL__N_130unit_test_log_data_helper_implC2EPNS0_23unit_test_log_formatterENS0_13output_formatEb
FNDA:122,_ZN5boost9unit_test12_GLOBAL__N_130unit_test_log_data_helper_impl6streamEv
FNDA:582,_ZNK5boost9unit_test12_GLOBAL__N_130unit_test_log_data_helper_impl13get_log_levelEv
FNDA:1,_ZN5boost9unit_test12_GLOBAL__N_118unit_test_log_implC2Ev
FNDA:301,_ZNK5boost9unit_test12_GLOBAL__N_118unit_test_log_impl21has_entry_in_progressEv
FNDA:324,_ZN5boost9unit_test12_GLOBAL__N_118unit_test_log_impl14set_checkpointENS0_13basic_cstringIKcEEmS5_
FNDA:2583,_ZN5boost9unit_test12_GLOBAL__N_110s_log_implEv
FNDA:8,_ZN5boost9unit_test12_GLOBAL__N_117log_entry_contextENS0_9log_levelERNS1_30unit_test_log_data_helper_implE
FNDA:102,_ZN5boost9unit_test12_GLOBAL__N_119clear_entry_contextEv
FNDA:1,_ZN5boost9unit_test15unit_test_log_t8instanceEv
FNDA:2,_ZN5boost9unit_test15unit_test_log_t9configureEv
FNDA:1,_ZN5boost9unit_test15unit_test_log_t10test_startEmm
FNDA:1,_ZN5boost9unit_test15unit_test_log_t11test_finishEv
FNDA:0,_ZN5boost9unit_test15unit_test_log_t12test_abortedEv
FNDA:47,_ZN5boost9unit_test15unit_test_log_t15test_unit_startERKNS0_9test_unitE
FNDA:47,_ZN5boost9unit_test15unit_test_log_t16test_unit_finishERKNS0_9test_unitEm
FNDA:0,_ZN5boost9unit_test15unit_test_log_t17test_unit_skippedERKNS0_9test_unitENS0_13basic_cstringIKcEE
FNDA:0,_ZN5boost9unit_test15unit_test_log_t17test_unit_abortedERKNS0_9test_unitE
FNDA:0,_ZN5boost9unit_test15unit_test_log_t19test_unit_timed_outERKNS0_9test_unitE
FNDA:0,_ZN5boost9unit_test15unit_test_log_t16exception_caughtERKNS_19execution_exceptionE
FNDA:324,_ZN5boost9unit_test15unit_test_log_t14set_checkpointENS0_13basic_cstringIKcEEmS4_
FNDA:912,_ZN5boost9unit_test14set_unix_slashEc
FNDA:102,_ZN5boost9unit_test15unit_test_log_tlsERKNS0_3log5beginE
FNDA:102,_ZN5boost9unit_test15unit_test_log_tlsERKNS0_3log3endE
FNDA:102,_ZN5boost9unit_test15unit_test_log_tlsENS0_9log_levelE
FNDA:8,_ZN5boost9unit_test15unit_test_log_tclENS0_9log_levelE
FNDA:8,_ZN5boost9unit_test15log_entry_startERNS0_12_GLOBAL__N_130unit_test_log_data_helper_implE
FNDA:8,_ZNK5boost9unit_test9ut_detail21entry_value_collectorlsERKNS0_12lazy_ostreamE
FNDA:470,_ZN5boost9unit_test15unit_test_log_tlsENS0_13basic_cstringIKcEE
FNDA:8,_ZN5boost9unit_test15unit_test_log_tlsERKNS0_12lazy_ostreamE
FNDA:1,_ZN5boost9unit_test15unit_test_log_t10set_streamERSo
FNDA:0,_ZN5boost9unit_test15unit_test_log_t10set_streamENS0_13output_formatERSo
FNDA:0,_ZNK5boost9unit_test15unit_test_log_t10get_streamENS0_13output_formatE
FNDA:0,_ZNK5boost9unit_test9ut_detail21entry_value_collectorlsENS0_13basic_cstringIKcEE
FNDA:1,_ZN5boost9unit_test15unit_test_log_t19set_threshold_levelENS0_9log_levelE
FNDA:0,_ZN5boost9unit_test15unit_test_log_t19set_threshold_levelENS0_13output_formatENS0_9log_levelE
FNDA:1,_ZN5boost9unit_test15unit_test_log_t10set_formatENS0_13output_formatE
FNDA:0,_ZN5boost9unit_test15unit_test_log_t10add_formatENS0_13output_formatE
FNDA:0,_ZN5boost9unit_test15unit_test_log_t13get_formatterENS0_13output_formatE
FNDA:8,_ZN5boost9unit_test9ut_detail21entry_value_collectorD2Ev
FNDA:0,_ZN5boost9unit_test15unit_test_log_t13add_formatterEPNS0_23unit_test_log_formatterE
FNDA:0,_ZN5boost9unit_test15unit_test_log_t13set_formatterEPNS0_23unit_test_log_formatterE
FNDA:0,_ZN5boost9unit_test23unit_test_log_formatter15log_entry_valueERSoRKNS0_12lazy_ostreamE
FNDA:4,_ZN5boost9unit_test23unit_test_log_formatter13set_log_levelENS0_9log_levelE
FNDA:585,_ZNK5boost9unit_test23unit_test_log_formatter13get_log_levelEv
FNDA:3,_ZN5boost9unit_test12_GLOBAL__N_130unit_test_log_data_helper_implC2EPNS0_23unit_test_log_formatterENS0_13output_formatEb
FNF:45
FNH:31
DA:51,8
DA:53,8
DA:55,8
DA:61,0
DA:63,0
DA:65,0
DA:70,8
DA:72,8
DA:73,8
DA:74,8
DA:98,3
DA:99,3
DA:100,3
DA:101,3
DA:102,3
DA:103,3
DA:104,3
DA:106,3
DA:107,3
DA:108,3
DA:111,122
DA:113,122
DA:116,582
DA:118,582
DA:124,1
DA:125,1
DA:126,1
DA:127,1
DA:128,1
DA:129,1
DA:140,301
DA:141,301
DA:142,591
DA:143,290
DA:145,298
DA:146,298
DA:147,8
DA:149,293
DA:155,324
DA:157,324
DA:158,324
DA:159,324
DA:160,324
DA:163,2583
DA:169,8
DA:171,8
DA:172,8
DA:173,8
DA:175,0
DA:176,0
DA:177,0
DA:179,0
DA:181,0
DA:187,102
DA:189,102
DA:190,102
DA:200,1
DA:203,2
DA:208,2
DA:209,4
DA:210,2
DA:211,8
DA:212,6
DA:214,6
DA:215,4
DA:217,2
DA:218,2
DA:220,2
DA:225,1
DA:227,1
DA:228,1
DA:229,2
DA:231,1
DA:233,1
DA:234,2
DA:236,2
DA:240,1
DA:245,1
DA:247,1
DA:248,2
DA:250,1
DA:251,1
DA:252,1
DA:254,1
DA:259,0
DA:261,0
DA:262,0
DA:267,47
DA:269,47
DA:270,0
DA:272,47
DA:273,94
DA:275,47
DA:276,47
DA:277,0
DA:278,47
DA:280,47
DA:285,47
DA:287,47
DA:289,47
DA:290,0
DA:292,47
DA:293,94
DA:295,47
DA:296,47
DA:297,0
DA:299,47
DA:301,47
DA:306,0
DA:308,0
DA:309,0
DA:311,0
DA:312,0
DA:314,0
DA:315,0
DA:316,0
DA:318,0
DA:320,0
DA:323,0
DA:325,0
DA:326,0
DA:328,0
DA:329,0
DA:331,0
DA:332,0
DA:333,0
DA:335,0
DA:337,0
DA:340,0
DA:342,0
DA:343,0
DA:345,0
DA:346,0
DA:348,0
DA:349,0
DA:350,0
DA:352,0
DA:354,0
DA:359,0
DA:362,0
DA:363,0
DA:364,0
DA:366,0
DA:367,0
DA:369,0
DA:370,0
DA:372,0
DA:374,0
DA:376,0
DA:378,0
DA:380,0
DA:383,0
DA:384,0
DA:389,324
DA:391,324
DA:392,324
DA:397,912
DA:399,912
DA:403,102
DA:405,102
DA:406,0
DA:408,102
DA:409,204
DA:411,102
DA:412,102
DA:415,102
DA:417,102
DA:420,102
DA:421,102
DA:424,102
DA:426,102
DA:432,102
DA:434,102
DA:435,8
DA:436,8
DA:437,16
DA:439,8
DA:440,8
DA:441,8
DA:442,8
DA:444,8
DA:446,8
DA:450,102
DA:452,102
DA:458,102
DA:460,102
DA:462,102
DA:468,8
DA:470,8
DA:472,8
DA:478,8
DA:480,8
DA:481,0
DA:483,8
DA:484,0
DA:485,0
DA:487,0
DA:488,8
DA:489,8
DA:491,8
DA:492,0
DA:493,0
DA:495,0
DA:496,0
DA:499,0
DA:501,0
DA:502,0
DA:503,0
DA:505,0
DA:506,0
DA:509,0
DA:512,8
DA:513,8
DA:519,470
DA:521,470
DA:522,0
DA:525,470
DA:526,940
DA:528,470
DA:529,470
DA:530,0
DA:531,0
DA:534,470
DA:540,8
DA:542,8
DA:543,0
DA:546,8
DA:547,16
DA:549,8
DA:550,8
DA:551,8
DA:552,8
DA:556,8
DA:562,1
DA:564,1
DA:565,0
DA:567,1
DA:568,4
DA:570,3
DA:572,3
DA:573,3
DA:580,0
DA:582,0
DA:583,0
DA:585,0
DA:586,0
DA:588,0
DA:589,0
DA:590,0
DA:591,0
DA:592,0
DA:598,0
DA:600,0
DA:601,0
DA:603,0
DA:604,0
DA:605,0
DA:608,0
DA:614,1
DA:616,1
DA:617,0
DA:619,1
DA:620,1
DA:621,4
DA:623,3
DA:624,3
DA:625,3
DA:627,1
DA:633,0
DA:635,0
DA:636,0
DA:638,0
DA:639,0
DA:640,0
DA:642,0
DA:643,0
DA:644,0
DA:645,0
DA:646,0
DA:649,0
DA:655,1
DA:657,1
DA:658,0
DA:660,1
DA:661,4
DA:663,3
DA:664,3
DA:671,0
DA:673,0
DA:674,0
DA:676,0
DA:677,0
DA:679,0
DA:680,0
DA:681,0
DA:682,0
DA:690,0
DA:692,0
DA:693,0
DA:695,0
DA:696,0
DA:697,0
DA:700,0
DA:705,0
DA:708,0
DA:709,0
DA:711,0
DA:712,0
DA:713,0
DA:717,0
DA:718,0
DA:719,0
DA:721,0
DA:724,0
DA:726,0
DA:727,0
DA:730,0
DA:731,0
DA:732,0
DA:733,0
DA:734,0
DA:736,0
DA:737,0
DA:738,0
DA:739,0
DA:740,0
DA:745,0
DA:746,0
DA:747,0
DA:748,0
DA:749,0
DA:752,0
DA:762,0
DA:764,0
DA:765,0
DA:768,4
DA:770,4
DA:771,4
DA:774,585
DA:776,585
LF:340
LH:180
end_of_record
TN:
SF:/usr/include/boost/test/impl/unit_test_main.ipp
FN:136,139,_ZN5boost9unit_test9ut_detail20dot_content_reporter5visitERKNS0_9test_caseE
FN:140,150,_ZN5boost9unit_test9ut_detail20dot_content_reporter16test_suite_startERKNS0_10test_suiteE
FN:151,156,_ZN5boost9unit_test9ut_detail20dot_content_reporter17test_suite_finishERKNS0_10test_suiteE
FN:166,166,_ZNK5boost9unit_test9ut_detail16labels_collector6labelsB5cxx11Ev
FN:169,173,_ZN5boost9unit_test9ut_detail16labels_collector5visitERKNS0_9test_unitE
FN:180,187,_ZN5boost9unit_test9ut_detail25framework_shutdown_helperD2Ev
FN:199,281,_ZN5boost9unit_test14unit_test_mainEPFPNS0_10test_suiteEiPPcEiS4_
FN:293,307,main
FN:58,58,_ZN5boost9unit_test9ut_detail20hrf_content_reporterC2ERSo
FN:61,70,_ZN5boost9unit_test9ut_detail20hrf_content_reporter16report_test_unitERKNS0_9test_unitE
FN:71,71,_ZN5boost9unit_test9ut_detail20hrf_content_reporter5visitERKNS0_9test_caseE
FN:72,78,_ZN5boost9unit_test9ut_detail20hrf_content_reporter16test_suite_startERKNS0_10test_suiteE
FN:79,82,_ZN5boost9unit_test9ut_detail20hrf_content_reporter17test_suite_finishERKNS0_10test_suiteE
FN:94,94,_ZN5boost9unit_test9ut_detail20dot_content_reporterC2ERSo
FN:97,135,_ZN5boost9unit_test9ut_detail20dot_content_reporter16report_test_unitERKNS0_9test_unitE
FNDA:0,_ZN5boost9unit_test9ut_detail20dot_content_reporter5visitERKNS0_9test_caseE
FNDA:0,_ZN5boost9unit_test9ut_detail20dot_content_reporter16test_suite_startERKNS0_10test_suiteE
FNDA:0,_ZN5boost9unit_test9ut_detail20dot_content_reporter17test_suite_finishERKNS0_10test_suiteE
FNDA:0,_ZNK5boost9unit_test9ut_detail16labels_collector6labelsB5cxx11Ev
FNDA:0,_ZN5boost9unit_test9ut_detail16labels_collector5visitERKNS0_9test_unitE
FNDA:1,_ZN5boost9unit_test9ut_detail25framework_shutdown_helperD2Ev
FNDA:1,_ZN5boost9unit_test14unit_test_mainEPFPNS0_10test_suiteEiPPcEiS4_
FNDA:1,main
FNDA:0,_ZN5boost9unit_test9ut_detail20hrf_content_reporterC2ERSo
FNDA:0,_ZN5boost9unit_test9ut_detail20hrf_content_reporter16report_test_unitERKNS0_9test_unitE
FNDA:0,_ZN5boost9unit_test9ut_detail20hrf_content_reporter5visitERKNS0_9test_caseE
FNDA:0,_ZN5boost9unit_test9ut_detail20hrf_content_reporter16test_suite_startERKNS0_10test_suiteE
FNDA:0,_ZN5boost9unit_test9ut_detail20hrf_content_reporter17test_suite_finishERKNS0_10test_suiteE
FNDA:0,_ZN5boost9unit_test9ut_detail20dot_content_reporterC2ERSo
FNDA:0,_ZN5boost9unit_test9ut_detail20dot_content_reporter16report_test_unitERKNS0_9test_unitE
FNF:15
FNH:3
DA:58,0
DA:61,0
DA:63,0
DA:64,0
DA:66,0
DA:67,0
DA:69,0
DA:70,0
DA:71,0
DA:72,0
DA:74,0
DA:75,0
DA:76,0
DA:77,0
DA:79,0
DA:81,0
DA:82,0
DA:94,0
DA:97,0
DA:99,0
DA:101,0
DA:103,0
DA:105,0
DA:107,0
DA:109,0
DA:110,0
DA:112,0
DA:113,0
DA:114,0
DA:115,0
DA:116,0
DA:117,0
DA:118,0
DA:120,0
DA:121,0
DA:123,0
DA:126,0
DA:127,0
DA:129,0
DA:130,0
DA:132,0
DA:135,0
DA:136,0
DA:138,0
DA:139,0
DA:140,0
DA:142,0
DA:143,0
DA:145,0
DA:147,0
DA:149,0
DA:151,0
DA:153,0
DA:154,0
DA:155,0
DA:156,0
DA:166,0
DA:169,0
DA:171,0
DA:172,0
DA:180,1
DA:182,1
DA:184,0
DA:185,0
DA:186,0
DA:187,1
DA:199,1
DA:201,1
DA:208,1
DA:210,1
DA:211,0
DA:215,0
DA:216,0
DA:219,1
DA:221,1
DA:222,1
DA:223,0
DA:224,0
DA:226,0
DA:227,0
DA:229,0
DA:231,0
DA:232,0
DA:234,0
DA:237,1
DA:238,0
DA:240,0
DA:242,0
DA:243,0
DA:244,0
DA:245,0
DA:247,0
DA:248,0
DA:250,1
DA:252,2
DA:253,1
DA:254,1
DA:256,0
DA:257,0
DA:258,0
DA:259,0
DA:260,0
DA:262,0
DA:263,0
DA:264,0
DA:265,0
DA:267,0
DA:268,0
DA:269,0
DA:270,0
DA:272,0
DA:273,0
DA:274,0
DA:275,0
DA:277,0
DA:278,0
DA:280,1
DA:281,1
DA:293,1
DA:303,1
DA:306,1
LF:121
LH:20
end_of_record
TN:
SF:/usr/include/boost/test/impl/unit_test_monitor.ipp
FN:33,33,_ZN5boost9unit_test19unit_test_monitor_t8instanceEv
FN:40,69,_ZN5boost9unit_test19unit_test_monitor_t21execute_and_translateERKNS_8functionIFvvEEEm
FNDA:1,_ZN5boost9unit_test19unit_test_monitor_t8instanceEv
FNDA:49,_ZN5boost9unit_test19unit_test_monitor_t21execute_and_translateERKNS_8functionIFvvEEEm
FNF:2
FNH:2
DA:33,1
DA:40,49
DA:43,49
DA:44,49
DA:45,49
DA:46,49
DA:47,49
DA:49,49
DA:51,0
DA:52,0
DA:53,0
DA:56,0
DA:57,0
DA:58,0
DA:59,0
DA:60,0
DA:61,0
DA:62,0
DA:63,0
DA:64,0
DA:66,0
DA:68,49
LF:22
LH:9
end_of_record
TN:
SF:/usr/include/boost/test/impl/unit_test_parameters.ipp
FN:108,647,_ZN5boost9unit_test14runtime_config12_GLOBAL__N_119register_parametersERNS_7runtime16parameters_storeE
FN:133,135,_ZZN5boost9unit_test14runtime_config12_GLOBAL__N_119register_parametersERNS_7runtime16parameters_storeEENKUlNS0_13basic_cstringIKcEEE_clES8_
FN:657,745,_ZN5boost9unit_test14runtime_config4initERiPPc
FN:750,753,_ZN5boost9unit_test14runtime_config14argument_storeEv
FN:758,761,_ZN5boost9unit_test14runtime_config12save_patternEv
FNDA:1,_ZN5boost9unit_test14runtime_config12_GLOBAL__N_119register_parametersERNS_7runtime16parameters_storeE
FNDA:0,_ZZN5boost9unit_test14runtime_config12_GLOBAL__N_119register_parametersERNS_7runtime16parameters_storeEENKUlNS0_13basic_cstringIKcEEE_clES8_
FNDA:1,_ZN5boost9unit_test14runtime_config4initERiPPc
FNDA:220,_ZN5boost9unit_test14runtime_config14argument_storeEv
FNDA:0,_ZN5boost9unit_test14runtime_config12save_patternEv
FNF:5
FNH:3
DA:108,1
DA:111,2
DA:112,2
DA:114,1
DA:120,1
DA:122,1
DA:123,1
DA:124,1
DA:129,2
DA:130,1
DA:132,1
DA:133,1
DA:134,0
DA:137,1
DA:139,1
DA:140,1
DA:145,2
DA:146,2
DA:147,1
DA:149,1
DA:151,1
DA:152,1
DA:153,1
DA:158,2
DA:159,2
DA:160,1
DA:164,1
DA:166,2
DA:174,1
DA:176,1
DA:177,1
DA:178,1
DA:183,2
DA:184,2
DA:185,2
DA:186,1
DA:188,1
DA:190,1
DA:191,1
DA:192,1
DA:197,2
DA:198,2
DA:199,1
DA:201,1
DA:203,1
DA:204,1
DA:209,2
DA:210,2
DA:211,2
DA:212,2
DA:213,2
DA:214,1
DA:220,1
DA:222,1
DA:223,1
DA:228,2
DA:229,2
DA:230,2
DA:231,2
DA:232,1
DA:235,1
DA:236,1
DA:237,1
DA:244,1
DA:249,1
DA:250,1
DA:251,1
DA:256,2
DA:257,2
DA:258,2
DA:260,1
DA:262,1
DA:263,1
DA:268,2
DA:269,2
DA:270,2
DA:271,1
DA:274,1
DA:275,1
DA:276,1
DA:277,1
DA:278,1
DA:287,1
DA:293,1
DA:295,1
DA:296,1
DA:297,1
DA:302,2
DA:303,2
DA:304,2
DA:305,1
DA:308,1
DA:309,1
DA:310,1
DA:311,1
DA:312,1
DA:313,1
DA:314,1
DA:315,1
DA:316,1
DA:317,1
DA:318,1
DA:319,1
DA:335,1
DA:341,1
DA:343,1
DA:344,1
DA:345,1
DA:350,2
DA:351,2
DA:352,2
DA:353,1
DA:357,1
DA:359,1
DA:360,1
DA:361,1
DA:366,2
DA:367,2
DA:368,1
DA:371,1
DA:372,1
DA:373,1
DA:374,1
DA:382,3
DA:383,2
DA:388,1
DA:390,1
DA:391,1
DA:392,1
DA:397,2
DA:398,2
DA:399,2
DA:400,1
DA:401,2
DA:402,2
DA:405,1
DA:407,1
DA:408,1
DA:413,1
DA:414,1
DA:415,2
DA:416,2
DA:417,2
DA:418,2
DA:419,1
DA:427,1
DA:429,1
DA:430,1
DA:435,2
DA:436,2
DA:437,2
DA:438,1
DA:441,1
DA:442,1
DA:443,1
DA:444,1
DA:452,1
DA:458,1
DA:460,1
DA:461,1
DA:462,1
DA:467,2
DA:468,2
DA:469,2
DA:470,1
DA:473,1
DA:474,1
DA:475,1
DA:476,1
DA:477,1
DA:486,1
DA:489,1
DA:491,1
DA:492,1
DA:493,1
DA:498,2
DA:499,2
DA:500,2
DA:501,2
DA:502,2
DA:505,1
DA:507,1
DA:508,1
DA:513,2
DA:514,2
DA:515,2
DA:516,1
DA:521,1
DA:523,1
DA:524,1
DA:525,1
DA:530,2
DA:531,2
DA:532,2
DA:533,2
DA:536,1
DA:538,1
DA:539,1
DA:540,1
DA:545,2
DA:546,2
DA:547,2
DA:548,1
DA:553,2
DA:555,1
DA:557,1
DA:558,1
DA:559,1
DA:564,2
DA:565,2
DA:566,2
DA:570,1
DA:572,1
DA:573,1
DA:578,2
DA:579,2
DA:580,1
DA:582,1
DA:584,1
DA:585,1
DA:586,1
DA:591,2
DA:592,2
DA:593,2
DA:594,1
DA:597,1
DA:599,1
DA:600,1
DA:605,2
DA:606,2
DA:607,1
DA:610,1
DA:612,1
DA:613,1
DA:614,1
DA:619,2
DA:620,2
DA:621,2
DA:622,1
DA:628,1
DA:629,1
DA:630,1
DA:635,1
DA:636,1
DA:637,1
DA:638,1
DA:643,1
DA:644,1
DA:645,1
DA:646,1
DA:647,1
DA:657,1
DA:659,1
DA:663,1
DA:664,1
DA:667,1
DA:670,1
DA:671,1
DA:674,1
DA:677,1
DA:680,1
DA:681,1
DA:682,1
DA:686,1
DA:687,0
DA:688,0
DA:690,1
DA:691,0
DA:692,0
DA:694,1
DA:695,0
DA:697,0
DA:699,0
DA:703,1
DA:704,0
DA:705,0
DA:706,0
DA:710,0
DA:711,0
DA:712,0
DA:713,0
DA:714,0
DA:716,0
DA:717,0
DA:719,0
DA:720,0
DA:721,0
DA:722,0
DA:724,0
DA:725,0
DA:727,0
DA:728,0
DA:730,0
DA:731,0
DA:732,0
DA:735,0
DA:736,0
DA:737,0
DA:738,0
DA:740,0
DA:741,0
DA:743,0
DA:744,0
DA:745,1
DA:750,220
DA:752,220
DA:758,0
DA:760,0
LF:308
LH:269
end_of_record
TN:
SF:/usr/include/boost/test/impl/xml_log_formatter.ipp
FN:108,115,_ZN5boost9unit_test6output17xml_log_formatter17test_unit_skippedERSoRKNS0_9test_unitENS0_13basic_cstringIKcEE
FN:120,139,_ZN5boost9unit_test6output17xml_log_formatter19log_exception_startERSoRKNS0_19log_checkpoint_dataERKNS_19execution_exceptionE
FN:144,147,_ZN5boost9unit_test6output17xml_log_formatter20log_exception_finishERSo
FN:152,163,_ZN5boost9unit_test6output17xml_log_formatter15log_entry_startERSoRKNS0_14log_entry_dataENS0_23unit_test_log_formatter15log_entry_typesE
FN:168,171,_ZN5boost9unit_test6output17xml_log_formatter15log_entry_valueERSoNS0_13basic_cstringIKcEE
FN:176,186,_ZN5boost9unit_test6output17xml_log_formatter16log_entry_finishERSo
FN:191,199,_ZN5boost9unit_test6output17xml_log_formatter19entry_context_startERSoNS0_9log_levelE
FN:204,207,_ZN5boost9unit_test6output17xml_log_formatter20entry_context_finishERSoNS0_9log_levelE
FN:212,215,_ZN5boost9unit_test6output17xml_log_formatter17log_entry_contextERSoNS0_9log_levelENS0_13basic_cstringIKcEE
FN:40,43,_ZN5boost9unit_test6outputL12tu_type_nameERKNS0_9test_unitE
FN:50,53,_ZN5boost9unit_test6output17xml_log_formatter9log_startERSom
FN:58,61,_ZN5boost9unit_test6output17xml_log_formatter10log_finishERSo
FN:66,78,_ZN5boost9unit_test6output17xml_log_formatter14log_build_infoERSob
FN:83,92,_ZN5boost9unit_test6output17xml_log_formatter15test_unit_startERSoRKNS0_9test_unitE
FN:97,103,_ZN5boost9unit_test6output17xml_log_formatter16test_unit_finishERSoRKNS0_9test_unitEm
FNDA:0,_ZN5boost9unit_test6output17xml_log_formatter17test_unit_skippedERSoRKNS0_9test_unitENS0_13basic_cstringIKcEE
FNDA:0,_ZN5boost9unit_test6output17xml_log_formatter19log_exception_startERSoRKNS0_19log_checkpoint_dataERKNS_19execution_exceptionE
FNDA:0,_ZN5boost9unit_test6output17xml_log_formatter20log_exception_finishERSo
FNDA:0,_ZN5boost9unit_test6output17xml_log_formatter15log_entry_startERSoRKNS0_14log_entry_dataENS0_23unit_test_log_formatter15log_entry_typesE
FNDA:0,_ZN5boost9unit_test6output17xml_log_formatter15log_entry_valueERSoNS0_13basic_cstringIKcEE
FNDA:0,_ZN5boost9unit_test6output17xml_log_formatter16log_entry_finishERSo
FNDA:0,_ZN5boost9unit_test6output17xml_log_formatter19entry_context_startERSoNS0_9log_levelE
FNDA:0,_ZN5boost9unit_test6output17xml_log_formatter20entry_context_finishERSoNS0_9log_levelE
FNDA:0,_ZN5boost9unit_test6output17xml_log_formatter17log_entry_contextERSoNS0_9log_levelENS0_13basic_cstringIKcEE
FNDA:0,_ZN5boost9unit_test6outputL12tu_type_nameERKNS0_9test_unitE
FNDA:0,_ZN5boost9unit_test6output17xml_log_formatter9log_startERSom
FNDA:0,_ZN5boost9unit_test6output17xml_log_formatter10log_finishERSo
FNDA:0,_ZN5boost9unit_test6output17xml_log_formatter14log_build_infoERSob
FNDA:0,_ZN5boost9unit_test6output17xml_log_formatter15test_unit_startERSoRKNS0_9test_unitE
FNDA:0,_ZN5boost9unit_test6output17xml_log_formatter16test_unit_finishERSoRKNS0_9test_unitEm
FNF:15
FNH:0
DA:40,0
DA:42,0
DA:50,0
DA:52,0
DA:53,0
DA:58,0
DA:60,0
DA:61,0
DA:66,0
DA:68,0
DA:70,0
DA:71,0
DA:72,0
DA:73,0
DA:74,0
DA:76,0
DA:78,0
DA:83,0
DA:85,0
DA:87,0
DA:88,0
DA:89,0
DA:91,0
DA:92,0
DA:97,0
DA:99,0
DA:100,0
DA:102,0
DA:103,0
DA:108,0
DA:110,0
DA:111,0
DA:112,0
DA:113,0
DA:114,0
DA:115,0
DA:120,0
DA:122,0
DA:124,0
DA:125,0
DA:127,0
DA:128,0
DA:130,0
DA:132,0
DA:133,0
DA:134,0
DA:135,0
DA:136,0
DA:137,0
DA:139,0
DA:144,0
DA:146,0
DA:147,0
DA:152,0
DA:154,0
DA:156,0
DA:157,0
DA:158,0
DA:159,0
DA:160,0
DA:162,0
DA:163,0
DA:168,0
DA:170,0
DA:171,0
DA:176,0
DA:178,0
DA:179,0
DA:180,0
DA:183,0
DA:185,0
DA:186,0
DA:191,0
DA:193,0
DA:194,0
DA:195,0
DA:198,0
DA:199,0
DA:204,0
DA:206,0
DA:207,0
DA:212,0
DA:214,0
DA:215,0
LF:84
LH:0
end_of_record
TN:
SF:/usr/include/boost/test/impl/xml_report_formatter.ipp
FN:103,107,_ZN5boost9unit_test6output20xml_report_formatter22do_confirmation_reportERKNS0_9test_unitERSo
FN:35,38,_ZN5boost9unit_test6output20xml_report_formatter20results_report_startERSo
FN:43,46,_ZN5boost9unit_test6output20xml_report_formatter21results_report_finishERSo
FN:52,90,_ZN5boost9unit_test6output20xml_report_formatter22test_unit_report_startERKNS0_9test_unitERSo
FN:95,98,_ZN5boost9unit_test6output20xml_report_formatter23test_unit_report_finishERKNS0_9test_unitERSo
FNDA:0,_ZN5boost9unit_test6output20xml_report_formatter22do_confirmation_reportERKNS0_9test_unitERSo
FNDA:0,_ZN5boost9unit_test6output20xml_report_formatter20results_report_startERSo
FNDA:0,_ZN5boost9unit_test6output20xml_report_formatter21results_report_finishERSo
FNDA:0,_ZN5boost9unit_test6output20xml_report_formatter22test_unit_report_startERKNS0_9test_unitERSo
FNDA:0,_ZN5boost9unit_test6output20xml_report_formatter23test_unit_report_finishERKNS0_9test_unitERSo
FNF:5
FNH:0
DA:35,0
DA:37,0
DA:38,0
DA:43,0
DA:45,0
DA:46,0
DA:52,0
DA:54,0
DA:56,0
DA:58,0
DA:59,0
DA:60,0
DA:61,0
DA:62,0
DA:63,0
DA:64,0
DA:65,0
DA:67,0
DA:69,0
DA:70,0
DA:71,0
DA:72,0
DA:73,0
DA:74,0
DA:75,0
DA:78,0
DA:79,0
DA:80,0
DA:81,0
DA:82,0
DA:83,0
DA:84,0
DA:85,0
DA:89,0
DA:90,0
DA:95,0
DA:97,0
DA:98,0
DA:103,0
DA:105,0
DA:106,0
DA:107,0
LF:42
LH:0
end_of_record
TN:
SF:/usr/include/boost/test/output/compiler_log_formatter.hpp
FN:36,36,_ZN5boost9unit_test6output22compiler_log_formatterC2Ev
FNDA:1,_ZN5boost9unit_test6output22compiler_log_formatterC2Ev
FNF:1
FNH:1
DA:36,1
LF:1
LH:1
end_of_record
TN:
SF:/usr/include/boost/test/output/junit_log_formatter.hpp
FN:126,134,_ZN5boost9unit_test6output19junit_log_formatter13set_log_levelENS0_9log_levelE
FN:147,152,_ZN5boost9unit_test6output19junit_log_formatter21get_current_log_entryEv
FN:49,50,_ZN5boost9unit_test6output10junit_impl16junit_log_helper15assertion_entryC2Ev
FN:70,71,_ZN5boost9unit_test6output10junit_impl16junit_log_helperC2Ev
FN:73,79,_ZN5boost9unit_test6output10junit_impl16junit_log_helper5clearEv
FN:92,99,_ZN5boost9unit_test6output19junit_log_formatterC2Ev
FNDA:2,_ZN5boost9unit_test6output19junit_log_formatter13set_log_levelENS0_9log_levelE
FNDA:0,_ZN5boost9unit_test6output19junit_log_formatter21get_current_log_entryEv
FNDA:0,_ZN5boost9unit_test6output10junit_impl16junit_log_helper15assertion_entryC2Ev
FNDA:1,_ZN5boost9unit_test6output10junit_impl16junit_log_helperC2Ev
FNDA:0,_ZN5boost9unit_test6output10junit_impl16junit_log_helper5clearEv
FNDA:1,_ZN5boost9unit_test6output19junit_log_formatterC2Ev
FNF:6
FNH:3
DA:49,0
DA:50,0
DA:70,1
DA:71,1
DA:73,0
DA:74,0
DA:75,0
DA:76,0
DA:77,0
DA:78,0
DA:79,0
DA:92,1
DA:97,1
DA:98,1
DA:99,1
DA:126,2
DA:128,2
DA:129,1
DA:130,1
DA:131,0
DA:133,2
DA:134,2
DA:147,0
DA:148,0
DA:149,0
DA:150,0
DA:151,0
LF:27
LH:12
end_of_record
TN:
SF:/usr/include/boost/test/output/plain_report_formatter.hpp
FN:36,36,_ZN5boost9unit_test6output22plain_report_formatterC2Ev
FNDA:2,_ZN5boost9unit_test6output22plain_report_formatterC2Ev
FNF:1
FNH:1
DA:36,2
LF:1
LH:1
end_of_record
TN:
SF:/usr/include/boost/test/output/xml_log_formatter.hpp
FNF:0
FNH:0
LF:0
LH:0
end_of_record
TN:
SF:/usr/include/boost/test/output/xml_report_formatter.hpp
FNF:0
FNH:0
LF:0
LH:0
end_of_record
TN:
SF:/usr/include/boost/test/progress_monitor.hpp
FN:43,43,_ZN5boost9unit_test18progress_monitor_t8priorityEv
FN:52,52,_ZN5boost9unit_test18progress_monitor_tD0Ev
FN:52,52,_ZN5boost9unit_test18progress_monitor_tD2Ev
FNDA:0,_ZN5boost9unit_test18progress_monitor_t8priorityEv
FNDA:0,_ZN5boost9unit_test18progress_monitor_tD0Ev
FNDA:1,_ZN5boost9unit_test18progress_monitor_tD2Ev
FNF:3
FNH:1
DA:43,0
DA:52,1
LF:2
LH:1
end_of_record
TN:
SF:/usr/include/boost/test/results_collector.hpp
FN:135,135,_ZN5boost9unit_test19results_collector_t8priorityEv
FN:143,143,_ZN5boost9unit_test19results_collector_tD0Ev
FN:143,143,_ZN5boost9unit_test19results_collector_tD2Ev
FN:41,41,_ZN5boost9unit_test12_GLOBAL__N_122first_failed_assertionEv
FN:57,57,_ZN5boost9unit_test12test_results19readonly_property57C2Ev
FN:61,61,_ZN5boost9unit_test12test_results19readonly_property61C2Ev
FNDA:12,_ZN5boost9unit_test19results_collector_t8priorityEv
FNDA:0,_ZN5boost9unit_test19results_collector_tD0Ev
FNDA:1,_ZN5boost9unit_test19results_collector_tD2Ev
FNDA:0,_ZN5boost9unit_test12_GLOBAL__N_122first_failed_assertionEv
FNDA:611,_ZN5boost9unit_test12test_results19readonly_property57C2Ev
FNDA:141,_ZN5boost9unit_test12test_results19readonly_property61C2Ev
FNF:6
FNH:4
DA:41,0
DA:57,611
DA:61,141
DA:135,12
DA:143,1
LF:5
LH:4
end_of_record
TN:
SF:/usr/include/boost/test/results_reporter.hpp
FN:46,46,_ZN5boost9unit_test16results_reporter6formatD0Ev
FN:46,46,_ZN5boost9unit_test16results_reporter6formatD2Ev
FNDA:0,_ZN5boost9unit_test16results_reporter6formatD0Ev
FNDA:2,_ZN5boost9unit_test16results_reporter6formatD2Ev
FNF:2
FNH:1
DA:46,2
LF:1
LH:1
end_of_record
TN:
SF:/usr/include/boost/test/test_framework_init_observer.hpp
FN:37,37,_ZN5boost9unit_test25framework_init_observer_tC2Ev
FN:45,45,_ZN5boost9unit_test25framework_init_observer_t8priorityEv
FNDA:1,_ZN5boost9unit_test25framework_init_observer_tC2Ev
FNDA:27,_ZN5boost9unit_test25framework_init_observer_t8priorityEv
FNF:2
FNH:2
DA:37,1
DA:45,27
LF:2
LH:2
end_of_record
TN:
SF:/usr/include/boost/test/tools/assertion_result.hpp
FN:52,54,_ZN5boost10test_tools16assertion_resultC2Eb
FN:60,60,_ZNK5boost10test_tools16assertion_resultntEv
FN:61,61,_ZN5boost10test_tools16assertion_resultaSEb
FN:65,65,_ZN5boost10test_tools16assertion_result19readonly_property65C2Eb
FN:68,68,_ZNK5boost10test_tools16assertion_result17has_empty_messageEv
FN:69,75,_ZN5boost10test_tools16assertion_result7messageEv
FN:76,76,_ZNK5boost10test_tools16assertion_result7messageEv
FNDA:141,_ZN5boost10test_tools16assertion_resultC2Eb
FNDA:141,_ZNK5boost10test_tools16assertion_resultntEv
FNDA:0,_ZN5boost10test_tools16assertion_resultaSEb
FNDA:141,_ZN5boost10test_tools16assertion_result19readonly_property65C2Eb
FNDA:94,_ZNK5boost10test_tools16assertion_result17has_empty_messageEv
FNDA:0,_ZN5boost10test_tools16assertion_result7messageEv
FNDA:0,_ZNK5boost10test_tools16assertion_result7messageEv
FNF:7
FNH:4
DA:52,141
DA:53,141
DA:54,141
DA:60,141
DA:61,0
DA:65,141
DA:68,94
DA:69,0
DA:71,0
DA:72,0
DA:74,0
DA:76,0
LF:12
LH:6
end_of_record
TN:
SF:/usr/include/boost/test/tools/detail/fwd.hpp
FN:45,45,_ZN5boost10test_tools9tt_detail10dummy_condEv
FNDA:94,_ZN5boost10test_tools9tt_detail10dummy_condEv
FNF:1
FNH:1
DA:45,94
LF:1
LH:1
end_of_record
TN:
SF:/usr/include/boost/test/tools/detail/print_helper.hpp
FN:118,118,_ZN5boost10test_tools9tt_detail15print_log_valueIA11_cE13set_precisionERSoN4mpl_5bool_ILb1EEE
FN:118,118,_ZN5boost10test_tools9tt_detail15print_log_valueIA16_cE13set_precisionERSoN4mpl_5bool_ILb1EEE
FN:118,118,_ZN5boost10test_tools9tt_detail15print_log_valueIA17_cE13set_precisionERSoN4mpl_5bool_ILb1EEE
FN:118,118,_ZN5boost10test_tools9tt_detail15print_log_valueIA1_cE13set_precisionERSoN4mpl_5bool_ILb1EEE
FN:118,118,_ZN5boost10test_tools9tt_detail15print_log_valueIA25_cE13set_precisionERSoN4mpl_5bool_ILb1EEE
FN:118,118,_ZN5boost10test_tools9tt_detail15print_log_valueIA26_cE13set_precisionERSoN4mpl_5bool_ILb1EEE
FN:118,118,_ZN5boost10test_tools9tt_detail15print_log_valueIA2_cE13set_precisionERSoN4mpl_5bool_ILb1EEE
FN:118,118,_ZN5boost10test_tools9tt_detail15print_log_valueIA30_cE13set_precisionERSoN4mpl_5bool_ILb1EEE
FN:118,118,_ZN5boost10test_tools9tt_detail15print_log_valueIA33_cE13set_precisionERSoN4mpl_5bool_ILb1EEE
FN:118,118,_ZN5boost10test_tools9tt_detail15print_log_valueIA34_cE13set_precisionERSoN4mpl_5bool_ILb1EEE
FN:118,118,_ZN5boost10test_tools9tt_detail15print_log_valueIA3_cE13set_precisionERSoN4mpl_5bool_ILb1EEE
FN:118,118,_ZN5boost10test_tools9tt_detail15print_log_valueIA42_cE13set_precisionERSoN4mpl_5bool_ILb1EEE
FN:118,118,_ZN5boost10test_tools9tt_detail15print_log_valueIA4_cE13set_precisionERSoN4mpl_5bool_ILb1EEE
FN:118,118,_ZN5boost10test_tools9tt_detail15print_log_valueIA5_cE13set_precisionERSoN4mpl_5bool_ILb1EEE
FN:118,118,_ZN5boost10test_tools9tt_detail15print_log_valueIA6_cE13set_precisionERSoN4mpl_5bool_ILb1EEE
FN:118,118,_ZN5boost10test_tools9tt_detail15print_log_valueIA7_cE13set_precisionERSoN4mpl_5bool_ILb1EEE
FN:118,118,_ZN5boost10test_tools9tt_detail15print_log_valueIA8_cE13set_precisionERSoN4mpl_5bool_ILb1EEE
FN:195,195,_ZN5boost10test_tools9tt_detail14print_helper_tIA11_cEC2ERA11_Kc
FN:195,195,_ZN5boost10test_tools9tt_detail14print_helper_tIA16_cEC2ERA16_Kc
FN:195,195,_ZN5boost10test_tools9tt_detail14print_helper_tIA17_cEC2ERA17_Kc
FN:195,195,_ZN5boost10test_tools9tt_detail14print_helper_tIA1_cEC2ERA1_Kc
FN:195,195,_ZN5boost10test_tools9tt_detail14print_helper_tIA25_cEC2ERA25_Kc
FN:195,195,_ZN5boost10test_tools9tt_detail14print_helper_tIA26_cEC2ERA26_Kc
FN:195,195,_ZN5boost10test_tools9tt_detail14print_helper_tIA2_cEC2ERA2_Kc
FN:195,195,_ZN5boost10test_tools9tt_detail14print_helper_tIA30_cEC2ERA30_Kc
FN:195,195,_ZN5boost10test_tools9tt_detail14print_helper_tIA33_cEC2ERA33_Kc
FN:195,195,_ZN5boost10test_tools9tt_detail14print_helper_tIA34_cEC2ERA34_Kc
FN:195,195,_ZN5boost10test_tools9tt_detail14print_helper_tIA3_cEC2ERA3_Kc
FN:195,195,_ZN5boost10test_tools9tt_detail14print_helper_tIA42_cEC2ERA42_Kc
FN:195,195,_ZN5boost10test_tools9tt_detail14print_helper_tIA4_cEC2ERA4_Kc
FN:195,195,_ZN5boost10test_tools9tt_detail14print_helper_tIA5_cEC2ERA5_Kc
FN:195,195,_ZN5boost10test_tools9tt_detail14print_helper_tIA6_cEC2ERA6_Kc
FN:195,195,_ZN5boost10test_tools9tt_detail14print_helper_tIA7_cEC2ERA7_Kc
FN:195,195,_ZN5boost10test_tools9tt_detail14print_helper_tIA8_cEC2ERA8_Kc
FN:195,195,_ZN5boost10test_tools9tt_detail14print_helper_tINS2_IA17_cEEEC2ERKS4_
FN:195,195,_ZN5boost10test_tools9tt_detail14print_helper_tINS2_IA1_cEEEC2ERKS4_
FN:195,195,_ZN5boost10test_tools9tt_detail14print_helper_tINS2_IA2_cEEEC2ERKS4_
FN:195,195,_ZN5boost10test_tools9tt_detail14print_helper_tINS2_IA33_cEEEC2ERKS4_
FN:195,195,_ZN5boost10test_tools9tt_detail14print_helper_tINS2_IA3_cEEEC2ERKS4_
FN:195,195,_ZN5boost10test_tools9tt_detail14print_helper_tINS2_IA4_cEEEC2ERKS4_
FN:195,195,_ZN5boost10test_tools9tt_detail14print_helper_tINS2_IA5_cEEEC2ERKS4_
FN:195,195,_ZN5boost10test_tools9tt_detail14print_helper_tINS2_IA6_cEEEC2ERKS4_
FN:195,195,_ZN5boost10test_tools9tt_detail14print_helper_tINS2_IA7_cEEEC2ERKS4_
FN:195,195,_ZN5boost10test_tools9tt_detail14print_helper_tINS2_INSt7__cxx1112basic_stringIcSt11char_traitsIcESaIcEEEEEEC2ERKS9_
FN:195,195,_ZN5boost10test_tools9tt_detail14print_helper_tINS2_IbEEEC2ERKS3_
FN:195,195,_ZN5boost10test_tools9tt_detail14print_helper_tINS2_IiEEEC2ERKS3_
FN:195,195,_ZN5boost10test_tools9tt_detail14print_helper_tINS_9unit_test13basic_cstringIKcEEEC2ERKS6_
FN:195,195,_ZN5boost10test_tools9tt_detail14print_helper_tINSt7__cxx1112basic_stringIcSt11char_traitsIcESaIcEEEEC2ERKS8_
FN:195,195,_ZN5boost10test_tools9tt_detail14print_helper_tIbEC2ERKb
FN:195,195,_ZN5boost10test_tools9tt_detail14print_helper_tIcEC2ERKc
FN:195,195,_ZN5boost10test_tools9tt_detail14print_helper_tIiEC2ERKi
FN:195,195,_ZN5boost10test_tools9tt_detail14print_helper_tIjEC2ERKj
FN:216,219,_ZN5boost10test_tools9tt_detail12print_helperIA11_cEENS1_14print_helper_tIT_EERKS5_
FN:216,219,_ZN5boost10test_tools9tt_detail12print_helperIA16_cEENS1_14print_helper_tIT_EERKS5_
FN:216,219,_ZN5boost10test_tools9tt_detail12print_helperIA17_cEENS1_14print_helper_tIT_EERKS5_
FN:216,219,_ZN5boost10test_tools9tt_detail12print_helperIA1_cEENS1_14print_helper_tIT_EERKS5_
FN:216,219,_ZN5boost10test_tools9tt_detail12print_helperIA25_cEENS1_14print_helper_tIT_EERKS5_
FN:216,219,_ZN5boost10test_tools9tt_detail12print_helperIA26_cEENS1_14print_helper_tIT_EERKS5_
FN:216,219,_ZN5boost10test_tools9tt_detail12print_helperIA2_cEENS1_14print_helper_tIT_EERKS5_
FN:216,219,_ZN5boost10test_tools9tt_detail12print_helperIA30_cEENS1_14print_helper_tIT_EERKS5_
FN:216,219,_ZN5boost10test_tools9tt_detail12print_helperIA33_cEENS1_14print_helper_tIT_EERKS5_
FN:216,219,_ZN5boost10test_tools9tt_detail12print_helperIA34_cEENS1_14print_helper_tIT_EERKS5_
FN:216,219,_ZN5boost10test_tools9tt_detail12print_helperIA3_cEENS1_14print_helper_tIT_EERKS5_
FN:216,219,_ZN5boost10test_tools9tt_detail12print_helperIA42_cEENS1_14print_helper_tIT_EERKS5_
FN:216,219,_ZN5boost10test_tools9tt_detail12print_helperIA4_cEENS1_14print_helper_tIT_EERKS5_
FN:216,219,_ZN5boost10test_tools9tt_detail12print_helperIA5_cEENS1_14print_helper_tIT_EERKS5_
FN:216,219,_ZN5boost10test_tools9tt_detail12print_helperIA6_cEENS1_14print_helper_tIT_EERKS5_
FN:216,219,_ZN5boost10test_tools9tt_detail12print_helperIA7_cEENS1_14print_helper_tIT_EERKS5_
FN:216,219,_ZN5boost10test_tools9tt_detail12print_helperIA8_cEENS1_14print_helper_tIT_EERKS5_
FN:216,219,_ZN5boost10test_tools9tt_detail12print_helperINS1_14print_helper_tIA17_cEEEENS3_IT_EERKS6_
FN:216,219,_ZN5boost10test_tools9tt_detail12print_helperINS1_14print_helper_tIA1_cEEEENS3_IT_EERKS6_
FN:216,219,_ZN5boost10test_tools9tt_detail12print_helperINS1_14print_helper_tIA2_cEEEENS3_IT_EERKS6_
FN:216,219,_ZN5boost10test_tools9tt_detail12print_helperINS1_14print_helper_tIA33_cEEEENS3_IT_EERKS6_
FN:216,219,_ZN5boost10test_tools9tt_detail12print_helperINS1_14print_helper_tIA3_cEEEENS3_IT_EERKS6_
FN:216,219,_ZN5boost10test_tools9tt_detail12print_helperINS1_14print_helper_tIA4_cEEEENS3_IT_EERKS6_
FN:216,219,_ZN5boost10test_tools9tt_detail12print_helperINS1_14print_helper_tIA5_cEEEENS3_IT_EERKS6_
FN:216,219,_ZN5boost10test_tools9tt_detail12print_helperINS1_14print_helper_tIA6_cEEEENS3_IT_EERKS6_
FN:216,219,_ZN5boost10test_tools9tt_detail12print_helperINS1_14print_helper_tIA7_cEEEENS3_IT_EERKS6_
FN:216,219,_ZN5boost10test_tools9tt_detail12print_helperINS1_14print_helper_tINSt7__cxx1112basic_stringIcSt11char_traitsIcESaIcEEEEEEENS3_IT_EERKSB_
FN:216,219,_ZN5boost10test_tools9tt_detail12print_helperINS1_14print_helper_tIbEEEENS3_IT_EERKS5_
FN:216,219,_ZN5boost10test_tools9tt_detail12print_helperINS1_14print_helper_tIiEEEENS3_IT_EERKS5_
FN:216,219,_ZN5boost10test_tools9tt_detail12print_helperINS_9unit_test13basic_cstringIKcEEEENS1_14print_helper_tIT_EERKS8_
FN:216,219,_ZN5boost10test_tools9tt_detail12print_helperINSt7__cxx1112basic_stringIcSt11char_traitsIcESaIcEEEEENS1_14print_helper_tIT_EERKSA_
FN:216,219,_ZN5boost10test_tools9tt_detail12print_helperIbEENS1_14print_helper_tIT_EERKS4_
FN:216,219,_ZN5boost10test_tools9tt_detail12print_helperIcEENS1_14print_helper_tIT_EERKS4_
FN:216,219,_ZN5boost10test_tools9tt_detail12print_helperIiEENS1_14print_helper_tIT_EERKS4_
FN:216,219,_ZN5boost10test_tools9tt_detail12print_helperIjEENS1_14print_helper_tIT_EERKS4_
FN:225,230,_ZN5boost10test_tools9tt_detaillsIA11_cEERSoS4_RKNS1_14print_helper_tIT_EE
FN:225,230,_ZN5boost10test_tools9tt_detaillsIA16_cEERSoS4_RKNS1_14print_helper_tIT_EE
FN:225,230,_ZN5boost10test_tools9tt_detaillsIA17_cEERSoS4_RKNS1_14print_helper_tIT_EE
FN:225,230,_ZN5boost10test_tools9tt_detaillsIA1_cEERSoS4_RKNS1_14print_helper_tIT_EE
FN:225,230,_ZN5boost10test_tools9tt_detaillsIA25_cEERSoS4_RKNS1_14print_helper_tIT_EE
FN:225,230,_ZN5boost10test_tools9tt_detaillsIA26_cEERSoS4_RKNS1_14print_helper_tIT_EE
FN:225,230,_ZN5boost10test_tools9tt_detaillsIA2_cEERSoS4_RKNS1_14print_helper_tIT_EE
FN:225,230,_ZN5boost10test_tools9tt_detaillsIA30_cEERSoS4_RKNS1_14print_helper_tIT_EE
FN:225,230,_ZN5boost10test_tools9tt_detaillsIA33_cEERSoS4_RKNS1_14print_helper_tIT_EE
FN:225,230,_ZN5boost10test_tools9tt_detaillsIA34_cEERSoS4_RKNS1_14print_helper_tIT_EE
FN:225,230,_ZN5boost10test_tools9tt_detaillsIA3_cEERSoS4_RKNS1_14print_helper_tIT_EE
FN:225,230,_ZN5boost10test_tools9tt_detaillsIA42_cEERSoS4_RKNS1_14print_helper_tIT_EE
FN:225,230,_ZN5boost10test_tools9tt_detaillsIA4_cEERSoS4_RKNS1_14print_helper_tIT_EE
FN:225,230,_ZN5boost10test_tools9tt_detaillsIA5_cEERSoS4_RKNS1_14print_helper_tIT_EE
FN:225,230,_ZN5boost10test_tools9tt_detaillsIA6_cEERSoS4_RKNS1_14print_helper_tIT_EE
FN:225,230,_ZN5boost10test_tools9tt_detaillsIA7_cEERSoS4_RKNS1_14print_helper_tIT_EE
FN:225,230,_ZN5boost10test_tools9tt_detaillsIA8_cEERSoS4_RKNS1_14print_helper_tIT_EE
FN:225,230,_ZN5boost10test_tools9tt_detaillsINS1_14print_helper_tIA17_cEEEERSoS6_RKNS3_IT_EE
FN:225,230,_ZN5boost10test_tools9tt_detaillsINS1_14print_helper_tIA1_cEEEERSoS6_RKNS3_IT_EE
FN:225,230,_ZN5boost10test_tools9tt_detaillsINS1_14print_helper_tIA2_cEEEERSoS6_RKNS3_IT_EE
FN:225,230,_ZN5boost10test_tools9tt_detaillsINS1_14print_helper_tIA33_cEEEERSoS6_RKNS3_IT_EE
FN:225,230,_ZN5boost10test_tools9tt_detaillsINS1_14print_helper_tIA3_cEEEERSoS6_RKNS3_IT_EE
FN:225,230,_ZN5boost10test_tools9tt_detaillsINS1_14print_helper_tIA4_cEEEERSoS6_RKNS3_IT_EE
FN:225,230,_ZN5boost10test_tools9tt_detaillsINS1_14print_helper_tIA5_cEEEERSoS6_RKNS3_IT_EE
FN:225,230,_ZN5boost10test_tools9tt_detaillsINS1_14print_helper_tIA6_cEEEERSoS6_RKNS3_IT_EE
FN:225,230,_ZN5boost10test_tools9tt_detaillsINS1_14print_helper_tIA7_cEEEERSoS6_RKNS3_IT_EE
FN:225,230,_ZN5boost10test_tools9tt_detaillsINS1_14print_helper_tINSt7__cxx1112basic_stringIcSt11char_traitsIcESaIcEEEEEEERSoSB_RKNS3_IT_EE
FN:225,230,_ZN5boost10test_tools9tt_detaillsINS1_14print_helper_tIbEEEERSoS5_RKNS3_IT_EE
FN:225,230,_ZN5boost10test_tools9tt_detaillsINS1_14print_helper_tIiEEEERSoS5_RKNS3_IT_EE
FN:225,230,_ZN5boost10test_tools9tt_detaillsINS_9unit_test13basic_cstringIKcEEEERSoS7_RKNS1_14print_helper_tIT_EE
FN:225,230,_ZN5boost10test_tools9tt_detaillsINSt7__cxx1112basic_stringIcSt11char_traitsIcESaIcEEEEERSoS9_RKNS1_14print_helper_tIT_EE
FN:225,230,_ZN5boost10test_tools9tt_detaillsIbEERSoS3_RKNS1_14print_helper_tIT_EE
FN:225,230,_ZN5boost10test_tools9tt_detaillsIcEERSoS3_RKNS1_14print_helper_tIT_EE
FN:225,230,_ZN5boost10test_tools9tt_detaillsIiEERSoS3_RKNS1_14print_helper_tIT_EE
FN:225,230,_ZN5boost10test_tools9tt_detaillsIjEERSoS3_RKNS1_14print_helper_tIT_EE
FN:52,57,_ZN5boost10test_tools9tt_detail4impl21boost_test_print_typeIA11_cEERSoS5_RKT_
FN:52,57,_ZN5boost10test_tools9tt_detail4impl21boost_test_print_typeIA16_cEERSoS5_RKT_
FN:52,57,_ZN5boost10test_tools9tt_detail4impl21boost_test_print_typeIA17_cEERSoS5_RKT_
FN:52,57,_ZN5boost10test_tools9tt_detail4impl21boost_test_print_typeIA1_cEERSoS5_RKT_
FN:52,57,_ZN5boost10test_tools9tt_detail4impl21boost_test_print_typeIA25_cEERSoS5_RKT_
FN:52,57,_ZN5boost10test_tools9tt_detail4impl21boost_test_print_typeIA26_cEERSoS5_RKT_
FN:52,57,_ZN5boost10test_tools9tt_detail4impl21boost_test_print_typeIA2_cEERSoS5_RKT_
FN:52,57,_ZN5boost10test_tools9tt_detail4impl21boost_test_print_typeIA30_cEERSoS5_RKT_
FN:52,57,_ZN5boost10test_tools9tt_detail4impl21boost_test_print_typeIA33_cEERSoS5_RKT_
FN:52,57,_ZN5boost10test_tools9tt_detail4impl21boost_test_print_typeIA34_cEERSoS5_RKT_
FN:52,57,_ZN5boost10test_tools9tt_detail4impl21boost_test_print_typeIA3_cEERSoS5_RKT_
FN:52,57,_ZN5boost10test_tools9tt_detail4impl21boost_test_print_typeIA42_cEERSoS5_RKT_
FN:52,57,_ZN5boost10test_tools9tt_detail4impl21boost_test_print_typeIA4_cEERSoS5_RKT_
FN:52,57,_ZN5boost10test_tools9tt_detail4impl21boost_test_print_typeIA5_cEERSoS5_RKT_
FN:52,57,_ZN5boost10test_tools9tt_detail4impl21boost_test_print_typeIA6_cEERSoS5_RKT_
FN:52,57,_ZN5boost10test_tools9tt_detail4impl21boost_test_print_typeIA7_cEERSoS5_RKT_
FN:52,57,_ZN5boost10test_tools9tt_detail4impl21boost_test_print_typeIA8_cEERSoS5_RKT_
FN:52,57,_ZN5boost10test_tools9tt_detail4impl21boost_test_print_typeINS1_14print_helper_tIA17_cEEEERSoS7_RKT_
FN:52,57,_ZN5boost10test_tools9tt_detail4impl21boost_test_print_typeINS1_14print_helper_tIA1_cEEEERSoS7_RKT_
FN:52,57,_ZN5boost10test_tools9tt_detail4impl21boost_test_print_typeINS1_14print_helper_tIA2_cEEEERSoS7_RKT_
FN:52,57,_ZN5boost10test_tools9tt_detail4impl21boost_test_print_typeINS1_14print_helper_tIA33_cEEEERSoS7_RKT_
FN:52,57,_ZN5boost10test_tools9tt_detail4impl21boost_test_print_typeINS1_14print_helper_tIA3_cEEEERSoS7_RKT_
FN:52,57,_ZN5boost10test_tools9tt_detail4impl21boost_test_print_typeINS1_14print_helper_tIA4_cEEEERSoS7_RKT_
FN:52,57,_ZN5boost10test_tools9tt_detail4impl21boost_test_print_typeINS1_14print_helper_tIA5_cEEEERSoS7_RKT_
FN:52,57,_ZN5boost10test_tools9tt_detail4impl21boost_test_print_typeINS1_14print_helper_tIA6_cEEEERSoS7_RKT_
FN:52,57,_ZN5boost10test_tools9tt_detail4impl21boost_test_print_typeINS1_14print_helper_tIA7_cEEEERSoS7_RKT_
FN:52,57,_ZN5boost10test_tools9tt_detail4impl21boost_test_print_typeINS1_14print_helper_tINSt7__cxx1112basic_stringIcSt11char_traitsIcESaIcEEEEEEERSoSC_RKT_
FN:52,57,_ZN5boost10test_tools9tt_detail4impl21boost_test_print_typeINS1_14print_helper_tIbEEEERSoS6_RKT_
FN:52,57,_ZN5boost10test_tools9tt_detail4impl21boost_test_print_typeINS1_14print_helper_tIiEEEERSoS6_RKT_
FN:52,57,_ZN5boost10test_tools9tt_detail4impl21boost_test_print_typeINS_9unit_test13basic_cstringIKcEEEERSoS8_RKT_
FN:52,57,_ZN5boost10test_tools9tt_detail4impl21boost_test_print_typeINSt7__cxx1112basic_stringIcSt11char_traitsIcESaIcEEEEERSoSA_RKT_
FN:52,57,_ZN5boost10test_tools9tt_detail4impl21boost_test_print_typeIiEERSoS4_RKT_
FN:52,57,_ZN5boost10test_tools9tt_detail4impl21boost_test_print_typeIjEERSoS4_RKT_
FN:61,63,_ZNK5boost10test_tools9tt_detail4impl26boost_test_print_type_implclIA11_cEERSoS6_RKT_
FN:61,63,_ZNK5boost10test_tools9tt_detail4impl26boost_test_print_type_implclIA16_cEERSoS6_RKT_
FN:61,63,_ZNK5boost10test_tools9tt_detail4impl26boost_test_print_type_implclIA17_cEERSoS6_RKT_
FN:61,63,_ZNK5boost10test_tools9tt_detail4impl26boost_test_print_type_implclIA1_cEERSoS6_RKT_
FN:61,63,_ZNK5boost10test_tools9tt_detail4impl26boost_test_print_type_implclIA25_cEERSoS6_RKT_
FN:61,63,_ZNK5boost10test_tools9tt_detail4impl26boost_test_print_type_implclIA26_cEERSoS6_RKT_
FN:61,63,_ZNK5boost10test_tools9tt_detail4impl26boost_test_print_type_implclIA2_cEERSoS6_RKT_
FN:61,63,_ZNK5boost10test_tools9tt_detail4impl26boost_test_print_type_implclIA30_cEERSoS6_RKT_
FN:61,63,_ZNK5boost10test_tools9tt_detail4impl26boost_test_print_type_implclIA33_cEERSoS6_RKT_
FN:61,63,_ZNK5boost10test_tools9tt_detail4impl26boost_test_print_type_implclIA34_cEERSoS6_RKT_
FN:61,63,_ZNK5boost10test_tools9tt_detail4impl26boost_test_print_type_implclIA3_cEERSoS6_RKT_
FN:61,63,_ZNK5boost10test_tools9tt_detail4impl26boost_test_print_type_implclIA42_cEERSoS6_RKT_
FN:61,63,_ZNK5boost10test_tools9tt_detail4impl26boost_test_print_type_implclIA4_cEERSoS6_RKT_
FN:61,63,_ZNK5boost10test_tools9tt_detail4impl26boost_test_print_type_implclIA5_cEERSoS6_RKT_
FN:61,63,_ZNK5boost10test_tools9tt_detail4impl26boost_test_print_type_implclIA6_cEERSoS6_RKT_
FN:61,63,_ZNK5boost10test_tools9tt_detail4impl26boost_test_print_type_implclIA7_cEERSoS6_RKT_
FN:61,63,_ZNK5boost10test_tools9tt_detail4impl26boost_test_print_type_implclIA8_cEERSoS6_RKT_
FN:61,63,_ZNK5boost10test_tools9tt_detail4impl26boost_test_print_type_implclINS1_14print_helper_tIA17_cEEEERSoS8_RKT_
FN:61,63,_ZNK5boost10test_tools9tt_detail4impl26boost_test_print_type_implclINS1_14print_helper_tIA1_cEEEERSoS8_RKT_
FN:61,63,_ZNK5boost10test_tools9tt_detail4impl26boost_test_print_type_implclINS1_14print_helper_tIA2_cEEEERSoS8_RKT_
FN:61,63,_ZNK5boost10test_tools9tt_detail4impl26boost_test_print_type_implclINS1_14print_helper_tIA33_cEEEERSoS8_RKT_
FN:61,63,_ZNK5boost10test_tools9tt_detail4impl26boost_test_print_type_implclINS1_14print_helper_tIA3_cEEEERSoS8_RKT_
FN:61,63,_ZNK5boost10test_tools9tt_detail4impl26boost_test_print_type_implclINS1_14print_helper_tIA4_cEEEERSoS8_RKT_
FN:61,63,_ZNK5boost10test_tools9tt_detail4impl26boost_test_print_type_implclINS1_14print_helper_tIA5_cEEEERSoS8_RKT_
FN:61,63,_ZNK5boost10test_tools9tt_detail4impl26boost_test_print_type_implclINS1_14print_helper_tIA6_cEEEERSoS8_RKT_
FN:61,63,_ZNK5boost10test_tools9tt_detail4impl26boost_test_print_type_implclINS1_14print_helper_tIA7_cEEEERSoS8_RKT_
FN:61,63,_ZNK5boost10test_tools9tt_detail4impl26boost_test_print_type_implclINS1_14print_helper_tINSt7__cxx1112basic_stringIcSt11char_traitsIcESaIcEEEEEEERSoSD_RKT_
FN:61,63,_ZNK5boost10test_tools9tt_detail4impl26boost_test_print_type_implclINS1_14print_helper_tIbEEEERSoS7_RKT_
FN:61,63,_ZNK5boost10test_tools9tt_detail4impl26boost_test_print_type_implclINS1_14print_helper_tIiEEEERSoS7_RKT_
FN:61,63,_ZNK5boost10test_tools9tt_detail4impl26boost_test_print_type_implclINS_9unit_test13basic_cstringIKcEEEERSoS9_RKT_
FN:61,63,_ZNK5boost10test_tools9tt_detail4impl26boost_test_print_type_implclINSt7__cxx1112basic_stringIcSt11char_traitsIcESaIcEEEEERSoSB_RKT_
FN:61,63,_ZNK5boost10test_tools9tt_detail4impl26boost_test_print_type_implclIiEERSoS5_RKT_
FN:61,63,_ZNK5boost10test_tools9tt_detail4impl26boost_test_print_type_implclIjEERSoS5_RKT_
FN:83,95,_ZN5boost10test_tools9tt_detail15print_log_valueIA11_cEclERSoRA11_Kc
FN:83,95,_ZN5boost10test_tools9tt_detail15print_log_valueIA16_cEclERSoRA16_Kc
FN:83,95,_ZN5boost10test_tools9tt_detail15print_log_valueIA17_cEclERSoRA17_Kc
FN:83,95,_ZN5boost10test_tools9tt_detail15print_log_valueIA1_cEclERSoRA1_Kc
FN:83,95,_ZN5boost10test_tools9tt_detail15print_log_valueIA25_cEclERSoRA25_Kc
FN:83,95,_ZN5boost10test_tools9tt_detail15print_log_valueIA26_cEclERSoRA26_Kc
FN:83,95,_ZN5boost10test_tools9tt_detail15print_log_valueIA2_cEclERSoRA2_Kc
FN:83,95,_ZN5boost10test_tools9tt_detail15print_log_valueIA30_cEclERSoRA30_Kc
FN:83,95,_ZN5boost10test_tools9tt_detail15print_log_valueIA33_cEclERSoRA33_Kc
FN:83,95,_ZN5boost10test_tools9tt_detail15print_log_valueIA34_cEclERSoRA34_Kc
FN:83,95,_ZN5boost10test_tools9tt_detail15print_log_valueIA3_cEclERSoRA3_Kc
FN:83,95,_ZN5boost10test_tools9tt_detail15print_log_valueIA42_cEclERSoRA42_Kc
FN:83,95,_ZN5boost10test_tools9tt_detail15print_log_valueIA4_cEclERSoRA4_Kc
FN:83,95,_ZN5boost10test_tools9tt_detail15print_log_valueIA5_cEclERSoRA5_Kc
FN:83,95,_ZN5boost10test_tools9tt_detail15print_log_valueIA6_cEclERSoRA6_Kc
FN:83,95,_ZN5boost10test_tools9tt_detail15print_log_valueIA7_cEclERSoRA7_Kc
FN:83,95,_ZN5boost10test_tools9tt_detail15print_log_valueIA8_cEclERSoRA8_Kc
FN:83,95,_ZN5boost10test_tools9tt_detail15print_log_valueINS1_14print_helper_tIA17_cEEEclERSoRKS5_
FN:83,95,_ZN5boost10test_tools9tt_detail15print_log_valueINS1_14print_helper_tIA1_cEEEclERSoRKS5_
FN:83,95,_ZN5boost10test_tools9tt_detail15print_log_valueINS1_14print_helper_tIA2_cEEEclERSoRKS5_
FN:83,95,_ZN5boost10test_tools9tt_detail15print_log_valueINS1_14print_helper_tIA33_cEEEclERSoRKS5_
FN:83,95,_ZN5boost10test_tools9tt_detail15print_log_valueINS1_14print_helper_tIA3_cEEEclERSoRKS5_
FN:83,95,_ZN5boost10test_tools9tt_detail15print_log_valueINS1_14print_helper_tIA4_cEEEclERSoRKS5_
FN:83,95,_ZN5boost10test_tools9tt_detail15print_log_valueINS1_14print_helper_tIA5_cEEEclERSoRKS5_
FN:83,95,_ZN5boost10test_tools9tt_detail15print_log_valueINS1_14print_helper_tIA6_cEEEclERSoRKS5_
FN:83,95,_ZN5boost10test_tools9tt_detail15print_log_valueINS1_14print_helper_tIA7_cEEEclERSoRKS5_
FN:83,95,_ZN5boost10test_tools9tt_detail15print_log_valueINS1_14print_helper_tINSt7__cxx1112basic_stringIcSt11char_traitsIcESaIcEEEEEEclERSoRKSA_
FN:83,95,_ZN5boost10test_tools9tt_detail15print_log_valueINS1_14print_helper_tIbEEEclERSoRKS4_
FN:83,95,_ZN5boost10test_tools9tt_detail15print_log_valueINS1_14print_helper_tIiEEEclERSoRKS4_
FN:83,95,_ZN5boost10test_tools9tt_detail15print_log_valueINS_9unit_test13basic_cstringIKcEEEclERSoRKS6_
FN:83,95,_ZN5boost10test_tools9tt_detail15print_log_valueINSt7__cxx1112basic_stringIcSt11char_traitsIcESaIcEEEEclERSoRKS8_
FN:83,95,_ZN5boost10test_tools9tt_detail15print_log_valueIiEclERSoRKi
FN:83,95,_ZN5boost10test_tools9tt_detail15print_log_valueIjEclERSoRKj
FN:97,116,_ZN5boost10test_tools9tt_detail15print_log_valueINS1_14print_helper_tIA17_cEEE13set_precisionERSoN4mpl_5bool_ILb0EEE
FN:97,116,_ZN5boost10test_tools9tt_detail15print_log_valueINS1_14print_helper_tIA1_cEEE13set_precisionERSoN4mpl_5bool_ILb0EEE
FN:97,116,_ZN5boost10test_tools9tt_detail15print_log_valueINS1_14print_helper_tIA2_cEEE13set_precisionERSoN4mpl_5bool_ILb0EEE
FN:97,116,_ZN5boost10test_tools9tt_detail15print_log_valueINS1_14print_helper_tIA33_cEEE13set_precisionERSoN4mpl_5bool_ILb0EEE
FN:97,116,_ZN5boost10test_tools9tt_detail15print_log_valueINS1_14print_helper_tIA3_cEEE13set_precisionERSoN4mpl_5bool_ILb0EEE
FN:97,116,_ZN5boost10test_tools9tt_detail15print_log_valueINS1_14print_helper_tIA4_cEEE13set_precisionERSoN4mpl_5bool_ILb0EEE
FN:97,116,_ZN5boost10test_tools9tt_detail15print_log_valueINS1_14print_helper_tIA5_cEEE13set_precisionERSoN4mpl_5bool_ILb0EEE
FN:97,116,_ZN5boost10test_tools9tt_detail15print_log_valueINS1_14print_helper_tIA6_cEEE13set_precisionERSoN4mpl_5bool_ILb0EEE
FN:97,116,_ZN5boost10test_tools9tt_detail15print_log_valueINS1_14print_helper_tIA7_cEEE13set_precisionERSoN4mpl_5bool_ILb0EEE
FN:97,116,_ZN5boost10test_tools9tt_detail15print_log_valueINS1_14print_helper_tINSt7__cxx1112basic_stringIcSt11char_traitsIcESaIcEEEEEE13set_precisionERSoN4mpl_5bool_ILb0EEE
FN:97,116,_ZN5boost10test_tools9tt_detail15print_log_valueINS1_14print_helper_tIbEEE13set_precisionERSoN4mpl_5bool_ILb0EEE
FN:97,116,_ZN5boost10test_tools9tt_detail15print_log_valueINS1_14print_helper_tIiEEE13set_precisionERSoN4mpl_5bool_ILb0EEE
FN:97,116,_ZN5boost10test_tools9tt_detail15print_log_valueINS_9unit_test13basic_cstringIKcEEE13set_precisionERSoN4mpl_5bool_ILb0EEE
FN:97,116,_ZN5boost10test_tools9tt_detail15print_log_valueINSt7__cxx1112basic_stringIcSt11char_traitsIcESaIcEEEE13set_precisionERSoN4mpl_5bool_ILb0EEE
FN:97,116,_ZN5boost10test_tools9tt_detail15print_log_valueIiE13set_precisionERSoN4mpl_5bool_ILb0EEE
FN:97,116,_ZN5boost10test_tools9tt_detail15print_log_valueIjE13set_precisionERSoN4mpl_5bool_ILb0EEE
FNDA:8,_ZN5boost10test_tools9tt_detail15print_log_valueIA11_cE13set_precisionERSoN4mpl_5bool_ILb1EEE
FNDA:0,_ZN5boost10test_tools9tt_detail15print_log_valueIA16_cE13set_precisionERSoN4mpl_5bool_ILb1EEE
FNDA:0,_ZN5boost10test_tools9tt_detail15print_log_valueIA17_cE13set_precisionERSoN4mpl_5bool_ILb1EEE
FNDA:0,_ZN5boost10test_tools9tt_detail15print_log_valueIA1_cE13set_precisionERSoN4mpl_5bool_ILb1EEE
FNDA:0,_ZN5boost10test_tools9tt_detail15print_log_valueIA25_cE13set_precisionERSoN4mpl_5bool_ILb1EEE
FNDA:0,_ZN5boost10test_tools9tt_detail15print_log_valueIA26_cE13set_precisionERSoN4mpl_5bool_ILb1EEE
FNDA:0,_ZN5boost10test_tools9tt_detail15print_log_valueIA2_cE13set_precisionERSoN4mpl_5bool_ILb1EEE
FNDA:8,_ZN5boost10test_tools9tt_detail15print_log_valueIA30_cE13set_precisionERSoN4mpl_5bool_ILb1EEE
FNDA:0,_ZN5boost10test_tools9tt_detail15print_log_valueIA33_cE13set_precisionERSoN4mpl_5bool_ILb1EEE
FNDA:0,_ZN5boost10test_tools9tt_detail15print_log_valueIA34_cE13set_precisionERSoN4mpl_5bool_ILb1EEE
FNDA:0,_ZN5boost10test_tools9tt_detail15print_log_valueIA3_cE13set_precisionERSoN4mpl_5bool_ILb1EEE
FNDA:0,_ZN5boost10test_tools9tt_detail15print_log_valueIA42_cE13set_precisionERSoN4mpl_5bool_ILb1EEE
FNDA:0,_ZN5boost10test_tools9tt_detail15print_log_valueIA4_cE13set_precisionERSoN4mpl_5bool_ILb1EEE
FNDA:0,_ZN5boost10test_tools9tt_detail15print_log_valueIA5_cE13set_precisionERSoN4mpl_5bool_ILb1EEE
FNDA:0,_ZN5boost10test_tools9tt_detail15print_log_valueIA6_cE13set_precisionERSoN4mpl_5bool_ILb1EEE
FNDA:0,_ZN5boost10test_tools9tt_detail15print_log_valueIA7_cE13set_precisionERSoN4mpl_5bool_ILb1EEE
FNDA:0,_ZN5boost10test_tools9tt_detail15print_log_valueIA8_cE13set_precisionERSoN4mpl_5bool_ILb1EEE
FNDA:8,_ZN5boost10test_tools9tt_detail14print_helper_tIA11_cEC2ERA11_Kc
FNDA:0,_ZN5boost10test_tools9tt_detail14print_helper_tIA16_cEC2ERA16_Kc
FNDA:1,_ZN5boost10test_tools9tt_detail14print_helper_tIA17_cEC2ERA17_Kc
FNDA:4,_ZN5boost10test_tools9tt_detail14print_helper_tIA1_cEC2ERA1_Kc
FNDA:0,_ZN5boost10test_tools9tt_detail14print_helper_tIA25_cEC2ERA25_Kc
FNDA:0,_ZN5boost10test_tools9tt_detail14print_helper_tIA26_cEC2ERA26_Kc
FNDA:1,_ZN5boost10test_tools9tt_detail14print_helper_tIA2_cEC2ERA2_Kc
FNDA:8,_ZN5boost10test_tools9tt_detail14print_helper_tIA30_cEC2ERA30_Kc
FNDA:2,_ZN5boost10test_tools9tt_detail14print_helper_tIA33_cEC2ERA33_Kc
FNDA:0,_ZN5boost10test_tools9tt_detail14print_helper_tIA34_cEC2ERA34_Kc
FNDA:2,_ZN5boost10test_tools9tt_detail14print_helper_tIA3_cEC2ERA3_Kc
FNDA:0,_ZN5boost10test_tools9tt_detail14print_helper_tIA42_cEC2ERA42_Kc
FNDA:7,_ZN5boost10test_tools9tt_detail14print_helper_tIA4_cEC2ERA4_Kc
FNDA:1,_ZN5boost10test_tools9tt_detail14print_helper_tIA5_cEC2ERA5_Kc
FNDA:5,_ZN5boost10test_tools9tt_detail14print_helper_tIA6_cEC2ERA6_Kc
FNDA:7,_ZN5boost10test_tools9tt_detail14print_helper_tIA7_cEC2ERA7_Kc
FNDA:0,_ZN5boost10test_tools9tt_detail14print_helper_tIA8_cEC2ERA8_Kc
FNDA:0,_ZN5boost10test_tools9tt_detail14print_helper_tINS2_IA17_cEEEC2ERKS4_
FNDA:0,_ZN5boost10test_tools9tt_detail14print_helper_tINS2_IA1_cEEEC2ERKS4_
FNDA:0,_ZN5boost10test_tools9tt_detail14print_helper_tINS2_IA2_cEEEC2ERKS4_
FNDA:0,_ZN5boost10test_tools9tt_detail14print_helper_tINS2_IA33_cEEEC2ERKS4_
FNDA:0,_ZN5boost10test_tools9tt_detail14print_helper_tINS2_IA3_cEEEC2ERKS4_
FNDA:0,_ZN5boost10test_tools9tt_detail14print_helper_tINS2_IA4_cEEEC2ERKS4_
FNDA:0,_ZN5boost10test_tools9tt_detail14print_helper_tINS2_IA5_cEEEC2ERKS4_
FNDA:0,_ZN5boost10test_tools9tt_detail14print_helper_tINS2_IA6_cEEEC2ERKS4_
FNDA:0,_ZN5boost10test_tools9tt_detail14print_helper_tINS2_IA7_cEEEC2ERKS4_
FNDA:0,_ZN5boost10test_tools9tt_detail14print_helper_tINS2_INSt7__cxx1112basic_stringIcSt11char_traitsIcESaIcEEEEEEC2ERKS9_
FNDA:0,_ZN5boost10test_tools9tt_detail14print_helper_tINS2_IbEEEC2ERKS3_
FNDA:0,_ZN5boost10test_tools9tt_detail14print_helper_tINS2_IiEEEC2ERKS3_
FNDA:0,_ZN5boost10test_tools9tt_detail14print_helper_tINS_9unit_test13basic_cstringIKcEEEC2ERKS6_
FNDA:38,_ZN5boost10test_tools9tt_detail14print_helper_tINSt7__cxx1112basic_stringIcSt11char_traitsIcESaIcEEEEC2ERKS8_
FNDA:122,_ZN5boost10test_tools9tt_detail14print_helper_tIbEC2ERKb
FNDA:0,_ZN5boost10test_tools9tt_detail14print_helper_tIcEC2ERKc
FNDA:6,_ZN5boost10test_tools9tt_detail14print_helper_tIiEC2ERKi
FNDA:0,_ZN5boost10test_tools9tt_detail14print_helper_tIjEC2ERKj
FNDA:8,_ZN5boost10test_tools9tt_detail12print_helperIA11_cEENS1_14print_helper_tIT_EERKS5_
FNDA:0,_ZN5boost10test_tools9tt_detail12print_helperIA16_cEENS1_14print_helper_tIT_EERKS5_
FNDA:1,_ZN5boost10test_tools9tt_detail12print_helperIA17_cEENS1_14print_helper_tIT_EERKS5_
FNDA:4,_ZN5boost10test_tools9tt_detail12print_helperIA1_cEENS1_14print_helper_tIT_EERKS5_
FNDA:0,_ZN5boost10test_tools9tt_detail12print_helperIA25_cEENS1_14print_helper_tIT_EERKS5_
FNDA:0,_ZN5boost10test_tools9tt_detail12print_helperIA26_cEENS1_14print_helper_tIT_EERKS5_
FNDA:1,_ZN5boost10test_tools9tt_detail12print_helperIA2_cEENS1_14print_helper_tIT_EERKS5_
FNDA:8,_ZN5boost10test_tools9tt_detail12print_helperIA30_cEENS1_14print_helper_tIT_EERKS5_
FNDA:2,_ZN5boost10test_tools9tt_detail12print_helperIA33_cEENS1_14print_helper_tIT_EERKS5_
FNDA:0,_ZN5boost10test_tools9tt_detail12print_helperIA34_cEENS1_14print_helper_tIT_EERKS5_
FNDA:2,_ZN5boost10test_tools9tt_detail12print_helperIA3_cEENS1_14print_helper_tIT_EERKS5_
FNDA:0,_ZN5boost10test_tools9tt_detail12print_helperIA42_cEENS1_14print_helper_tIT_EERKS5_
FNDA:7,_ZN5boost10test_tools9tt_detail12print_helperIA4_cEENS1_14print_helper_tIT_EERKS5_
FNDA:1,_ZN5boost10test_tools9tt_detail12print_helperIA5_cEENS1_14print_helper_tIT_EERKS5_
FNDA:5,_ZN5boost10test_tools9tt_detail12print_helperIA6_cEENS1_14print_helper_tIT_EERKS5_
FNDA:7,_ZN5boost10test_tools9tt_detail12print_helperIA7_cEENS1_14print_helper_tIT_EERKS5_
FNDA:0,_ZN5boost10test_tools9tt_detail12print_helperIA8_cEENS1_14print_helper_tIT_EERKS5_
FNDA:0,_ZN5boost10test_tools9tt_detail12print_helperINS1_14print_helper_tIA17_cEEEENS3_IT_EERKS6_
FNDA:0,_ZN5boost10test_tools9tt_detail12print_helperINS1_14print_helper_tIA1_cEEEENS3_IT_EERKS6_
FNDA:0,_ZN5boost10test_tools9tt_detail12print_helperINS1_14print_helper_tIA2_cEEEENS3_IT_EERKS6_
FNDA:0,_ZN5boost10test_tools9tt_detail12print_helperINS1_14print_helper_tIA33_cEEEENS3_IT_EERKS6_
FNDA:0,_ZN5boost10test_tools9tt_detail12print_helperINS1_14print_helper_tIA3_cEEEENS3_IT_EERKS6_
FNDA:0,_ZN5boost10test_tools9tt_detail12print_helperINS1_14print_helper_tIA4_cEEEENS3_IT_EERKS6_
FNDA:0,_ZN5boost10test_tools9tt_detail12print_helperINS1_14print_helper_tIA5_cEEEENS3_IT_EERKS6_
FNDA:0,_ZN5boost10test_tools9tt_detail12print_helperINS1_14print_helper_tIA6_cEEEENS3_IT_EERKS6_
FNDA:0,_ZN5boost10test_tools9tt_detail12print_helperINS1_14print_helper_tIA7_cEEEENS3_IT_EERKS6_
FNDA:0,_ZN5boost10test_tools9tt_detail12print_helperINS1_14print_helper_tINSt7__cxx1112basic_stringIcSt11char_traitsIcESaIcEEEEEEENS3_IT_EERKSB_
FNDA:0,_ZN5boost10test_tools9tt_detail12print_helperINS1_14print_helper_tIbEEEENS3_IT_EERKS5_
FNDA:0,_ZN5boost10test_tools9tt_detail12print_helperINS1_14print_helper_tIiEEEENS3_IT_EERKS5_
FNDA:0,_ZN5boost10test_tools9tt_detail12print_helperINS_9unit_test13basic_cstringIKcEEEENS1_14print_helper_tIT_EERKS8_
FNDA:38,_ZN5boost10test_tools9tt_detail12print_helperINSt7__cxx1112basic_stringIcSt11char_traitsIcESaIcEEEEENS1_14print_helper_tIT_EERKSA_
FNDA:122,_ZN5boost10test_tools9tt_detail12print_helperIbEENS1_14print_helper_tIT_EERKS4_
FNDA:0,_ZN5boost10test_tools9tt_detail12print_helperIcEENS1_14print_helper_tIT_EERKS4_
FNDA:6,_ZN5boost10test_tools9tt_detail12print_helperIiEENS1_14print_helper_tIT_EERKS4_
FNDA:0,_ZN5boost10test_tools9tt_detail12print_helperIjEENS1_14print_helper_tIT_EERKS4_
FNDA:8,_ZN5boost10test_tools9tt_detaillsIA11_cEERSoS4_RKNS1_14print_helper_tIT_EE
FNDA:0,_ZN5boost10test_tools9tt_detaillsIA16_cEERSoS4_RKNS1_14print_helper_tIT_EE
FNDA:0,_ZN5boost10test_tools9tt_detaillsIA17_cEERSoS4_RKNS1_14print_helper_tIT_EE
FNDA:0,_ZN5boost10test_tools9tt_detaillsIA1_cEERSoS4_RKNS1_14print_helper_tIT_EE
FNDA:0,_ZN5boost10test_tools9tt_detaillsIA25_cEERSoS4_RKNS1_14print_helper_tIT_EE
FNDA:0,_ZN5boost10test_tools9tt_detaillsIA26_cEERSoS4_RKNS1_14print_helper_tIT_EE
FNDA:0,_ZN5boost10test_tools9tt_detaillsIA2_cEERSoS4_RKNS1_14print_helper_tIT_EE
FNDA:8,_ZN5boost10test_tools9tt_detaillsIA30_cEERSoS4_RKNS1_14print_helper_tIT_EE
FNDA:0,_ZN5boost10test_tools9tt_detaillsIA33_cEERSoS4_RKNS1_14print_helper_tIT_EE
FNDA:0,_ZN5boost10test_tools9tt_detaillsIA34_cEERSoS4_RKNS1_14print_helper_tIT_EE
FNDA:0,_ZN5boost10test_tools9tt_detaillsIA3_cEERSoS4_RKNS1_14print_helper_tIT_EE
FNDA:0,_ZN5boost10test_tools9tt_detaillsIA42_cEERSoS4_RKNS1_14print_helper_tIT_EE
FNDA:0,_ZN5boost10test_tools9tt_detaillsIA4_cEERSoS4_RKNS1_14print_helper_tIT_EE
FNDA:0,_ZN5boost10test_tools9tt_detaillsIA5_cEERSoS4_RKNS1_14print_helper_tIT_EE
FNDA:0,_ZN5boost10test_tools9tt_detaillsIA6_cEERSoS4_RKNS1_14print_helper_tIT_EE
FNDA:0,_ZN5boost10test_tools9tt_detaillsIA7_cEERSoS4_RKNS1_14print_helper_tIT_EE
FNDA:0,_ZN5boost10test_tools9tt_detaillsIA8_cEERSoS4_RKNS1_14print_helper_tIT_EE
FNDA:0,_ZN5boost10test_tools9tt_detaillsINS1_14print_helper_tIA17_cEEEERSoS6_RKNS3_IT_EE
FNDA:0,_ZN5boost10test_tools9tt_detaillsINS1_14print_helper_tIA1_cEEEERSoS6_RKNS3_IT_EE
FNDA:0,_ZN5boost10test_tools9tt_detaillsINS1_14print_helper_tIA2_cEEEERSoS6_RKNS3_IT_EE
FNDA:0,_ZN5boost10test_tools9tt_detaillsINS1_14print_helper_tIA33_cEEEERSoS6_RKNS3_IT_EE
FNDA:0,_ZN5boost10test_tools9tt_detaillsINS1_14print_helper_tIA3_cEEEERSoS6_RKNS3_IT_EE
FNDA:0,_ZN5boost10test_tools9tt_detaillsINS1_14print_helper_tIA4_cEEEERSoS6_RKNS3_IT_EE
FNDA:0,_ZN5boost10test_tools9tt_detaillsINS1_14print_helper_tIA5_cEEEERSoS6_RKNS3_IT_EE
FNDA:0,_ZN5boost10test_tools9tt_detaillsINS1_14print_helper_tIA6_cEEEERSoS6_RKNS3_IT_EE
FNDA:0,_ZN5boost10test_tools9tt_detaillsINS1_14print_helper_tIA7_cEEEERSoS6_RKNS3_IT_EE
FNDA:0,_ZN5boost10test_tools9tt_detaillsINS1_14print_helper_tINSt7__cxx1112basic_stringIcSt11char_traitsIcESaIcEEEEEEERSoSB_RKNS3_IT_EE
FNDA:0,_ZN5boost10test_tools9tt_detaillsINS1_14print_helper_tIbEEEERSoS5_RKNS3_IT_EE
FNDA:0,_ZN5boost10test_tools9tt_detaillsINS1_14print_helper_tIiEEEERSoS5_RKNS3_IT_EE
FNDA:0,_ZN5boost10test_tools9tt_detaillsINS_9unit_test13basic_cstringIKcEEEERSoS7_RKNS1_14print_helper_tIT_EE
FNDA:8,_ZN5boost10test_tools9tt_detaillsINSt7__cxx1112basic_stringIcSt11char_traitsIcESaIcEEEEERSoS9_RKNS1_14print_helper_tIT_EE
FNDA:0,_ZN5boost10test_tools9tt_detaillsIbEERSoS3_RKNS1_14print_helper_tIT_EE
FNDA:0,_ZN5boost10test_tools9tt_detaillsIcEERSoS3_RKNS1_14print_helper_tIT_EE
FNDA:0,_ZN5boost10test_tools9tt_detaillsIiEERSoS3_RKNS1_14print_helper_tIT_EE
FNDA:0,_ZN5boost10test_tools9tt_detaillsIjEERSoS3_RKNS1_14print_helper_tIT_EE
FNDA:8,_ZN5boost10test_tools9tt_detail4impl21boost_test_print_typeIA11_cEERSoS5_RKT_
FNDA:0,_ZN5boost10test_tools9tt_detail4impl21boost_test_print_typeIA16_cEERSoS5_RKT_
FNDA:0,_ZN5boost10test_tools9tt_detail4impl21boost_test_print_typeIA17_cEERSoS5_RKT_
FNDA:0,_ZN5boost10test_tools9tt_detail4impl21boost_test_print_typeIA1_cEERSoS5_RKT_
FNDA:0,_ZN5boost10test_tools9tt_detail4impl21boost_test_print_typeIA25_cEERSoS5_RKT_
FNDA:0,_ZN5boost10test_tools9tt_detail4impl21boost_test_print_typeIA26_cEERSoS5_RKT_
FNDA:0,_ZN5boost10test_tools9tt_detail4impl21boost_test_print_typeIA2_cEERSoS5_RKT_
FNDA:8,_ZN5boost10test_tools9tt_detail4impl21boost_test_print_typeIA30_cEERSoS5_RKT_
FNDA:0,_ZN5boost10test_tools9tt_detail4impl21boost_test_print_typeIA33_cEERSoS5_RKT_
FNDA:0,_ZN5boost10test_tools9tt_detail4impl21boost_test_print_typeIA34_cEERSoS5_RKT_
FNDA:0,_ZN5boost10test_tools9tt_detail4impl21boost_test_print_typeIA3_cEERSoS5_RKT_
FNDA:0,_ZN5boost10test_tools9tt_detail4impl21boost_test_print_typeIA42_cEERSoS5_RKT_
FNDA:0,_ZN5boost10test_tools9tt_detail4impl21boost_test_print_typeIA4_cEERSoS5_RKT_
FNDA:0,_ZN5boost10test_tools9tt_detail4impl21boost_test_print_typeIA5_cEERSoS5_RKT_
FNDA:0,_ZN5boost10test_tools9tt_detail4impl21boost_test_print_typeIA6_cEERSoS5_RKT_
FNDA:0,_ZN5boost10test_tools9tt_detail4impl21boost_test_print_typeIA7_cEERSoS5_RKT_
FNDA:0,_ZN5boost10test_tools9tt_detail4impl21boost_test_print_typeIA8_cEERSoS5_RKT_
FNDA:0,_ZN5boost10test_tools9tt_detail4impl21boost_test_print_typeINS1_14print_helper_tIA17_cEEEERSoS7_RKT_
FNDA:0,_ZN5boost10test_tools9tt_detail4impl21boost_test_print_typeINS1_14print_helper_tIA1_cEEEERSoS7_RKT_
FNDA:0,_ZN5boost10test_tools9tt_detail4impl21boost_test_print_typeINS1_14print_helper_tIA2_cEEEERSoS7_RKT_
FNDA:0,_ZN5boost10test_tools9tt_detail4impl21boost_test_print_typeINS1_14print_helper_tIA33_cEEEERSoS7_RKT_
FNDA:0,_ZN5boost10test_tools9tt_detail4impl21boost_test_print_typeINS1_14print_helper_tIA3_cEEEERSoS7_RKT_
FNDA:0,_ZN5boost10test_tools9tt_detail4impl21boost_test_print_typeINS1_14print_helper_tIA4_cEEEERSoS7_RKT_
FNDA:0,_ZN5boost10test_tools9tt_detail4impl21boost_test_print_typeINS1_14print_helper_tIA5_cEEEERSoS7_RKT_
FNDA:0,_ZN5boost10test_tools9tt_detail4impl21boost_test_print_typeINS1_14print_helper_tIA6_cEEEERSoS7_RKT_
FNDA:0,_ZN5boost10test_tools9tt_detail4impl21boost_test_print_typeINS1_14print_helper_tIA7_cEEEERSoS7_RKT_
FNDA:0,_ZN5boost10test_tools9tt_detail4impl21boost_test_print_typeINS1_14print_helper_tINSt7__cxx1112basic_stringIcSt11char_traitsIcESaIcEEEEEEERSoSC_RKT_
FNDA:0,_ZN5boost10test_tools9tt_detail4impl21boost_test_print_typeINS1_14print_helper_tIbEEEERSoS6_RKT_
FNDA:0,_ZN5boost10test_tools9tt_detail4impl21boost_test_print_typeINS1_14print_helper_tIiEEEERSoS6_RKT_
FNDA:0,_ZN5boost10test_tools9tt_detail4impl21boost_test_print_typeINS_9unit_test13basic_cstringIKcEEEERSoS8_RKT_
FNDA:8,_ZN5boost10test_tools9tt_detail4impl21boost_test_print_typeINSt7__cxx1112basic_stringIcSt11char_traitsIcESaIcEEEEERSoSA_RKT_
FNDA:0,_ZN5boost10test_tools9tt_detail4impl21boost_test_print_typeIiEERSoS4_RKT_
FNDA:0,_ZN5boost10test_tools9tt_detail4impl21boost_test_print_typeIjEERSoS4_RKT_
FNDA:8,_ZNK5boost10test_tools9tt_detail4impl26boost_test_print_type_implclIA11_cEERSoS6_RKT_
FNDA:0,_ZNK5boost10test_tools9tt_detail4impl26boost_test_print_type_implclIA16_cEERSoS6_RKT_
FNDA:0,_ZNK5boost10test_tools9tt_detail4impl26boost_test_print_type_implclIA17_cEERSoS6_RKT_
FNDA:0,_ZNK5boost10test_tools9tt_detail4impl26boost_test_print_type_implclIA1_cEERSoS6_RKT_
FNDA:0,_ZNK5boost10test_tools9tt_detail4impl26boost_test_print_type_implclIA25_cEERSoS6_RKT_
FNDA:0,_ZNK5boost10test_tools9tt_detail4impl26boost_test_print_type_implclIA26_cEERSoS6_RKT_
FNDA:0,_ZNK5boost10test_tools9tt_detail4impl26boost_test_print_type_implclIA2_cEERSoS6_RKT_
FNDA:8,_ZNK5boost10test_tools9tt_detail4impl26boost_test_print_type_implclIA30_cEERSoS6_RKT_
FNDA:0,_ZNK5boost10test_tools9tt_detail4impl26boost_test_print_type_implclIA33_cEERSoS6_RKT_
FNDA:0,_ZNK5boost10test_tools9tt_detail4impl26boost_test_print_type_implclIA34_cEERSoS6_RKT_
FNDA:0,_ZNK5boost10test_tools9tt_detail4impl26boost_test_print_type_implclIA3_cEERSoS6_RKT_
FNDA:0,_ZNK5boost10test_tools9tt_detail4impl26boost_test_print_type_implclIA42_cEERSoS6_RKT_
FNDA:0,_ZNK5boost10test_tools9tt_detail4impl26boost_test_print_type_implclIA4_cEERSoS6_RKT_
FNDA:0,_ZNK5boost10test_tools9tt_detail4impl26boost_test_print_type_implclIA5_cEERSoS6_RKT_
FNDA:0,_ZNK5boost10test_tools9tt_detail4impl26boost_test_print_type_implclIA6_cEERSoS6_RKT_
FNDA:0,_ZNK5boost10test_tools9tt_detail4impl26boost_test_print_type_implclIA7_cEERSoS6_RKT_
FNDA:0,_ZNK5boost10test_tools9tt_detail4impl26boost_test_print_type_implclIA8_cEERSoS6_RKT_
FNDA:0,_ZNK5boost10test_tools9tt_detail4impl26boost_test_print_type_implclINS1_14print_helper_tIA17_cEEEERSoS8_RKT_
FNDA:0,_ZNK5boost10test_tools9tt_detail4impl26boost_test_print_type_implclINS1_14print_helper_tIA1_cEEEERSoS8_RKT_
FNDA:0,_ZNK5boost10test_tools9tt_detail4impl26boost_test_print_type_implclINS1_14print_helper_tIA2_cEEEERSoS8_RKT_
FNDA:0,_ZNK5boost10test_tools9tt_detail4impl26boost_test_print_type_implclINS1_14print_helper_tIA33_cEEEERSoS8_RKT_
FNDA:0,_ZNK5boost10test_tools9tt_detail4impl26boost_test_print_type_implclINS1_14print_helper_tIA3_cEEEERSoS8_RKT_
FNDA:0,_ZNK5boost10test_tools9tt_detail4impl26boost_test_print_type_implclINS1_14print_helper_tIA4_cEEEERSoS8_RKT_
FNDA:0,_ZNK5boost10test_tools9tt_detail4impl26boost_test_print_type_implclINS1_14print_helper_tIA5_cEEEERSoS8_RKT_
FNDA:0,_ZNK5boost10test_tools9tt_detail4impl26boost_test_print_type_implclINS1_14print_helper_tIA6_cEEEERSoS8_RKT_
FNDA:0,_ZNK5boost10test_tools9tt_detail4impl26boost_test_print_type_implclINS1_14print_helper_tIA7_cEEEERSoS8_RKT_
FNDA:0,_ZNK5boost10test_tools9tt_detail4impl26boost_test_print_type_implclINS1_14print_helper_tINSt7__cxx1112basic_stringIcSt11char_traitsIcESaIcEEEEEEERSoSD_RKT_
FNDA:0,_ZNK5boost10test_tools9tt_detail4impl26boost_test_print_type_implclINS1_14print_helper_tIbEEEERSoS7_RKT_
FNDA:0,_ZNK5boost10test_tools9tt_detail4impl26boost_test_print_type_implclINS1_14print_helper_tIiEEEERSoS7_RKT_
FNDA:0,_ZNK5boost10test_tools9tt_detail4impl26boost_test_print_type_implclINS_9unit_test13basic_cstringIKcEEEERSoS9_RKT_
FNDA:8,_ZNK5boost10test_tools9tt_detail4impl26boost_test_print_type_implclINSt7__cxx1112basic_stringIcSt11char_traitsIcESaIcEEEEERSoSB_RKT_
FNDA:0,_ZNK5boost10test_tools9tt_detail4impl26boost_test_print_type_implclIiEERSoS5_RKT_
FNDA:0,_ZNK5boost10test_tools9tt_detail4impl26boost_test_print_type_implclIjEERSoS5_RKT_
FNDA:8,_ZN5boost10test_tools9tt_detail15print_log_valueIA11_cEclERSoRA11_Kc
FNDA:0,_ZN5boost10test_tools9tt_detail15print_log_valueIA16_cEclERSoRA16_Kc
FNDA:0,_ZN5boost10test_tools9tt_detail15print_log_valueIA17_cEclERSoRA17_Kc
FNDA:0,_ZN5boost10test_tools9tt_detail15print_log_valueIA1_cEclERSoRA1_Kc
FNDA:0,_ZN5boost10test_tools9tt_detail15print_log_valueIA25_cEclERSoRA25_Kc
FNDA:0,_ZN5boost10test_tools9tt_detail15print_log_valueIA26_cEclERSoRA26_Kc
FNDA:0,_ZN5boost10test_tools9tt_detail15print_log_valueIA2_cEclERSoRA2_Kc
FNDA:8,_ZN5boost10test_tools9tt_detail15print_log_valueIA30_cEclERSoRA30_Kc
FNDA:0,_ZN5boost10test_tools9tt_detail15print_log_valueIA33_cEclERSoRA33_Kc
FNDA:0,_ZN5boost10test_tools9tt_detail15print_log_valueIA34_cEclERSoRA34_Kc
FNDA:0,_ZN5boost10test_tools9tt_detail15print_log_valueIA3_cEclERSoRA3_Kc
FNDA:0,_ZN5boost10test_tools9tt_detail15print_log_valueIA42_cEclERSoRA42_Kc
FNDA:0,_ZN5boost10test_tools9tt_detail15print_log_valueIA4_cEclERSoRA4_Kc
FNDA:0,_ZN5boost10test_tools9tt_detail15print_log_valueIA5_cEclERSoRA5_Kc
FNDA:0,_ZN5boost10test_tools9tt_detail15print_log_valueIA6_cEclERSoRA6_Kc
FNDA:0,_ZN5boost10test_tools9tt_detail15print_log_valueIA7_cEclERSoRA7_Kc
FNDA:0,_ZN5boost10test_tools9tt_detail15print_log_valueIA8_cEclERSoRA8_Kc
FNDA:0,_ZN5boost10test_tools9tt_detail15print_log_valueINS1_14print_helper_tIA17_cEEEclERSoRKS5_
FNDA:0,_ZN5boost10test_tools9tt_detail15print_log_valueINS1_14print_helper_tIA1_cEEEclERSoRKS5_
FNDA:0,_ZN5boost10test_tools9tt_detail15print_log_valueINS1_14print_helper_tIA2_cEEEclERSoRKS5_
FNDA:0,_ZN5boost10test_tools9tt_detail15print_log_valueINS1_14print_helper_tIA33_cEEEclERSoRKS5_
FNDA:0,_ZN5boost10test_tools9tt_detail15print_log_valueINS1_14print_helper_tIA3_cEEEclERSoRKS5_
FNDA:0,_ZN5boost10test_tools9tt_detail15print_log_valueINS1_14print_helper_tIA4_cEEEclERSoRKS5_
FNDA:0,_ZN5boost10test_tools9tt_detail15print_log_valueINS1_14print_helper_tIA5_cEEEclERSoRKS5_
FNDA:0,_ZN5boost10test_tools9tt_detail15print_log_valueINS1_14print_helper_tIA6_cEEEclERSoRKS5_
FNDA:0,_ZN5boost10test_tools9tt_detail15print_log_valueINS1_14print_helper_tIA7_cEEEclERSoRKS5_
FNDA:0,_ZN5boost10test_tools9tt_detail15print_log_valueINS1_14print_helper_tINSt7__cxx1112basic_stringIcSt11char_traitsIcESaIcEEEEEEclERSoRKSA_
FNDA:0,_ZN5boost10test_tools9tt_detail15print_log_valueINS1_14print_helper_tIbEEEclERSoRKS4_
FNDA:0,_ZN5boost10test_tools9tt_detail15print_log_valueINS1_14print_helper_tIiEEEclERSoRKS4_
FNDA:0,_ZN5boost10test_tools9tt_detail15print_log_valueINS_9unit_test13basic_cstringIKcEEEclERSoRKS6_
FNDA:8,_ZN5boost10test_tools9tt_detail15print_log_valueINSt7__cxx1112basic_stringIcSt11char_traitsIcESaIcEEEEclERSoRKS8_
FNDA:0,_ZN5boost10test_tools9tt_detail15print_log_valueIiEclERSoRKi
FNDA:0,_ZN5boost10test_tools9tt_detail15print_log_valueIjEclERSoRKj
FNDA:0,_ZN5boost10test_tools9tt_detail15print_log_valueINS1_14print_helper_tIA17_cEEE13set_precisionERSoN4mpl_5bool_ILb0EEE
FNDA:0,_ZN5boost10test_tools9tt_detail15print_log_valueINS1_14print_helper_tIA1_cEEE13set_precisionERSoN4mpl_5bool_ILb0EEE
FNDA:0,_ZN5boost10test_tools9tt_detail15print_log_valueINS1_14print_helper_tIA2_cEEE13set_precisionERSoN4mpl_5bool_ILb0EEE
FNDA:0,_ZN5boost10test_tools9tt_detail15print_log_valueINS1_14print_helper_tIA33_cEEE13set_precisionERSoN4mpl_5bool_ILb0EEE
FNDA:0,_ZN5boost10test_tools9tt_detail15print_log_valueINS1_14print_helper_tIA3_cEEE13set_precisionERSoN4mpl_5bool_ILb0EEE
FNDA:0,_ZN5boost10test_tools9tt_detail15print_log_valueINS1_14print_helper_tIA4_cEEE13set_precisionERSoN4mpl_5bool_ILb0EEE
FNDA:0,_ZN5boost10test_tools9tt_detail15print_log_valueINS1_14print_helper_tIA5_cEEE13set_precisionERSoN4mpl_5bool_ILb0EEE
FNDA:0,_ZN5boost10test_tools9tt_detail15print_log_valueINS1_14print_helper_tIA6_cEEE13set_precisionERSoN4mpl_5bool_ILb0EEE
FNDA:0,_ZN5boost10test_tools9tt_detail15print_log_valueINS1_14print_helper_tIA7_cEEE13set_precisionERSoN4mpl_5bool_ILb0EEE
FNDA:0,_ZN5boost10test_tools9tt_detail15print_log_valueINS1_14print_helper_tINSt7__cxx1112basic_stringIcSt11char_traitsIcESaIcEEEEEE13set_precisionERSoN4mpl_5bool_ILb0EEE
FNDA:0,_ZN5boost10test_tools9tt_detail15print_log_valueINS1_14print_helper_tIbEEE13set_precisionERSoN4mpl_5bool_ILb0EEE
FNDA:0,_ZN5boost10test_tools9tt_detail15print_log_valueINS1_14print_helper_tIiEEE13set_precisionERSoN4mpl_5bool_ILb0EEE
FNDA:0,_ZN5boost10test_tools9tt_detail15print_log_valueINS_9unit_test13basic_cstringIKcEEE13set_precisionERSoN4mpl_5bool_ILb0EEE
FNDA:8,_ZN5boost10test_tools9tt_detail15print_log_valueINSt7__cxx1112basic_stringIcSt11char_traitsIcESaIcEEEE13set_precisionERSoN4mpl_5bool_ILb0EEE
FNDA:0,_ZN5boost10test_tools9tt_detail15print_log_valueIiE13set_precisionERSoN4mpl_5bool_ILb0EEE
FNDA:0,_ZN5boost10test_tools9tt_detail15print_log_valueIjE13set_precisionERSoN4mpl_5bool_ILb0EEE
FNF:237
FNH:43
DA:52,24
DA:55,24
DA:56,24
DA:61,24
DA:62,24
DA:83,24
DA:87,24
DA:91,24
DA:93,24
DA:94,0
DA:95,24
DA:97,8
DA:100,0
DA:115,8
DA:118,16
DA:195,212
DA:216,212
DA:218,212
DA:225,24
DA:227,24
DA:229,24
LF:21
LH:19
end_of_record
TN:
SF:/usr/include/boost/test/tools/old/impl.hpp
FN:105,108,_ZN5boost10test_tools9tt_detail10equal_implINSt7__cxx1112basic_stringIcSt11char_traitsIcESaIcEEEA17_cEENS0_16assertion_resultERKT_RKT0_
FN:105,108,_ZN5boost10test_tools9tt_detail10equal_implINSt7__cxx1112basic_stringIcSt11char_traitsIcESaIcEEEA1_cEENS0_16assertion_resultERKT_RKT0_
FN:105,108,_ZN5boost10test_tools9tt_detail10equal_implINSt7__cxx1112basic_stringIcSt11char_traitsIcESaIcEEEA2_cEENS0_16assertion_resultERKT_RKT0_
FN:105,108,_ZN5boost10test_tools9tt_detail10equal_implINSt7__cxx1112basic_stringIcSt11char_traitsIcESaIcEEEA33_cEENS0_16assertion_resultERKT_RKT0_
FN:105,108,_ZN5boost10test_tools9tt_detail10equal_implINSt7__cxx1112basic_stringIcSt11char_traitsIcESaIcEEEA3_cEENS0_16assertion_resultERKT_RKT0_
FN:105,108,_ZN5boost10test_tools9tt_detail10equal_implINSt7__cxx1112basic_stringIcSt11char_traitsIcESaIcEEEA4_cEENS0_16assertion_resultERKT_RKT0_
FN:105,108,_ZN5boost10test_tools9tt_detail10equal_implINSt7__cxx1112basic_stringIcSt11char_traitsIcESaIcEEEA5_cEENS0_16assertion_resultERKT_RKT0_
FN:105,108,_ZN5boost10test_tools9tt_detail10equal_implINSt7__cxx1112basic_stringIcSt11char_traitsIcESaIcEEEA6_cEENS0_16assertion_resultERKT_RKT0_
FN:105,108,_ZN5boost10test_tools9tt_detail10equal_implINSt7__cxx1112basic_stringIcSt11char_traitsIcESaIcEEEA7_cEENS0_16assertion_resultERKT_RKT0_
FN:105,108,_ZN5boost10test_tools9tt_detail10equal_implIbbEENS0_16assertion_resultERKT_RKT0_
FN:105,108,_ZN5boost10test_tools9tt_detail10equal_implIbiEENS0_16assertion_resultERKT_RKT0_
FN:105,108,_ZN5boost10test_tools9tt_detail10equal_implIiiEENS0_16assertion_resultERKT_RKT0_
FN:128,131,_ZNK5boost10test_tools9tt_detail15equal_impl_frwd9call_implINSt7__cxx1112basic_stringIcSt11char_traitsIcESaIcEEEA17_cEENS0_16assertion_resultERKT_RKT0_N4mpl_5bool_ILb0EEE
FN:128,131,_ZNK5boost10test_tools9tt_detail15equal_impl_frwd9call_implINSt7__cxx1112basic_stringIcSt11char_traitsIcESaIcEEEA1_cEENS0_16assertion_resultERKT_RKT0_N4mpl_5bool_ILb0EEE
FN:128,131,_ZNK5boost10test_tools9tt_detail15equal_impl_frwd9call_implINSt7__cxx1112basic_stringIcSt11char_traitsIcESaIcEEEA2_cEENS0_16assertion_resultERKT_RKT0_N4mpl_5bool_ILb0EEE
FN:128,131,_ZNK5boost10test_tools9tt_detail15equal_impl_frwd9call_implINSt7__cxx1112basic_stringIcSt11char_traitsIcESaIcEEEA33_cEENS0_16assertion_resultERKT_RKT0_N4mpl_5bool_ILb0EEE
FN:128,131,_ZNK5boost10test_tools9tt_detail15equal_impl_frwd9call_implINSt7__cxx1112basic_stringIcSt11char_traitsIcESaIcEEEA3_cEENS0_16assertion_resultERKT_RKT0_N4mpl_5bool_ILb0EEE
FN:128,131,_ZNK5boost10test_tools9tt_detail15equal_impl_frwd9call_implINSt7__cxx1112basic_stringIcSt11char_traitsIcESaIcEEEA4_cEENS0_16assertion_resultERKT_RKT0_N4mpl_5bool_ILb0EEE
FN:128,131,_ZNK5boost10test_tools9tt_detail15equal_impl_frwd9call_implINSt7__cxx1112basic_stringIcSt11char_traitsIcESaIcEEEA5_cEENS0_16assertion_resultERKT_RKT0_N4mpl_5bool_ILb0EEE
FN:128,131,_ZNK5boost10test_tools9tt_detail15equal_impl_frwd9call_implINSt7__cxx1112basic_stringIcSt11char_traitsIcESaIcEEEA6_cEENS0_16assertion_resultERKT_RKT0_N4mpl_5bool_ILb0EEE
FN:128,131,_ZNK5boost10test_tools9tt_detail15equal_impl_frwd9call_implINSt7__cxx1112basic_stringIcSt11char_traitsIcESaIcEEEA7_cEENS0_16assertion_resultERKT_RKT0_N4mpl_5bool_ILb0EEE
FN:128,131,_ZNK5boost10test_tools9tt_detail15equal_impl_frwd9call_implIbbEENS0_16assertion_resultERKT_RKT0_N4mpl_5bool_ILb0EEE
FN:128,131,_ZNK5boost10test_tools9tt_detail15equal_impl_frwd9call_implIbiEENS0_16assertion_resultERKT_RKT0_N4mpl_5bool_ILb0EEE
FN:128,131,_ZNK5boost10test_tools9tt_detail15equal_impl_frwd9call_implIiiEENS0_16assertion_resultERKT_RKT0_N4mpl_5bool_ILb0EEE
FN:142,146,_ZNK5boost10test_tools9tt_detail15equal_impl_frwdclINSt7__cxx1112basic_stringIcSt11char_traitsIcESaIcEEEA17_cEENS0_16assertion_resultERKT_RKT0_
FN:142,146,_ZNK5boost10test_tools9tt_detail15equal_impl_frwdclINSt7__cxx1112basic_stringIcSt11char_traitsIcESaIcEEEA1_cEENS0_16assertion_resultERKT_RKT0_
FN:142,146,_ZNK5boost10test_tools9tt_detail15equal_impl_frwdclINSt7__cxx1112basic_stringIcSt11char_traitsIcESaIcEEEA2_cEENS0_16assertion_resultERKT_RKT0_
FN:142,146,_ZNK5boost10test_tools9tt_detail15equal_impl_frwdclINSt7__cxx1112basic_stringIcSt11char_traitsIcESaIcEEEA33_cEENS0_16assertion_resultERKT_RKT0_
FN:142,146,_ZNK5boost10test_tools9tt_detail15equal_impl_frwdclINSt7__cxx1112basic_stringIcSt11char_traitsIcESaIcEEEA3_cEENS0_16assertion_resultERKT_RKT0_
FN:142,146,_ZNK5boost10test_tools9tt_detail15equal_impl_frwdclINSt7__cxx1112basic_stringIcSt11char_traitsIcESaIcEEEA4_cEENS0_16assertion_resultERKT_RKT0_
FN:142,146,_ZNK5boost10test_tools9tt_detail15equal_impl_frwdclINSt7__cxx1112basic_stringIcSt11char_traitsIcESaIcEEEA5_cEENS0_16assertion_resultERKT_RKT0_
FN:142,146,_ZNK5boost10test_tools9tt_detail15equal_impl_frwdclINSt7__cxx1112basic_stringIcSt11char_traitsIcESaIcEEEA6_cEENS0_16assertion_resultERKT_RKT0_
FN:142,146,_ZNK5boost10test_tools9tt_detail15equal_impl_frwdclINSt7__cxx1112basic_stringIcSt11char_traitsIcESaIcEEEA7_cEENS0_16assertion_resultERKT_RKT0_
FN:142,146,_ZNK5boost10test_tools9tt_detail15equal_impl_frwdclIbbEENS0_16assertion_resultERKT_RKT0_
FN:142,146,_ZNK5boost10test_tools9tt_detail15equal_impl_frwdclIbiEENS0_16assertion_resultERKT_RKT0_
FN:142,146,_ZNK5boost10test_tools9tt_detail15equal_impl_frwdclIiiEENS0_16assertion_resultERKT_RKT0_
FN:92,92,_ZN5boost10test_tools9tt_detail10check_frwdINS1_15equal_impl_frwdENSt7__cxx1112basic_stringIcSt11char_traitsIcESaIcEEEA17_cEEbT_RKNS_9unit_test12lazy_ostreamENSC_13basic_cstringIKcEEmNS1_10tool_levelENS1_10check_typeERKT0_PSH_RKT1_SO_
FN:92,92,_ZN5boost10test_tools9tt_detail10check_frwdINS1_15equal_impl_frwdENSt7__cxx1112basic_stringIcSt11char_traitsIcESaIcEEEA1_cEEbT_RKNS_9unit_test12lazy_ostreamENSC_13basic_cstringIKcEEmNS1_10tool_levelENS1_10check_typeERKT0_PSH_RKT1_SO_
FN:92,92,_ZN5boost10test_tools9tt_detail10check_frwdINS1_15equal_impl_frwdENSt7__cxx1112basic_stringIcSt11char_traitsIcESaIcEEEA2_cEEbT_RKNS_9unit_test12lazy_ostreamENSC_13basic_cstringIKcEEmNS1_10tool_levelENS1_10check_typeERKT0_PSH_RKT1_SO_
FN:92,92,_ZN5boost10test_tools9tt_detail10check_frwdINS1_15equal_impl_frwdENSt7__cxx1112basic_stringIcSt11char_traitsIcESaIcEEEA33_cEEbT_RKNS_9unit_test12lazy_ostreamENSC_13basic_cstringIKcEEmNS1_10tool_levelENS1_10check_typeERKT0_PSH_RKT1_SO_
FN:92,92,_ZN5boost10test_tools9tt_detail10check_frwdINS1_15equal_impl_frwdENSt7__cxx1112basic_stringIcSt11char_traitsIcESaIcEEEA3_cEEbT_RKNS_9unit_test12lazy_ostreamENSC_13basic_cstringIKcEEmNS1_10tool_levelENS1_10check_typeERKT0_PSH_RKT1_SO_
FN:92,92,_ZN5boost10test_tools9tt_detail10check_frwdINS1_15equal_impl_frwdENSt7__cxx1112basic_stringIcSt11char_traitsIcESaIcEEEA4_cEEbT_RKNS_9unit_test12lazy_ostreamENSC_13basic_cstringIKcEEmNS1_10tool_levelENS1_10check_typeERKT0_PSH_RKT1_SO_
FN:92,92,_ZN5boost10test_tools9tt_detail10check_frwdINS1_15equal_impl_frwdENSt7__cxx1112basic_stringIcSt11char_traitsIcESaIcEEEA5_cEEbT_RKNS_9unit_test12lazy_ostreamENSC_13basic_cstringIKcEEmNS1_10tool_levelENS1_10check_typeERKT0_PSH_RKT1_SO_
FN:92,92,_ZN5boost10test_tools9tt_detail10check_frwdINS1_15equal_impl_frwdENSt7__cxx1112basic_stringIcSt11char_traitsIcESaIcEEEA6_cEEbT_RKNS_9unit_test12lazy_ostreamENSC_13basic_cstringIKcEEmNS1_10tool_levelENS1_10check_typeERKT0_PSH_RKT1_SO_
FN:92,92,_ZN5boost10test_tools9tt_detail10check_frwdINS1_15equal_impl_frwdENSt7__cxx1112basic_stringIcSt11char_traitsIcESaIcEEEA7_cEEbT_RKNS_9unit_test12lazy_ostreamENSC_13basic_cstringIKcEEmNS1_10tool_levelENS1_10check_typeERKT0_PSH_RKT1_SO_
FN:92,92,_ZN5boost10test_tools9tt_detail10check_frwdINS1_15equal_impl_frwdEbbEEbT_RKNS_9unit_test12lazy_ostreamENS5_13basic_cstringIKcEEmNS1_10tool_levelENS1_10check_typeERKT0_PSA_RKT1_SH_
FN:92,92,_ZN5boost10test_tools9tt_detail10check_frwdINS1_15equal_impl_frwdEbiEEbT_RKNS_9unit_test12lazy_ostreamENS5_13basic_cstringIKcEEmNS1_10tool_levelENS1_10check_typeERKT0_PSA_RKT1_SH_
FN:92,92,_ZN5boost10test_tools9tt_detail10check_frwdINS1_15equal_impl_frwdEiiEEbT_RKNS_9unit_test12lazy_ostreamENS5_13basic_cstringIKcEEmNS1_10tool_levelENS1_10check_typeERKT0_PSA_RKT1_SH_
FNDA:1,_ZN5boost10test_tools9tt_detail10equal_implINSt7__cxx1112basic_stringIcSt11char_traitsIcESaIcEEEA17_cEENS0_16assertion_resultERKT_RKT0_
FNDA:4,_ZN5boost10test_tools9tt_detail10equal_implINSt7__cxx1112basic_stringIcSt11char_traitsIcESaIcEEEA1_cEENS0_16assertion_resultERKT_RKT0_
FNDA:1,_ZN5boost10test_tools9tt_detail10equal_implINSt7__cxx1112basic_stringIcSt11char_traitsIcESaIcEEEA2_cEENS0_16assertion_resultERKT_RKT0_
FNDA:2,_ZN5boost10test_tools9tt_detail10equal_implINSt7__cxx1112basic_stringIcSt11char_traitsIcESaIcEEEA33_cEENS0_16assertion_resultERKT_RKT0_
FNDA:2,_ZN5boost10test_tools9tt_detail10equal_implINSt7__cxx1112basic_stringIcSt11char_traitsIcESaIcEEEA3_cEENS0_16assertion_resultERKT_RKT0_
FNDA:7,_ZN5boost10test_tools9tt_detail10equal_implINSt7__cxx1112basic_stringIcSt11char_traitsIcESaIcEEEA4_cEENS0_16assertion_resultERKT_RKT0_
FNDA:1,_ZN5boost10test_tools9tt_detail10equal_implINSt7__cxx1112basic_stringIcSt11char_traitsIcESaIcEEEA5_cEENS0_16assertion_resultERKT_RKT0_
FNDA:5,_ZN5boost10test_tools9tt_detail10equal_implINSt7__cxx1112basic_stringIcSt11char_traitsIcESaIcEEEA6_cEENS0_16assertion_resultERKT_RKT0_
FNDA:7,_ZN5boost10test_tools9tt_detail10equal_implINSt7__cxx1112basic_stringIcSt11char_traitsIcESaIcEEEA7_cEENS0_16assertion_resultERKT_RKT0_
FNDA:59,_ZN5boost10test_tools9tt_detail10equal_implIbbEENS0_16assertion_resultERKT_RKT0_
FNDA:4,_ZN5boost10test_tools9tt_detail10equal_implIbiEENS0_16assertion_resultERKT_RKT0_
FNDA:1,_ZN5boost10test_tools9tt_detail10equal_implIiiEENS0_16assertion_resultERKT_RKT0_
FNDA:1,_ZNK5boost10test_tools9tt_detail15equal_impl_frwd9call_implINSt7__cxx1112basic_stringIcSt11char_traitsIcESaIcEEEA17_cEENS0_16assertion_resultERKT_RKT0_N4mpl_5bool_ILb0EEE
FNDA:4,_ZNK5boost10test_tools9tt_detail15equal_impl_frwd9call_implINSt7__cxx1112basic_stringIcSt11char_traitsIcESaIcEEEA1_cEENS0_16assertion_resultERKT_RKT0_N4mpl_5bool_ILb0EEE
FNDA:1,_ZNK5boost10test_tools9tt_detail15equal_impl_frwd9call_implINSt7__cxx1112basic_stringIcSt11char_traitsIcESaIcEEEA2_cEENS0_16assertion_resultERKT_RKT0_N4mpl_5bool_ILb0EEE
FNDA:2,_ZNK5boost10test_tools9tt_detail15equal_impl_frwd9call_implINSt7__cxx1112basic_stringIcSt11char_traitsIcESaIcEEEA33_cEENS0_16assertion_resultERKT_RKT0_N4mpl_5bool_ILb0EEE
FNDA:2,_ZNK5boost10test_tools9tt_detail15equal_impl_frwd9call_implINSt7__cxx1112basic_stringIcSt11char_traitsIcESaIcEEEA3_cEENS0_16assertion_resultERKT_RKT0_N4mpl_5bool_ILb0EEE
FNDA:7,_ZNK5boost10test_tools9tt_detail15equal_impl_frwd9call_implINSt7__cxx1112basic_stringIcSt11char_traitsIcESaIcEEEA4_cEENS0_16assertion_resultERKT_RKT0_N4mpl_5bool_ILb0EEE
FNDA:1,_ZNK5boost10test_tools9tt_detail15equal_impl_frwd9call_implINSt7__cxx1112basic_stringIcSt11char_traitsIcESaIcEEEA5_cEENS0_16assertion_resultERKT_RKT0_N4mpl_5bool_ILb0EEE
FNDA:5,_ZNK5boost10test_tools9tt_detail15equal_impl_frwd9call_implINSt7__cxx1112basic_stringIcSt11char_traitsIcESaIcEEEA6_cEENS0_16assertion_resultERKT_RKT0_N4mpl_5bool_ILb0EEE
FNDA:7,_ZNK5boost10test_tools9tt_detail15equal_impl_frwd9call_implINSt7__cxx1112basic_stringIcSt11char_traitsIcESaIcEEEA7_cEENS0_16assertion_resultERKT_RKT0_N4mpl_5bool_ILb0EEE
FNDA:59,_ZNK5boost10test_tools9tt_detail15equal_impl_frwd9call_implIbbEENS0_16assertion_resultERKT_RKT0_N4mpl_5bool_ILb0EEE
FNDA:4,_ZNK5boost10test_tools9tt_detail15equal_impl_frwd9call_implIbiEENS0_16assertion_resultERKT_RKT0_N4mpl_5bool_ILb0EEE
FNDA:1,_ZNK5boost10test_tools9tt_detail15equal_impl_frwd9call_implIiiEENS0_16assertion_resultERKT_RKT0_N4mpl_5bool_ILb0EEE
FNDA:1,_ZNK5boost10test_tools9tt_detail15equal_impl_frwdclINSt7__cxx1112basic_stringIcSt11char_traitsIcESaIcEEEA17_cEENS0_16assertion_resultERKT_RKT0_
FNDA:4,_ZNK5boost10test_tools9tt_detail15equal_impl_frwdclINSt7__cxx1112basic_stringIcSt11char_traitsIcESaIcEEEA1_cEENS0_16assertion_resultERKT_RKT0_
FNDA:1,_ZNK5boost10test_tools9tt_detail15equal_impl_frwdclINSt7__cxx1112basic_stringIcSt11char_traitsIcESaIcEEEA2_cEENS0_16assertion_resultERKT_RKT0_
FNDA:2,_ZNK5boost10test_tools9tt_detail15equal_impl_frwdclINSt7__cxx1112basic_stringIcSt11char_traitsIcESaIcEEEA33_cEENS0_16assertion_resultERKT_RKT0_
FNDA:2,_ZNK5boost10test_tools9tt_detail15equal_impl_frwdclINSt7__cxx1112basic_stringIcSt11char_traitsIcESaIcEEEA3_cEENS0_16assertion_resultERKT_RKT0_
FNDA:7,_ZNK5boost10test_tools9tt_detail15equal_impl_frwdclINSt7__cxx1112basic_stringIcSt11char_traitsIcESaIcEEEA4_cEENS0_16assertion_resultERKT_RKT0_
FNDA:1,_ZNK5boost10test_tools9tt_detail15equal_impl_frwdclINSt7__cxx1112basic_stringIcSt11char_traitsIcESaIcEEEA5_cEENS0_16assertion_resultERKT_RKT0_
FNDA:5,_ZNK5boost10test_tools9tt_detail15equal_impl_frwdclINSt7__cxx1112basic_stringIcSt11char_traitsIcESaIcEEEA6_cEENS0_16assertion_resultERKT_RKT0_
FNDA:7,_ZNK5boost10test_tools9tt_detail15equal_impl_frwdclINSt7__cxx1112basic_stringIcSt11char_traitsIcESaIcEEEA7_cEENS0_16assertion_resultERKT_RKT0_
FNDA:59,_ZNK5boost10test_tools9tt_detail15equal_impl_frwdclIbbEENS0_16assertion_resultERKT_RKT0_
FNDA:4,_ZNK5boost10test_tools9tt_detail15equal_impl_frwdclIbiEENS0_16assertion_resultERKT_RKT0_
FNDA:1,_ZNK5boost10test_tools9tt_detail15equal_impl_frwdclIiiEENS0_16assertion_resultERKT_RKT0_
FNDA:1,_ZN5boost10test_tools9tt_detail10check_frwdINS1_15equal_impl_frwdENSt7__cxx1112basic_stringIcSt11char_traitsIcESaIcEEEA17_cEEbT_RKNS_9unit_test12lazy_ostreamENSC_13basic_cstringIKcEEmNS1_10tool_levelENS1_10check_typeERKT0_PSH_RKT1_SO_
FNDA:4,_ZN5boost10test_tools9tt_detail10check_frwdINS1_15equal_impl_frwdENSt7__cxx1112basic_stringIcSt11char_traitsIcESaIcEEEA1_cEEbT_RKNS_9unit_test12lazy_ostreamENSC_13basic_cstringIKcEEmNS1_10tool_levelENS1_10check_typeERKT0_PSH_RKT1_SO_
FNDA:1,_ZN5boost10test_tools9tt_detail10check_frwdINS1_15equal_impl_frwdENSt7__cxx1112basic_stringIcSt11char_traitsIcESaIcEEEA2_cEEbT_RKNS_9unit_test12lazy_ostreamENSC_13basic_cstringIKcEEmNS1_10tool_levelENS1_10check_typeERKT0_PSH_RKT1_SO_
FNDA:2,_ZN5boost10test_tools9tt_detail10check_frwdINS1_15equal_impl_frwdENSt7__cxx1112basic_stringIcSt11char_traitsIcESaIcEEEA33_cEEbT_RKNS_9unit_test12lazy_ostreamENSC_13basic_cstringIKcEEmNS1_10tool_levelENS1_10check_typeERKT0_PSH_RKT1_SO_
FNDA:2,_ZN5boost10test_tools9tt_detail10check_frwdINS1_15equal_impl_frwdENSt7__cxx1112basic_stringIcSt11char_traitsIcESaIcEEEA3_cEEbT_RKNS_9unit_test12lazy_ostreamENSC_13basic_cstringIKcEEmNS1_10tool_levelENS1_10check_typeERKT0_PSH_RKT1_SO_
FNDA:7,_ZN5boost10test_tools9tt_detail10check_frwdINS1_15equal_impl_frwdENSt7__cxx1112basic_stringIcSt11char_traitsIcESaIcEEEA4_cEEbT_RKNS_9unit_test12lazy_ostreamENSC_13basic_cstringIKcEEmNS1_10tool_levelENS1_10check_typeERKT0_PSH_RKT1_SO_
FNDA:1,_ZN5boost10test_tools9tt_detail10check_frwdINS1_15equal_impl_frwdENSt7__cxx1112basic_stringIcSt11char_traitsIcESaIcEEEA5_cEEbT_RKNS_9unit_test12lazy_ostreamENSC_13basic_cstringIKcEEmNS1_10tool_levelENS1_10check_typeERKT0_PSH_RKT1_SO_
FNDA:5,_ZN5boost10test_tools9tt_detail10check_frwdINS1_15equal_impl_frwdENSt7__cxx1112basic_stringIcSt11char_traitsIcESaIcEEEA6_cEEbT_RKNS_9unit_test12lazy_ostreamENSC_13basic_cstringIKcEEmNS1_10tool_levelENS1_10check_typeERKT0_PSH_RKT1_SO_
FNDA:7,_ZN5boost10test_tools9tt_detail10check_frwdINS1_15equal_impl_frwdENSt7__cxx1112basic_stringIcSt11char_traitsIcESaIcEEEA7_cEEbT_RKNS_9unit_test12lazy_ostreamENSC_13basic_cstringIKcEEmNS1_10tool_levelENS1_10check_typeERKT0_PSH_RKT1_SO_
FNDA:59,_ZN5boost10test_tools9tt_detail10check_frwdINS1_15equal_impl_frwdEbbEEbT_RKNS_9unit_test12lazy_ostreamENS5_13basic_cstringIKcEEmNS1_10tool_levelENS1_10check_typeERKT0_PSA_RKT1_SH_
FNDA:4,_ZN5boost10test_tools9tt_detail10check_frwdINS1_15equal_impl_frwdEbiEEbT_RKNS_9unit_test12lazy_ostreamENS5_13basic_cstringIKcEEmNS1_10tool_levelENS1_10check_typeERKT0_PSA_RKT1_SH_
FNDA:1,_ZN5boost10test_tools9tt_detail10check_frwdINS1_15equal_impl_frwdEiiEEbT_RKNS_9unit_test12lazy_ostreamENS5_13basic_cstringIKcEEmNS1_10tool_levelENS1_10check_typeERKT0_PSA_RKT1_SH_
FNF:48
FNH:48
DA:92,94
DA:105,94
DA:107,94
DA:128,94
DA:130,94
DA:142,94
DA:145,94
LF:7
LH:7
end_of_record
TN:
SF:/usr/include/boost/test/tools/output_test_stream.hpp
FNF:0
FNH:0
LF:0
LH:0
end_of_record
TN:
SF:/usr/include/boost/test/tree/decorator.hpp
FN:111,111,_ZN5boost9unit_test9decorator15stack_decoratorC2Ev
FN:118,118,_ZNK5boost9unit_test9decorator15stack_decorator5cloneEv
FN:127,127,_ZN5boost9unit_test9decorator5labelC2ENS0_13basic_cstringIKcEE
FN:132,132,_ZNK5boost9unit_test9decorator5label5cloneEv
FN:144,144,_ZN5boost9unit_test9decorator17expected_failuresC2Em
FN:149,149,_ZNK5boost9unit_test9decorator17expected_failures5cloneEv
FN:161,161,_ZN5boost9unit_test9decorator7timeoutC2Ej
FN:166,166,_ZNK5boost9unit_test9decorator7timeout5cloneEv
FN:178,178,_ZN5boost9unit_test9decorator11descriptionC2ENS0_13basic_cstringIKcEE
FN:183,183,_ZNK5boost9unit_test9decorator11description5cloneEv
FN:195,195,_ZN5boost9unit_test9decorator10depends_onC2ENS0_13basic_cstringIKcEE
FN:200,200,_ZNK5boost9unit_test9decorator10depends_on5cloneEv
FN:233,233,_ZN5boost9unit_test9decorator9fixture_tC2ENS_10shared_ptrINS0_17test_unit_fixtureEEE
FN:238,238,_ZNK5boost9unit_test9decorator9fixture_t5cloneEv
FN:280,280,_ZN5boost9unit_test9decorator12preconditionC2ENS_8functionIFNS_10test_tools16assertion_resultEmEEE
FN:285,285,_ZNK5boost9unit_test9decorator12precondition5cloneEv
FN:67,67,_ZN5boost9unit_test9decorator11collector_tD2Ev
FN:71,71,_ZN5boost9unit_test9decorator11collector_tC2Ev
FN:94,94,_ZN5boost9unit_test9decorator4baseD0Ev
FN:94,94,_ZN5boost9unit_test9decorator4baseD2Ev
FNDA:0,_ZN5boost9unit_test9decorator15stack_decoratorC2Ev
FNDA:0,_ZNK5boost9unit_test9decorator15stack_decorator5cloneEv
FNDA:0,_ZN5boost9unit_test9decorator5labelC2ENS0_13basic_cstringIKcEE
FNDA:0,_ZNK5boost9unit_test9decorator5label5cloneEv
FNDA:0,_ZN5boost9unit_test9decorator17expected_failuresC2Em
FNDA:0,_ZNK5boost9unit_test9decorator17expected_failures5cloneEv
FNDA:0,_ZN5boost9unit_test9decorator7timeoutC2Ej
FNDA:0,_ZNK5boost9unit_test9decorator7timeout5cloneEv
FNDA:0,_ZN5boost9unit_test9decorator11descriptionC2ENS0_13basic_cstringIKcEE
FNDA:0,_ZNK5boost9unit_test9decorator11description5cloneEv
FNDA:0,_ZN5boost9unit_test9decorator10depends_onC2ENS0_13basic_cstringIKcEE
FNDA:0,_ZNK5boost9unit_test9decorator10depends_on5cloneEv
FNDA:0,_ZN5boost9unit_test9decorator9fixture_tC2ENS_10shared_ptrINS0_17test_unit_fixtureEEE
FNDA:0,_ZNK5boost9unit_test9decorator9fixture_t5cloneEv
FNDA:0,_ZN5boost9unit_test9decorator12preconditionC2ENS_8functionIFNS_10test_tools16assertion_resultEmEEE
FNDA:0,_ZNK5boost9unit_test9decorator12precondition5cloneEv
FNDA:1,_ZN5boost9unit_test9decorator11collector_tD2Ev
FNDA:1,_ZN5boost9unit_test9decorator11collector_tC2Ev
FNDA:0,_ZN5boost9unit_test9decorator4baseD0Ev
FNDA:0,_ZN5boost9unit_test9decorator4baseD2Ev
FNF:20
FNH:2
DA:67,1
DA:71,3
DA:94,0
DA:111,0
DA:118,0
DA:127,0
DA:132,0
DA:144,0
DA:149,0
DA:161,0
DA:166,0
DA:178,0
DA:183,0
DA:195,0
DA:200,0
DA:233,0
DA:238,0
DA:280,0
DA:285,0
LF:19
LH:2
end_of_record
TN:
SF:/usr/include/boost/test/tree/fixture.hpp
FN:104,104,_ZN5boost9unit_test12impl_fixture13call_teardownILb0EEclI11test_removeEEvRT_
FN:104,104,_ZN5boost9unit_test12impl_fixture13call_teardownILb0EEclI12test_pop_endEEvRT_
FN:104,104,_ZN5boost9unit_test12impl_fixture13call_teardownILb0EEclI12test_print_qEEvRT_
FN:104,104,_ZN5boost9unit_test12impl_fixture13call_teardownILb0EEclI13test_print_ldEEvRT_
FN:104,104,_ZN5boost9unit_test12impl_fixture13call_teardownILb0EEclI13test_print_lsEEvRT_
FN:104,104,_ZN5boost9unit_test12impl_fixture13call_teardownILb0EEclI13test_push_endEEvRT_
FN:104,104,_ZN5boost9unit_test12impl_fixture13call_teardownILb0EEclI14test_empty_getEEvRT_
FN:104,104,_ZN5boost9unit_test12impl_fixture13call_teardownILb0EEclI14test_pop_frontEEvRT_
FN:104,104,_ZN5boost9unit_test12impl_fixture13call_teardownILb0EEclI14test_pop_indexEEvRT_
FN:104,104,_ZN5boost9unit_test12impl_fixture13call_teardownILb0EEclI14test_pop_queueEEvRT_
FN:104,104,_ZN5boost9unit_test12impl_fixture13call_teardownILb0EEclI14test_pop_stackEEvRT_
FN:104,104,_ZN5boost9unit_test12impl_fixture13call_teardownILb0EEclI14test_pop_znachEEvRT_
FN:104,104,_ZN5boost9unit_test12impl_fixture13call_teardownILb0EEclI14test_print_masEEvRT_
FN:104,104,_ZN5boost9unit_test12impl_fixture13call_teardownILb0EEclI14test_push_headEEvRT_
FN:104,104,_ZN5boost9unit_test12impl_fixture13call_teardownILb0EEclI15test_empty_listEEvRT_
FN:104,104,_ZN5boost9unit_test12impl_fixture13call_teardownILb0EEclI15test_pop_end_ldEEvRT_
FN:104,104,_ZN5boost9unit_test12impl_fixture13call_teardownILb0EEclI15test_print_hashEEvRT_
FN:104,104,_ZN5boost9unit_test12impl_fixture13call_teardownILb0EEclI15test_push_indexEEvRT_
FN:104,104,_ZN5boost9unit_test12impl_fixture13call_teardownILb0EEclI15test_push_queueEEvRT_
FN:104,104,_ZN5boost9unit_test12impl_fixture13call_teardownILb0EEclI15test_push_stackEEvRT_
FN:104,104,_ZN5boost9unit_test12impl_fixture13call_teardownILb0EEclI16test_empty_queueEEvRT_
FN:104,104,_ZN5boost9unit_test12impl_fixture13call_teardownILb0EEclI16test_empty_stackEEvRT_
FN:104,104,_ZN5boost9unit_test12impl_fixture13call_teardownILb0EEclI16test_print_stackEEvRT_
FN:104,104,_ZN5boost9unit_test12impl_fixture13call_teardownILb0EEclI16test_push_end_ldEEvRT_
FN:104,104,_ZN5boost9unit_test12impl_fixture13call_teardownILb0EEclI16test_push_end_lsEEvRT_
FN:104,104,_ZN5boost9unit_test12impl_fixture13call_teardownILb0EEclI17test_pop_front_ldEEvRT_
FN:104,104,_ZN5boost9unit_test12impl_fixture13call_teardownILb0EEclI17test_pop_znach_ldEEvRT_
FN:104,104,_ZN5boost9unit_test12impl_fixture13call_teardownILb0EEclI17test_push_head_ldEEvRT_
FN:104,104,_ZN5boost9unit_test12impl_fixture13call_teardownILb0EEclI17test_update_valueEEvRT_
FN:104,104,_ZN5boost9unit_test12impl_fixture13call_teardownILb0EEclI18test_empty_list_ldEEvRT_
FN:104,104,_ZN5boost9unit_test12impl_fixture13call_teardownILb0EEclI18test_replace_indexEEvRT_
FN:104,104,_ZN5boost9unit_test12impl_fixture13call_teardownILb0EEclI19test_insert_and_getEEvRT_
FN:104,104,_ZN5boost9unit_test12impl_fixture13call_teardownILb0EEclI20BenchmarkListPushPopEEvRT_
FN:104,104,_ZN5boost9unit_test12impl_fixture13call_teardownILb0EEclI21BenchmarkQueuePushPopEEvRT_
FN:104,104,_ZN5boost9unit_test12impl_fixture13call_teardownILb0EEclI21BenchmarkStackPushPopEEvRT_
FN:104,104,_ZN5boost9unit_test12impl_fixture13call_teardownILb0EEclI22BenchmarkHashInsertGetEEvRT_
FN:104,104,_ZN5boost9unit_test12impl_fixture13call_teardownILb0EEclI23BenchmarkTreeInsertFindEEvRT_
FN:104,104,_ZN5boost9unit_test12impl_fixture13call_teardownILb0EEclI23test_collision_handlingEEvRT_
FN:104,104,_ZN5boost9unit_test12impl_fixture13call_teardownILb0EEclI24BenchmarkMassivePopIndexEEvRT_
FN:104,104,_ZN5boost9unit_test12impl_fixture13call_teardownILb0EEclI24BenchmarkMassivePushBackEEvRT_
FN:104,104,_ZN5boost9unit_test12impl_fixture13call_teardownILb0EEclI26BenchmarkDoubleListPushPopEEvRT_
FN:104,104,_ZN5boost9unit_test12impl_fixture13call_teardownILb0EEclI8test_binEEvRT_
FN:104,104,_ZN5boost9unit_test12impl_fixture13call_teardownILb0EEclI9test_emtyEEvRT_
FN:104,104,_ZN5boost9unit_test12impl_fixture13call_teardownILb0EEclI9test_findEEvRT_
FN:104,104,_ZN5boost9unit_test12impl_fixture13call_teardownILb0EEclI9test_pushEEvRT_
FN:104,104,_ZN5boost9unit_test12impl_fixture13call_teardownILb0EEclI9test_sizeEEvRT_
FN:112,114,_ZN5boost9unit_test17setup_conditionalI11test_removeEEvRT_
FN:112,114,_ZN5boost9unit_test17setup_conditionalI12test_pop_endEEvRT_
FN:112,114,_ZN5boost9unit_test17setup_conditionalI12test_print_qEEvRT_
FN:112,114,_ZN5boost9unit_test17setup_conditionalI13test_print_ldEEvRT_
FN:112,114,_ZN5boost9unit_test17setup_conditionalI13test_print_lsEEvRT_
FN:112,114,_ZN5boost9unit_test17setup_conditionalI13test_push_endEEvRT_
FN:112,114,_ZN5boost9unit_test17setup_conditionalI14test_empty_getEEvRT_
FN:112,114,_ZN5boost9unit_test17setup_conditionalI14test_pop_frontEEvRT_
FN:112,114,_ZN5boost9unit_test17setup_conditionalI14test_pop_indexEEvRT_
FN:112,114,_ZN5boost9unit_test17setup_conditionalI14test_pop_queueEEvRT_
FN:112,114,_ZN5boost9unit_test17setup_conditionalI14test_pop_stackEEvRT_
FN:112,114,_ZN5boost9unit_test17setup_conditionalI14test_pop_znachEEvRT_
FN:112,114,_ZN5boost9unit_test17setup_conditionalI14test_print_masEEvRT_
FN:112,114,_ZN5boost9unit_test17setup_conditionalI14test_push_headEEvRT_
FN:112,114,_ZN5boost9unit_test17setup_conditionalI15test_empty_listEEvRT_
FN:112,114,_ZN5boost9unit_test17setup_conditionalI15test_pop_end_ldEEvRT_
FN:112,114,_ZN5boost9unit_test17setup_conditionalI15test_print_hashEEvRT_
FN:112,114,_ZN5boost9unit_test17setup_conditionalI15test_push_indexEEvRT_
FN:112,114,_ZN5boost9unit_test17setup_conditionalI15test_push_queueEEvRT_
FN:112,114,_ZN5boost9unit_test17setup_conditionalI15test_push_stackEEvRT_
FN:112,114,_ZN5boost9unit_test17setup_conditionalI16test_empty_queueEEvRT_
FN:112,114,_ZN5boost9unit_test17setup_conditionalI16test_empty_stackEEvRT_
FN:112,114,_ZN5boost9unit_test17setup_conditionalI16test_print_stackEEvRT_
FN:112,114,_ZN5boost9unit_test17setup_conditionalI16test_push_end_ldEEvRT_
FN:112,114,_ZN5boost9unit_test17setup_conditionalI16test_push_end_lsEEvRT_
FN:112,114,_ZN5boost9unit_test17setup_conditionalI17test_pop_front_ldEEvRT_
FN:112,114,_ZN5boost9unit_test17setup_conditionalI17test_pop_znach_ldEEvRT_
FN:112,114,_ZN5boost9unit_test17setup_conditionalI17test_push_head_ldEEvRT_
FN:112,114,_ZN5boost9unit_test17setup_conditionalI17test_update_valueEEvRT_
FN:112,114,_ZN5boost9unit_test17setup_conditionalI18test_empty_list_ldEEvRT_
FN:112,114,_ZN5boost9unit_test17setup_conditionalI18test_replace_indexEEvRT_
FN:112,114,_ZN5boost9unit_test17setup_conditionalI19test_insert_and_getEEvRT_
FN:112,114,_ZN5boost9unit_test17setup_conditionalI20BenchmarkListPushPopEEvRT_
FN:112,114,_ZN5boost9unit_test17setup_conditionalI21BenchmarkQueuePushPopEEvRT_
FN:112,114,_ZN5boost9unit_test17setup_conditionalI21BenchmarkStackPushPopEEvRT_
FN:112,114,_ZN5boost9unit_test17setup_conditionalI22BenchmarkHashInsertGetEEvRT_
FN:112,114,_ZN5boost9unit_test17setup_conditionalI23BenchmarkTreeInsertFindEEvRT_
FN:112,114,_ZN5boost9unit_test17setup_conditionalI23test_collision_handlingEEvRT_
FN:112,114,_ZN5boost9unit_test17setup_conditionalI24BenchmarkMassivePopIndexEEvRT_
FN:112,114,_ZN5boost9unit_test17setup_conditionalI24BenchmarkMassivePushBackEEvRT_
FN:112,114,_ZN5boost9unit_test17setup_conditionalI26BenchmarkDoubleListPushPopEEvRT_
FN:112,114,_ZN5boost9unit_test17setup_conditionalI8test_binEEvRT_
FN:112,114,_ZN5boost9unit_test17setup_conditionalI9test_emtyEEvRT_
FN:112,114,_ZN5boost9unit_test17setup_conditionalI9test_findEEvRT_
FN:112,114,_ZN5boost9unit_test17setup_conditionalI9test_pushEEvRT_
FN:112,114,_ZN5boost9unit_test17setup_conditionalI9test_sizeEEvRT_
FN:118,120,_ZN5boost9unit_test20teardown_conditionalI11test_removeEEvRT_
FN:118,120,_ZN5boost9unit_test20teardown_conditionalI12test_pop_endEEvRT_
FN:118,120,_ZN5boost9unit_test20teardown_conditionalI12test_print_qEEvRT_
FN:118,120,_ZN5boost9unit_test20teardown_conditionalI13test_print_ldEEvRT_
FN:118,120,_ZN5boost9unit_test20teardown_conditionalI13test_print_lsEEvRT_
FN:118,120,_ZN5boost9unit_test20teardown_conditionalI13test_push_endEEvRT_
FN:118,120,_ZN5boost9unit_test20teardown_conditionalI14test_empty_getEEvRT_
FN:118,120,_ZN5boost9unit_test20teardown_conditionalI14test_pop_frontEEvRT_
FN:118,120,_ZN5boost9unit_test20teardown_conditionalI14test_pop_indexEEvRT_
FN:118,120,_ZN5boost9unit_test20teardown_conditionalI14test_pop_queueEEvRT_
FN:118,120,_ZN5boost9unit_test20teardown_conditionalI14test_pop_stackEEvRT_
FN:118,120,_ZN5boost9unit_test20teardown_conditionalI14test_pop_znachEEvRT_
FN:118,120,_ZN5boost9unit_test20teardown_conditionalI14test_print_masEEvRT_
FN:118,120,_ZN5boost9unit_test20teardown_conditionalI14test_push_headEEvRT_
FN:118,120,_ZN5boost9unit_test20teardown_conditionalI15test_empty_listEEvRT_
FN:118,120,_ZN5boost9unit_test20teardown_conditionalI15test_pop_end_ldEEvRT_
FN:118,120,_ZN5boost9unit_test20teardown_conditionalI15test_print_hashEEvRT_
FN:118,120,_ZN5boost9unit_test20teardown_conditionalI15test_push_indexEEvRT_
FN:118,120,_ZN5boost9unit_test20teardown_conditionalI15test_push_queueEEvRT_
FN:118,120,_ZN5boost9unit_test20teardown_conditionalI15test_push_stackEEvRT_
FN:118,120,_ZN5boost9unit_test20teardown_conditionalI16test_empty_queueEEvRT_
FN:118,120,_ZN5boost9unit_test20teardown_conditionalI16test_empty_stackEEvRT_
FN:118,120,_ZN5boost9unit_test20teardown_conditionalI16test_print_stackEEvRT_
FN:118,120,_ZN5boost9unit_test20teardown_conditionalI16test_push_end_ldEEvRT_
FN:118,120,_ZN5boost9unit_test20teardown_conditionalI16test_push_end_lsEEvRT_
FN:118,120,_ZN5boost9unit_test20teardown_conditionalI17test_pop_front_ldEEvRT_
FN:118,120,_ZN5boost9unit_test20teardown_conditionalI17test_pop_znach_ldEEvRT_
FN:118,120,_ZN5boost9unit_test20teardown_conditionalI17test_push_head_ldEEvRT_
FN:118,120,_ZN5boost9unit_test20teardown_conditionalI17test_update_valueEEvRT_
FN:118,120,_ZN5boost9unit_test20teardown_conditionalI18test_empty_list_ldEEvRT_
FN:118,120,_ZN5boost9unit_test20teardown_conditionalI18test_replace_indexEEvRT_
FN:118,120,_ZN5boost9unit_test20teardown_conditionalI19test_insert_and_getEEvRT_
FN:118,120,_ZN5boost9unit_test20teardown_conditionalI20BenchmarkListPushPopEEvRT_
FN:118,120,_ZN5boost9unit_test20teardown_conditionalI21BenchmarkQueuePushPopEEvRT_
FN:118,120,_ZN5boost9unit_test20teardown_conditionalI21BenchmarkStackPushPopEEvRT_
FN:118,120,_ZN5boost9unit_test20teardown_conditionalI22BenchmarkHashInsertGetEEvRT_
FN:118,120,_ZN5boost9unit_test20teardown_conditionalI23BenchmarkTreeInsertFindEEvRT_
FN:118,120,_ZN5boost9unit_test20teardown_conditionalI23test_collision_handlingEEvRT_
FN:118,120,_ZN5boost9unit_test20teardown_conditionalI24BenchmarkMassivePopIndexEEvRT_
FN:118,120,_ZN5boost9unit_test20teardown_conditionalI24BenchmarkMassivePushBackEEvRT_
FN:118,120,_ZN5boost9unit_test20teardown_conditionalI26BenchmarkDoubleListPushPopEEvRT_
FN:118,120,_ZN5boost9unit_test20teardown_conditionalI8test_binEEvRT_
FN:118,120,_ZN5boost9unit_test20teardown_conditionalI9test_emtyEEvRT_
FN:118,120,_ZN5boost9unit_test20teardown_conditionalI9test_findEEvRT_
FN:118,120,_ZN5boost9unit_test20teardown_conditionalI9test_pushEEvRT_
FN:118,120,_ZN5boost9unit_test20teardown_conditionalI9test_sizeEEvRT_
FN:37,37,_ZN5boost9unit_test17test_unit_fixtureD0Ev
FN:37,37,_ZN5boost9unit_test17test_unit_fixtureD2Ev
FN:98,98,_ZN5boost9unit_test12impl_fixture10call_setupILb0EEclI11test_removeEEvRT_
FN:98,98,_ZN5boost9unit_test12impl_fixture10call_setupILb0EEclI12test_pop_endEEvRT_
FN:98,98,_ZN5boost9unit_test12impl_fixture10call_setupILb0EEclI12test_print_qEEvRT_
FN:98,98,_ZN5boost9unit_test12impl_fixture10call_setupILb0EEclI13test_print_ldEEvRT_
FN:98,98,_ZN5boost9unit_test12impl_fixture10call_setupILb0EEclI13test_print_lsEEvRT_
FN:98,98,_ZN5boost9unit_test12impl_fixture10call_setupILb0EEclI13test_push_endEEvRT_
FN:98,98,_ZN5boost9unit_test12impl_fixture10call_setupILb0EEclI14test_empty_getEEvRT_
FN:98,98,_ZN5boost9unit_test12impl_fixture10call_setupILb0EEclI14test_pop_frontEEvRT_
FN:98,98,_ZN5boost9unit_test12impl_fixture10call_setupILb0EEclI14test_pop_indexEEvRT_
FN:98,98,_ZN5boost9unit_test12impl_fixture10call_setupILb0EEclI14test_pop_queueEEvRT_
FN:98,98,_ZN5boost9unit_test12impl_fixture10call_setupILb0EEclI14test_pop_stackEEvRT_
FN:98,98,_ZN5boost9unit_test12impl_fixture10call_setupILb0EEclI14test_pop_znachEEvRT_
FN:98,98,_ZN5boost9unit_test12impl_fixture10call_setupILb0EEclI14test_print_masEEvRT_
FN:98,98,_ZN5boost9unit_test12impl_fixture10call_setupILb0EEclI14test_push_headEEvRT_
FN:98,98,_ZN5boost9unit_test12impl_fixture10call_setupILb0EEclI15test_empty_listEEvRT_
FN:98,98,_ZN5boost9unit_test12impl_fixture10call_setupILb0EEclI15test_pop_end_ldEEvRT_
FN:98,98,_ZN5boost9unit_test12impl_fixture10call_setupILb0EEclI15test_print_hashEEvRT_
FN:98,98,_ZN5boost9unit_test12impl_fixture10call_setupILb0EEclI15test_push_indexEEvRT_
FN:98,98,_ZN5boost9unit_test12impl_fixture10call_setupILb0EEclI15test_push_queueEEvRT_
FN:98,98,_ZN5boost9unit_test12impl_fixture10call_setupILb0EEclI15test_push_stackEEvRT_
FN:98,98,_ZN5boost9unit_test12impl_fixture10call_setupILb0EEclI16test_empty_queueEEvRT_
FN:98,98,_ZN5boost9unit_test12impl_fixture10call_setupILb0EEclI16test_empty_stackEEvRT_
FN:98,98,_ZN5boost9unit_test12impl_fixture10call_setupILb0EEclI16test_print_stackEEvRT_
FN:98,98,_ZN5boost9unit_test12impl_fixture10call_setupILb0EEclI16test_push_end_ldEEvRT_
FN:98,98,_ZN5boost9unit_test12impl_fixture10call_setupILb0EEclI16test_push_end_lsEEvRT_
FN:98,98,_ZN5boost9unit_test12impl_fixture10call_setupILb0EEclI17test_pop_front_ldEEvRT_
FN:98,98,_ZN5boost9unit_test12impl_fixture10call_setupILb0EEclI17test_pop_znach_ldEEvRT_
FN:98,98,_ZN5boost9unit_test12impl_fixture10call_setupILb0EEclI17test_push_head_ldEEvRT_
FN:98,98,_ZN5boost9unit_test12impl_fixture10call_setupILb0EEclI17test_update_valueEEvRT_
FN:98,98,_ZN5boost9unit_test12impl_fixture10call_setupILb0EEclI18test_empty_list_ldEEvRT_
FN:98,98,_ZN5boost9unit_test12impl_fixture10call_setupILb0EEclI18test_replace_indexEEvRT_
FN:98,98,_ZN5boost9unit_test12impl_fixture10call_setupILb0EEclI19test_insert_and_getEEvRT_
FN:98,98,_ZN5boost9unit_test12impl_fixture10call_setupILb0EEclI20BenchmarkListPushPopEEvRT_
FN:98,98,_ZN5boost9unit_test12impl_fixture10call_setupILb0EEclI21BenchmarkQueuePushPopEEvRT_
FN:98,98,_ZN5boost9unit_test12impl_fixture10call_setupILb0EEclI21BenchmarkStackPushPopEEvRT_
FN:98,98,_ZN5boost9unit_test12impl_fixture10call_setupILb0EEclI22BenchmarkHashInsertGetEEvRT_
FN:98,98,_ZN5boost9unit_test12impl_fixture10call_setupILb0EEclI23BenchmarkTreeInsertFindEEvRT_
FN:98,98,_ZN5boost9unit_test12impl_fixture10call_setupILb0EEclI23test_collision_handlingEEvRT_
FN:98,98,_ZN5boost9unit_test12impl_fixture10call_setupILb0EEclI24BenchmarkMassivePopIndexEEvRT_
FN:98,98,_ZN5boost9unit_test12impl_fixture10call_setupILb0EEclI24BenchmarkMassivePushBackEEvRT_
FN:98,98,_ZN5boost9unit_test12impl_fixture10call_setupILb0EEclI26BenchmarkDoubleListPushPopEEvRT_
FN:98,98,_ZN5boost9unit_test12impl_fixture10call_setupILb0EEclI8test_binEEvRT_
FN:98,98,_ZN5boost9unit_test12impl_fixture10call_setupILb0EEclI9test_emtyEEvRT_
FN:98,98,_ZN5boost9unit_test12impl_fixture10call_setupILb0EEclI9test_findEEvRT_
FN:98,98,_ZN5boost9unit_test12impl_fixture10call_setupILb0EEclI9test_pushEEvRT_
FN:98,98,_ZN5boost9unit_test12impl_fixture10call_setupILb0EEclI9test_sizeEEvRT_
FNDA:1,_ZN5boost9unit_test12impl_fixture13call_teardownILb0EEclI11test_removeEEvRT_
FNDA:1,_ZN5boost9unit_test12impl_fixture13call_teardownILb0EEclI12test_pop_endEEvRT_
FNDA:1,_ZN5boost9unit_test12impl_fixture13call_teardownILb0EEclI12test_print_qEEvRT_
FNDA:1,_ZN5boost9unit_test12impl_fixture13call_teardownILb0EEclI13test_print_ldEEvRT_
FNDA:1,_ZN5boost9unit_test12impl_fixture13call_teardownILb0EEclI13test_print_lsEEvRT_
FNDA:1,_ZN5boost9unit_test12impl_fixture13call_teardownILb0EEclI13test_push_endEEvRT_
FNDA:1,_ZN5boost9unit_test12impl_fixture13call_teardownILb0EEclI14test_empty_getEEvRT_
FNDA:1,_ZN5boost9unit_test12impl_fixture13call_teardownILb0EEclI14test_pop_frontEEvRT_
FNDA:1,_ZN5boost9unit_test12impl_fixture13call_teardownILb0EEclI14test_pop_indexEEvRT_
FNDA:1,_ZN5boost9unit_test12impl_fixture13call_teardownILb0EEclI14test_pop_queueEEvRT_
FNDA:1,_ZN5boost9unit_test12impl_fixture13call_teardownILb0EEclI14test_pop_stackEEvRT_
FNDA:1,_ZN5boost9unit_test12impl_fixture13call_teardownILb0EEclI14test_pop_znachEEvRT_
FNDA:1,_ZN5boost9unit_test12impl_fixture13call_teardownILb0EEclI14test_print_masEEvRT_
FNDA:1,_ZN5boost9unit_test12impl_fixture13call_teardownILb0EEclI14test_push_headEEvRT_
FNDA:1,_ZN5boost9unit_test12impl_fixture13call_teardownILb0EEclI15test_empty_listEEvRT_
FNDA:1,_ZN5boost9unit_test12impl_fixture13call_teardownILb0EEclI15test_pop_end_ldEEvRT_
FNDA:1,_ZN5boost9unit_test12impl_fixture13call_teardownILb0EEclI15test_print_hashEEvRT_
FNDA:1,_ZN5boost9unit_test12impl_fixture13call_teardownILb0EEclI15test_push_indexEEvRT_
FNDA:1,_ZN5boost9unit_test12impl_fixture13call_teardownILb0EEclI15test_push_queueEEvRT_
FNDA:1,_ZN5boost9unit_test12impl_fixture13call_teardownILb0EEclI15test_push_stackEEvRT_
FNDA:1,_ZN5boost9unit_test12impl_fixture13call_teardownILb0EEclI16test_empty_queueEEvRT_
FNDA:1,_ZN5boost9unit_test12impl_fixture13call_teardownILb0EEclI16test_empty_stackEEvRT_
FNDA:1,_ZN5boost9unit_test12impl_fixture13call_teardownILb0EEclI16test_print_stackEEvRT_
FNDA:1,_ZN5boost9unit_test12impl_fixture13call_teardownILb0EEclI16test_push_end_ldEEvRT_
FNDA:1,_ZN5boost9unit_test12impl_fixture13call_teardownILb0EEclI16test_push_end_lsEEvRT_
FNDA:1,_ZN5boost9unit_test12impl_fixture13call_teardownILb0EEclI17test_pop_front_ldEEvRT_
FNDA:1,_ZN5boost9unit_test12impl_fixture13call_teardownILb0EEclI17test_pop_znach_ldEEvRT_
FNDA:1,_ZN5boost9unit_test12impl_fixture13call_teardownILb0EEclI17test_push_head_ldEEvRT_
FNDA:1,_ZN5boost9unit_test12impl_fixture13call_teardownILb0EEclI17test_update_valueEEvRT_
FNDA:1,_ZN5boost9unit_test12impl_fixture13call_teardownILb0EEclI18test_empty_list_ldEEvRT_
FNDA:1,_ZN5boost9unit_test12impl_fixture13call_teardownILb0EEclI18test_replace_indexEEvRT_
FNDA:1,_ZN5boost9unit_test12impl_fixture13call_teardownILb0EEclI19test_insert_and_getEEvRT_
FNDA:1,_ZN5boost9unit_test12impl_fixture13call_teardownILb0EEclI20BenchmarkListPushPopEEvRT_
FNDA:1,_ZN5boost9unit_test12impl_fixture13call_teardownILb0EEclI21BenchmarkQueuePushPopEEvRT_
FNDA:1,_ZN5boost9unit_test12impl_fixture13call_teardownILb0EEclI21BenchmarkStackPushPopEEvRT_
FNDA:1,_ZN5boost9unit_test12impl_fixture13call_teardownILb0EEclI22BenchmarkHashInsertGetEEvRT_
FNDA:1,_ZN5boost9unit_test12impl_fixture13call_teardownILb0EEclI23BenchmarkTreeInsertFindEEvRT_
FNDA:1,_ZN5boost9unit_test12impl_fixture13call_teardownILb0EEclI23test_collision_handlingEEvRT_
FNDA:1,_ZN5boost9unit_test12impl_fixture13call_teardownILb0EEclI24BenchmarkMassivePopIndexEEvRT_
FNDA:1,_ZN5boost9unit_test12impl_fixture13call_teardownILb0EEclI24BenchmarkMassivePushBackEEvRT_
FNDA:1,_ZN5boost9unit_test12impl_fixture13call_teardownILb0EEclI26BenchmarkDoubleListPushPopEEvRT_
FNDA:1,_ZN5boost9unit_test12impl_fixture13call_teardownILb0EEclI8test_binEEvRT_
FNDA:1,_ZN5boost9unit_test12impl_fixture13call_teardownILb0EEclI9test_emtyEEvRT_
FNDA:1,_ZN5boost9unit_test12impl_fixture13call_teardownILb0EEclI9test_findEEvRT_
FNDA:1,_ZN5boost9unit_test12impl_fixture13call_teardownILb0EEclI9test_pushEEvRT_
FNDA:1,_ZN5boost9unit_test12impl_fixture13call_teardownILb0EEclI9test_sizeEEvRT_
FNDA:1,_ZN5boost9unit_test17setup_conditionalI11test_removeEEvRT_
FNDA:1,_ZN5boost9unit_test17setup_conditionalI12test_pop_endEEvRT_
FNDA:1,_ZN5boost9unit_test17setup_conditionalI12test_print_qEEvRT_
FNDA:1,_ZN5boost9unit_test17setup_conditionalI13test_print_ldEEvRT_
FNDA:1,_ZN5boost9unit_test17setup_conditionalI13test_print_lsEEvRT_
FNDA:1,_ZN5boost9unit_test17setup_conditionalI13test_push_endEEvRT_
FNDA:1,_ZN5boost9unit_test17setup_conditionalI14test_empty_getEEvRT_
FNDA:1,_ZN5boost9unit_test17setup_conditionalI14test_pop_frontEEvRT_
FNDA:1,_ZN5boost9unit_test17setup_conditionalI14test_pop_indexEEvRT_
FNDA:1,_ZN5boost9unit_test17setup_conditionalI14test_pop_queueEEvRT_
FNDA:1,_ZN5boost9unit_test17setup_conditionalI14test_pop_stackEEvRT_
FNDA:1,_ZN5boost9unit_test17setup_conditionalI14test_pop_znachEEvRT_
FNDA:1,_ZN5boost9unit_test17setup_conditionalI14test_print_masEEvRT_
FNDA:1,_ZN5boost9unit_test17setup_conditionalI14test_push_headEEvRT_
FNDA:1,_ZN5boost9unit_test17setup_conditionalI15test_empty_listEEvRT_
FNDA:1,_ZN5boost9unit_test17setup_conditionalI15test_pop_end_ldEEvRT_
FNDA:1,_ZN5boost9unit_test17setup_conditionalI15test_print_hashEEvRT_
FNDA:1,_ZN5boost9unit_test17setup_conditionalI15test_push_indexEEvRT_
FNDA:1,_ZN5boost9unit_test17setup_conditionalI15test_push_queueEEvRT_
FNDA:1,_ZN5boost9unit_test17setup_conditionalI15test_push_stackEEvRT_
FNDA:1,_ZN5boost9unit_test17setup_conditionalI16test_empty_queueEEvRT_
FNDA:1,_ZN5boost9unit_test17setup_conditionalI16test_empty_stackEEvRT_
FNDA:1,_ZN5boost9unit_test17setup_conditionalI16test_print_stackEEvRT_
FNDA:1,_ZN5boost9unit_test17setup_conditionalI16test_push_end_ldEEvRT_
FNDA:1,_ZN5boost9unit_test17setup_conditionalI16test_push_end_lsEEvRT_
FNDA:1,_ZN5boost9unit_test17setup_conditionalI17test_pop_front_ldEEvRT_
FNDA:1,_ZN5boost9unit_test17setup_conditionalI17test_pop_znach_ldEEvRT_
FNDA:1,_ZN5boost9unit_test17setup_conditionalI17test_push_head_ldEEvRT_
FNDA:1,_ZN5boost9unit_test17setup_conditionalI17test_update_valueEEvRT_
FNDA:1,_ZN5boost9unit_test17setup_conditionalI18test_empty_list_ldEEvRT_
FNDA:1,_ZN5boost9unit_test17setup_conditionalI18test_replace_indexEEvRT_
FNDA:1,_ZN5boost9unit_test17setup_conditionalI19test_insert_and_getEEvRT_
FNDA:1,_ZN5boost9unit_test17setup_conditionalI20BenchmarkListPushPopEEvRT_
FNDA:1,_ZN5boost9unit_test17setup_conditionalI21BenchmarkQueuePushPopEEvRT_
FNDA:1,_ZN5boost9unit_test17setup_conditionalI21BenchmarkStackPushPopEEvRT_
FNDA:1,_ZN5boost9unit_test17setup_conditionalI22BenchmarkHashInsertGetEEvRT_
FNDA:1,_ZN5boost9unit_test17setup_conditionalI23BenchmarkTreeInsertFindEEvRT_
FNDA:1,_ZN5boost9unit_test17setup_conditionalI23test_collision_handlingEEvRT_
FNDA:1,_ZN5boost9unit_test17setup_conditionalI24BenchmarkMassivePopIndexEEvRT_
FNDA:1,_ZN5boost9unit_test17setup_conditionalI24BenchmarkMassivePushBackEEvRT_
FNDA:1,_ZN5boost9unit_test17setup_conditionalI26BenchmarkDoubleListPushPopEEvRT_
FNDA:1,_ZN5boost9unit_test17setup_conditionalI8test_binEEvRT_
FNDA:1,_ZN5boost9unit_test17setup_conditionalI9test_emtyEEvRT_
FNDA:1,_ZN5boost9unit_test17setup_conditionalI9test_findEEvRT_
FNDA:1,_ZN5boost9unit_test17setup_conditionalI9test_pushEEvRT_
FNDA:1,_ZN5boost9unit_test17setup_conditionalI9test_sizeEEvRT_
FNDA:1,_ZN5boost9unit_test20teardown_conditionalI11test_removeEEvRT_
FNDA:1,_ZN5boost9unit_test20teardown_conditionalI12test_pop_endEEvRT_
FNDA:1,_ZN5boost9unit_test20teardown_conditionalI12test_print_qEEvRT_
FNDA:1,_ZN5boost9unit_test20teardown_conditionalI13test_print_ldEEvRT_
FNDA:1,_ZN5boost9unit_test20teardown_conditionalI13test_print_lsEEvRT_
FNDA:1,_ZN5boost9unit_test20teardown_conditionalI13test_push_endEEvRT_
FNDA:1,_ZN5boost9unit_test20teardown_conditionalI14test_empty_getEEvRT_
FNDA:1,_ZN5boost9unit_test20teardown_conditionalI14test_pop_frontEEvRT_
FNDA:1,_ZN5boost9unit_test20teardown_conditionalI14test_pop_indexEEvRT_
FNDA:1,_ZN5boost9unit_test20teardown_conditionalI14test_pop_queueEEvRT_
FNDA:1,_ZN5boost9unit_test20teardown_conditionalI14test_pop_stackEEvRT_
FNDA:1,_ZN5boost9unit_test20teardown_conditionalI14test_pop_znachEEvRT_
FNDA:1,_ZN5boost9unit_test20teardown_conditionalI14test_print_masEEvRT_
FNDA:1,_ZN5boost9unit_test20teardown_conditionalI14test_push_headEEvRT_
FNDA:1,_ZN5boost9unit_test20teardown_conditionalI15test_empty_listEEvRT_
FNDA:1,_ZN5boost9unit_test20teardown_conditionalI15test_pop_end_ldEEvRT_
FNDA:1,_ZN5boost9unit_test20teardown_conditionalI15test_print_hashEEvRT_
FNDA:1,_ZN5boost9unit_test20teardown_conditionalI15test_push_indexEEvRT_
FNDA:1,_ZN5boost9unit_test20teardown_conditionalI15test_push_queueEEvRT_
FNDA:1,_ZN5boost9unit_test20teardown_conditionalI15test_push_stackEEvRT_
FNDA:1,_ZN5boost9unit_test20teardown_conditionalI16test_empty_queueEEvRT_
FNDA:1,_ZN5boost9unit_test20teardown_conditionalI16test_empty_stackEEvRT_
FNDA:1,_ZN5boost9unit_test20teardown_conditionalI16test_print_stackEEvRT_
FNDA:1,_ZN5boost9unit_test20teardown_conditionalI16test_push_end_ldEEvRT_
FNDA:1,_ZN5boost9unit_test20teardown_conditionalI16test_push_end_lsEEvRT_
FNDA:1,_ZN5boost9unit_test20teardown_conditionalI17test_pop_front_ldEEvRT_
FNDA:1,_ZN5boost9unit_test20teardown_conditionalI17test_pop_znach_ldEEvRT_
FNDA:1,_ZN5boost9unit_test20teardown_conditionalI17test_push_head_ldEEvRT_
FNDA:1,_ZN5boost9unit_test20teardown_conditionalI17test_update_valueEEvRT_
FNDA:1,_ZN5boost9unit_test20teardown_conditionalI18test_empty_list_ldEEvRT_
FNDA:1,_ZN5boost9unit_test20teardown_conditionalI18test_replace_indexEEvRT_
FNDA:1,_ZN5boost9unit_test20teardown_conditionalI19test_insert_and_getEEvRT_
FNDA:1,_ZN5boost9unit_test20teardown_conditionalI20BenchmarkListPushPopEEvRT_
FNDA:1,_ZN5boost9unit_test20teardown_conditionalI21BenchmarkQueuePushPopEEvRT_
FNDA:1,_ZN5boost9unit_test20teardown_conditionalI21BenchmarkStackPushPopEEvRT_
FNDA:1,_ZN5boost9unit_test20teardown_conditionalI22BenchmarkHashInsertGetEEvRT_
FNDA:1,_ZN5boost9unit_test20teardown_conditionalI23BenchmarkTreeInsertFindEEvRT_
FNDA:1,_ZN5boost9unit_test20teardown_conditionalI23test_collision_handlingEEvRT_
FNDA:1,_ZN5boost9unit_test20teardown_conditionalI24BenchmarkMassivePopIndexEEvRT_
FNDA:1,_ZN5boost9unit_test20teardown_conditionalI24BenchmarkMassivePushBackEEvRT_
FNDA:1,_ZN5boost9unit_test20teardown_conditionalI26BenchmarkDoubleListPushPopEEvRT_
FNDA:1,_ZN5boost9unit_test20teardown_conditionalI8test_binEEvRT_
FNDA:1,_ZN5boost9unit_test20teardown_conditionalI9test_emtyEEvRT_
FNDA:1,_ZN5boost9unit_test20teardown_conditionalI9test_findEEvRT_
FNDA:1,_ZN5boost9unit_test20teardown_conditionalI9test_pushEEvRT_
FNDA:1,_ZN5boost9unit_test20teardown_conditionalI9test_sizeEEvRT_
FNDA:0,_ZN5boost9unit_test17test_unit_fixtureD0Ev
FNDA:0,_ZN5boost9unit_test17test_unit_fixtureD2Ev
FNDA:1,_ZN5boost9unit_test12impl_fixture10call_setupILb0EEclI11test_removeEEvRT_
FNDA:1,_ZN5boost9unit_test12impl_fixture10call_setupILb0EEclI12test_pop_endEEvRT_
FNDA:1,_ZN5boost9unit_test12impl_fixture10call_setupILb0EEclI12test_print_qEEvRT_
FNDA:1,_ZN5boost9unit_test12impl_fixture10call_setupILb0EEclI13test_print_ldEEvRT_
FNDA:1,_ZN5boost9unit_test12impl_fixture10call_setupILb0EEclI13test_print_lsEEvRT_
FNDA:1,_ZN5boost9unit_test12impl_fixture10call_setupILb0EEclI13test_push_endEEvRT_
FNDA:1,_ZN5boost9unit_test12impl_fixture10call_setupILb0EEclI14test_empty_getEEvRT_
FNDA:1,_ZN5boost9unit_test12impl_fixture10call_setupILb0EEclI14test_pop_frontEEvRT_
FNDA:1,_ZN5boost9unit_test12impl_fixture10call_setupILb0EEclI14test_pop_indexEEvRT_
FNDA:1,_ZN5boost9unit_test12impl_fixture10call_setupILb0EEclI14test_pop_queueEEvRT_
FNDA:1,_ZN5boost9unit_test12impl_fixture10call_setupILb0EEclI14test_pop_stackEEvRT_
FNDA:1,_ZN5boost9unit_test12impl_fixture10call_setupILb0EEclI14test_pop_znachEEvRT_
FNDA:1,_ZN5boost9unit_test12impl_fixture10call_setupILb0EEclI14test_print_masEEvRT_
FNDA:1,_ZN5boost9unit_test12impl_fixture10call_setupILb0EEclI14test_push_headEEvRT_
FNDA:1,_ZN5boost9unit_test12impl_fixture10call_setupILb0EEclI15test_empty_listEEvRT_
FNDA:1,_ZN5boost9unit_test12impl_fixture10call_setupILb0EEclI15test_pop_end_ldEEvRT_
FNDA:1,_ZN5boost9unit_test12impl_fixture10call_setupILb0EEclI15test_print_hashEEvRT_
FNDA:1,_ZN5boost9unit_test12impl_fixture10call_setupILb0EEclI15test_push_indexEEvRT_
FNDA:1,_ZN5boost9unit_test12impl_fixture10call_setupILb0EEclI15test_push_queueEEvRT_
FNDA:1,_ZN5boost9unit_test12impl_fixture10call_setupILb0EEclI15test_push_stackEEvRT_
FNDA:1,_ZN5boost9unit_test12impl_fixture10call_setupILb0EEclI16test_empty_queueEEvRT_
FNDA:1,_ZN5boost9unit_test12impl_fixture10call_setupILb0EEclI16test_empty_stackEEvRT_
FNDA:1,_ZN5boost9unit_test12impl_fixture10call_setupILb0EEclI16test_print_stackEEvRT_
FNDA:1,_ZN5boost9unit_test12impl_fixture10call_setupILb0EEclI16test_push_end_ldEEvRT_
FNDA:1,_ZN5boost9unit_test12impl_fixture10call_setupILb0EEclI16test_push_end_lsEEvRT_
FNDA:1,_ZN5boost9unit_test12impl_fixture10call_setupILb0EEclI17test_pop_front_ldEEvRT_
FNDA:1,_ZN5boost9unit_test12impl_fixture10call_setupILb0EEclI17test_pop_znach_ldEEvRT_
FNDA:1,_ZN5boost9unit_test12impl_fixture10call_setupILb0EEclI17test_push_head_ldEEvRT_
FNDA:1,_ZN5boost9unit_test12impl_fixture10call_setupILb0EEclI17test_update_valueEEvRT_
FNDA:1,_ZN5boost9unit_test12impl_fixture10call_setupILb0EEclI18test_empty_list_ldEEvRT_
FNDA:1,_ZN5boost9unit_test12impl_fixture10call_setupILb0EEclI18test_replace_indexEEvRT_
FNDA:1,_ZN5boost9unit_test12impl_fixture10call_setupILb0EEclI19test_insert_and_getEEvRT_
FNDA:1,_ZN5boost9unit_test12impl_fixture10call_setupILb0EEclI20BenchmarkListPushPopEEvRT_
FNDA:1,_ZN5boost9unit_test12impl_fixture10call_setupILb0EEclI21BenchmarkQueuePushPopEEvRT_
FNDA:1,_ZN5boost9unit_test12impl_fixture10call_setupILb0EEclI21BenchmarkStackPushPopEEvRT_
FNDA:1,_ZN5boost9unit_test12impl_fixture10call_setupILb0EEclI22BenchmarkHashInsertGetEEvRT_
FNDA:1,_ZN5boost9unit_test12impl_fixture10call_setupILb0EEclI23BenchmarkTreeInsertFindEEvRT_
FNDA:1,_ZN5boost9unit_test12impl_fixture10call_setupILb0EEclI23test_collision_handlingEEvRT_
FNDA:1,_ZN5boost9unit_test12impl_fixture10call_setupILb0EEclI24BenchmarkMassivePopIndexEEvRT_
FNDA:1,_ZN5boost9unit_test12impl_fixture10call_setupILb0EEclI24BenchmarkMassivePushBackEEvRT_
FNDA:1,_ZN5boost9unit_test12impl_fixture10call_setupILb0EEclI26BenchmarkDoubleListPushPopEEvRT_
FNDA:1,_ZN5boost9unit_test12impl_fixture10call_setupILb0EEclI8test_binEEvRT_
FNDA:1,_ZN5boost9unit_test12impl_fixture10call_setupILb0EEclI9test_emtyEEvRT_
FNDA:1,_ZN5boost9unit_test12impl_fixture10call_setupILb0EEclI9test_findEEvRT_
FNDA:1,_ZN5boost9unit_test12impl_fixture10call_setupILb0EEclI9test_pushEEvRT_
FNDA:1,_ZN5boost9unit_test12impl_fixture10call_setupILb0EEclI9test_sizeEEvRT_
FNF:186
FNH:184
DA:37,0
DA:98,46
DA:104,46
DA:112,46
DA:113,46
DA:118,46
DA:119,46
LF:7
LH:6
end_of_record
TN:
SF:/usr/include/boost/test/tree/global_fixture.hpp
FN:49,49,_ZN5boost9unit_test20global_configuration8priorityEv
FNDA:0,_ZN5boost9unit_test20global_configuration8priorityEv
FNF:1
FNH:0
DA:49,0
LF:1
LH:0
end_of_record
TN:
SF:/usr/include/boost/test/tree/observer.hpp
FN:102,102,_ZN5boost9unit_test13test_observer8priorityEv
FN:106,106,_ZN5boost9unit_test13test_observerD0Ev
FN:106,106,_ZN5boost9unit_test13test_observerD2Ev
FN:48,48,_ZN5boost9unit_test13test_observer10test_startEmm
FN:53,53,_ZN5boost9unit_test13test_observer11test_finishEv
FN:62,62,_ZN5boost9unit_test13test_observer12test_abortedEv
FN:67,67,_ZN5boost9unit_test13test_observer15test_unit_startERKNS0_9test_unitE
FN:72,72,_ZN5boost9unit_test13test_observer16test_unit_finishERKNS0_9test_unitEm
FN:73,73,_ZN5boost9unit_test13test_observer17test_unit_skippedERKNS0_9test_unitENS0_13basic_cstringIKcEE
FN:74,74,_ZN5boost9unit_test13test_observer17test_unit_skippedERKNS0_9test_unitE
FN:80,80,_ZN5boost9unit_test13test_observer19test_unit_timed_outERKNS0_9test_unitE
FN:87,87,_ZN5boost9unit_test13test_observer17test_unit_abortedERKNS0_9test_unitE
FN:89,91,_ZN5boost9unit_test13test_observer16assertion_resultENS0_16assertion_resultE
FN:98,98,_ZN5boost9unit_test13test_observer16exception_caughtERKNS_19execution_exceptionE
FNDA:0,_ZN5boost9unit_test13test_observer8priorityEv
FNDA:0,_ZN5boost9unit_test13test_observerD0Ev
FNDA:4,_ZN5boost9unit_test13test_observerD2Ev
FNDA:0,_ZN5boost9unit_test13test_observer10test_startEmm
FNDA:2,_ZN5boost9unit_test13test_observer11test_finishEv
FNDA:0,_ZN5boost9unit_test13test_observer12test_abortedEv
FNDA:0,_ZN5boost9unit_test13test_observer15test_unit_startERKNS0_9test_unitE
FNDA:0,_ZN5boost9unit_test13test_observer16test_unit_finishERKNS0_9test_unitEm
FNDA:0,_ZN5boost9unit_test13test_observer17test_unit_skippedERKNS0_9test_unitENS0_13basic_cstringIKcEE
FNDA:0,_ZN5boost9unit_test13test_observer17test_unit_skippedERKNS0_9test_unitE
FNDA:0,_ZN5boost9unit_test13test_observer19test_unit_timed_outERKNS0_9test_unitE
FNDA:0,_ZN5boost9unit_test13test_observer17test_unit_abortedERKNS0_9test_unitE
FNDA:94,_ZN5boost9unit_test13test_observer16assertion_resultENS0_16assertion_resultE
FNDA:0,_ZN5boost9unit_test13test_observer16exception_caughtERKNS_19execution_exceptionE
FNF:14
FNH:3
DA:48,0
DA:53,2
DA:62,0
DA:67,0
DA:72,0
DA:73,0
DA:74,0
DA:80,0
DA:87,0
DA:89,94
DA:91,94
DA:98,0
DA:102,0
DA:106,4
LF:14
LH:4
end_of_record
TN:
SF:/usr/include/boost/test/tree/test_case_counter.hpp
FN:38,41,_ZN5boost9unit_test17test_case_counterC2Eb
FN:43,43,_ZN5boost9unit_test17test_case_counter19readonly_property43C2Em
FN:46,46,_ZN5boost9unit_test17test_case_counter5visitERKNS0_9test_caseE
FN:47,47,_ZN5boost9unit_test17test_case_counter16test_suite_startERKNS0_10test_suiteE
FNDA:1,_ZN5boost9unit_test17test_case_counterC2Eb
FNDA:1,_ZN5boost9unit_test17test_case_counter19readonly_property43C2Em
FNDA:46,_ZN5boost9unit_test17test_case_counter5visitERKNS0_9test_caseE
FNDA:1,_ZN5boost9unit_test17test_case_counter16test_suite_startERKNS0_10test_suiteE
FNF:4
FNH:4
DA:38,1
DA:39,2
DA:40,1
DA:41,1
DA:43,1
DA:46,46
DA:47,1
LF:7
LH:7
end_of_record
TN:
SF:/usr/include/boost/test/tree/test_unit.hpp
FN:144,144,_ZN5boost9unit_test9test_case20readonly_property144C2ERKNS_8functionIFvvEEE
FN:150,150,_ZN5boost9unit_test9test_caseD2Ev
FN:204,204,_ZN5boost9unit_test10test_suiteD0Ev
FN:204,204,_ZN5boost9unit_test10test_suiteD2Ev
FN:263,266,_ZN5boost9unit_test14make_test_caseERKNS_8functionIFvvEEENS0_13basic_cstringIKcEES8_m
FN:62,62,_ZN5boost9unit_test9test_unit19readonly_property62C2Em
FN:63,63,_ZN5boost9unit_test9test_unit19readonly_property63C2Em
FN:64,64,_ZN5boost9unit_test9test_unit19readonly_property64C2Ev
FN:66,66,_ZN5boost9unit_test9test_unit19readonly_property66C2Ev
FN:69,69,_ZN5boost9unit_test9test_unit19readonly_property69C2Ev
FN:82,82,_ZNK5boost9unit_test9test_unit10is_enabledEv
FNDA:46,_ZN5boost9unit_test9test_case20readonly_property144C2ERKNS_8functionIFvvEEE
FNDA:46,_ZN5boost9unit_test9test_caseD2Ev
FNDA:0,_ZN5boost9unit_test10test_suiteD0Ev
FNDA:1,_ZN5boost9unit_test10test_suiteD2Ev
FNDA:46,_ZN5boost9unit_test14make_test_caseERKNS_8functionIFvvEEENS0_13basic_cstringIKcEES8_m
FNDA:47,_ZN5boost9unit_test9test_unit19readonly_property62C2Em
FNDA:47,_ZN5boost9unit_test9test_unit19readonly_property63C2Em
FNDA:47,_ZN5boost9unit_test9test_unit19readonly_property64C2Ev
FNDA:47,_ZN5boost9unit_test9test_unit19readonly_property66C2Ev
FNDA:47,_ZN5boost9unit_test9test_unit19readonly_property69C2Ev
FNDA:373,_ZNK5boost9unit_test9test_unit10is_enabledEv
FNF:11
FNH:10
DA:62,47
DA:63,47
DA:64,47
DA:66,47
DA:69,47
DA:82,373
DA:144,46
DA:150,46
DA:204,1
DA:263,46
DA:265,46
LF:11
LH:11
end_of_record
TN:
SF:/usr/include/boost/test/tree/traverse.hpp
FN:43,49,_ZN5boost9unit_test18traverse_test_treeERKNS0_9test_unitERNS0_17test_tree_visitorEb
FNDA:1,_ZN5boost9unit_test18traverse_test_treeERKNS0_9test_unitERNS0_17test_tree_visitorEb
FNF:1
FNH:1
DA:43,1
DA:45,1
DA:46,0
DA:48,1
DA:49,1
LF:5
LH:4
end_of_record
TN:
SF:/usr/include/boost/test/tree/visitor.hpp
FN:37,37,_ZN5boost9unit_test17test_tree_visitor5visitERKNS0_9test_unitE
FN:38,38,_ZN5boost9unit_test17test_tree_visitor5visitERKNS0_9test_caseE
FN:39,39,_ZN5boost9unit_test17test_tree_visitor16test_suite_startERKNS0_10test_suiteE
FN:40,40,_ZN5boost9unit_test17test_tree_visitor17test_suite_finishERKNS0_10test_suiteE
FN:43,43,_ZN5boost9unit_test17test_tree_visitorD0Ev
FN:43,43,_ZN5boost9unit_test17test_tree_visitorD2Ev
FNDA:0,_ZN5boost9unit_test17test_tree_visitor5visitERKNS0_9test_unitE
FNDA:138,_ZN5boost9unit_test17test_tree_visitor5visitERKNS0_9test_caseE
FNDA:3,_ZN5boost9unit_test17test_tree_visitor16test_suite_startERKNS0_10test_suiteE
FNDA:5,_ZN5boost9unit_test17test_tree_visitor17test_suite_finishERKNS0_10test_suiteE
FNDA:0,_ZN5boost9unit_test17test_tree_visitorD0Ev
FNDA:6,_ZN5boost9unit_test17test_tree_visitorD2Ev
FNF:6
FNH:4
DA:37,0
DA:38,138
DA:39,3
DA:40,5
DA:43,6
LF:5
LH:4
end_of_record
TN:
SF:/usr/include/boost/test/unit_test_log.hpp
FN:126,126,_ZN5boost9unit_test15unit_test_log_t8priorityEv
FN:224,224,_ZN5boost9unit_test15unit_test_log_tD0Ev
FN:224,224,_ZN5boost9unit_test15unit_test_log_tD2Ev
FN:46,49,_ZN5boost9unit_test3log5beginC2ENS0_13basic_cstringIKcEEm
FN:68,68,_ZN5boost9unit_test9ut_detail21entry_value_collectorC2Ev
FNDA:21,_ZN5boost9unit_test15unit_test_log_t8priorityEv
FNDA:0,_ZN5boost9unit_test15unit_test_log_tD0Ev
FNDA:1,_ZN5boost9unit_test15unit_test_log_tD2Ev
FNDA:102,_ZN5boost9unit_test3log5beginC2ENS0_13basic_cstringIKcEEm
FNDA:8,_ZN5boost9unit_test9ut_detail21entry_value_collectorC2Ev
FNF:5
FNH:4
DA:46,102
DA:47,102
DA:48,102
DA:49,102
DA:68,8
DA:126,21
DA:224,1
LF:7
LH:7
end_of_record
TN:
SF:/usr/include/boost/test/unit_test_log_formatter.hpp
FN:118,120,_ZN5boost9unit_test23unit_test_log_formatterC2Ev
FN:123,123,_ZN5boost9unit_test23unit_test_log_formatterD0Ev
FN:123,123,_ZN5boost9unit_test23unit_test_log_formatterD2Ev
FN:169,172,_ZN5boost9unit_test23unit_test_log_formatter17test_unit_skippedERSoRKNS0_9test_unitENS0_13basic_cstringIKcEE
FN:176,176,_ZN5boost9unit_test23unit_test_log_formatter17test_unit_skippedERSoRKNS0_9test_unitE
FN:179,179,_ZN5boost9unit_test23unit_test_log_formatter17test_unit_abortedERSoRKNS0_9test_unitE
FN:182,182,_ZN5boost9unit_test23unit_test_log_formatter19test_unit_timed_outERSoRKNS0_9test_unitE
FN:307,310,_ZNK5boost9unit_test23unit_test_log_formatter30get_default_stream_descriptionB5cxx11Ev
FN:40,43,_ZN5boost9unit_test14log_entry_dataC2Ev
FN:49,54,_ZN5boost9unit_test14log_entry_data5clearEv
FN:67,72,_ZN5boost9unit_test19log_checkpoint_data5clearEv
FNDA:3,_ZN5boost9unit_test23unit_test_log_formatterC2Ev
FNDA:0,_ZN5boost9unit_test23unit_test_log_formatterD0Ev
FNDA:3,_ZN5boost9unit_test23unit_test_log_formatterD2Ev
FNDA:0,_ZN5boost9unit_test23unit_test_log_formatter17test_unit_skippedERSoRKNS0_9test_unitENS0_13basic_cstringIKcEE
FNDA:0,_ZN5boost9unit_test23unit_test_log_formatter17test_unit_skippedERSoRKNS0_9test_unitE
FNDA:0,_ZN5boost9unit_test23unit_test_log_formatter17test_unit_abortedERSoRKNS0_9test_unitE
FNDA:0,_ZN5boost9unit_test23unit_test_log_formatter19test_unit_timed_outERSoRKNS0_9test_unitE
FNDA:0,_ZNK5boost9unit_test23unit_test_log_formatter30get_default_stream_descriptionB5cxx11Ev
FNDA:1,_ZN5boost9unit_test14log_entry_dataC2Ev
FNDA:102,_ZN5boost9unit_test14log_entry_data5clearEv
FNDA:47,_ZN5boost9unit_test19log_checkpoint_data5clearEv
FNF:11
FNH:5
DA:40,1
DA:41,1
DA:42,1
DA:43,1
DA:49,102
DA:51,102
DA:52,102
DA:53,102
DA:54,102
DA:67,47
DA:69,47
DA:70,47
DA:71,47
DA:72,47
DA:118,3
DA:119,3
DA:120,3
DA:123,3
DA:169,0
DA:171,0
DA:172,0
DA:176,0
DA:179,0
DA:182,0
DA:307,0
DA:309,0
LF:26
LH:18
end_of_record
TN:
SF:/usr/include/boost/test/unit_test_monitor.hpp
FN:45,45,_ZN5boost9unit_test19unit_test_monitor_t17is_critical_errorENS1_11error_levelE
FN:52,52,_ZN5boost9unit_test19unit_test_monitor_tC2Ev
FN:52,52,_ZN5boost9unit_test19unit_test_monitor_tD2Ev
FNDA:140,_ZN5boost9unit_test19unit_test_monitor_t17is_critical_errorENS1_11error_levelE
FNDA:1,_ZN5boost9unit_test19unit_test_monitor_tC2Ev
FNDA:1,_ZN5boost9unit_test19unit_test_monitor_tD2Ev
FNF:3
FNH:3
DA:45,140
DA:52,2
LF:2
LH:2
end_of_record
TN:
SF:/usr/include/boost/test/unit_test_parameters.hpp
FN:102,105,_ZN5boost9unit_test14runtime_config13stream_holderC2ERSo
FN:107,136,_ZN5boost9unit_test14runtime_config13stream_holder5setupERKNS0_13basic_cstringIKcEERKNS_8functionIFvvEEE
FN:139,139,_ZNK5boost9unit_test14runtime_config13stream_holder3refEv
FN:143,146,_ZN5boost9unit_test14runtime_config13stream_holder16callback_cleanerC2ENS_8functionIFvvEEE
FN:147,150,_ZN5boost9unit_test14runtime_config13stream_holder16callback_cleanerD2Ev
FN:82,85,_ZN5boost9unit_test14runtime_config3getINS0_12report_levelEEERKT_NS0_13basic_cstringIKcEE
FN:82,85,_ZN5boost9unit_test14runtime_config3getINS0_13output_formatEEERKT_NS0_13basic_cstringIKcEE
FN:82,85,_ZN5boost9unit_test14runtime_config3getINS0_9log_levelEEERKT_NS0_13basic_cstringIKcEE
FN:82,85,_ZN5boost9unit_test14runtime_config3getINSt7__cxx1112basic_stringIcSt11char_traitsIcESaIcEEEEERKT_NS0_13basic_cstringIKcEE
FN:82,85,_ZN5boost9unit_test14runtime_config3getISt6vectorINSt7__cxx1112basic_stringIcSt11char_traitsIcESaIcEEESaIS9_EEEERKT_NS0_13basic_cstringIKcEE
FN:82,85,_ZN5boost9unit_test14runtime_config3getIbEERKT_NS0_13basic_cstringIKcEE
FN:82,85,_ZN5boost9unit_test14runtime_config3getIjEERKT_NS0_13basic_cstringIKcEE
FN:82,85,_ZN5boost9unit_test14runtime_config3getImEERKT_NS0_13basic_cstringIKcEE
FN:87,90,_ZN5boost9unit_test14runtime_config3hasENS0_13basic_cstringIKcEE
FNDA:2,_ZN5boost9unit_test14runtime_config13stream_holderC2ERSo
FNDA:1,_ZN5boost9unit_test14runtime_config13stream_holder5setupERKNS0_13basic_cstringIKcEERKNS_8functionIFvvEEE
FNDA:2,_ZNK5boost9unit_test14runtime_config13stream_holder3refEv
FNDA:0,_ZN5boost9unit_test14runtime_config13stream_holder16callback_cleanerC2ENS_8functionIFvvEEE
FNDA:0,_ZN5boost9unit_test14runtime_config13stream_holder16callback_cleanerD2Ev
FNDA:1,_ZN5boost9unit_test14runtime_config3getINS0_12report_levelEEERKT_NS0_13basic_cstringIKcEE
FNDA:3,_ZN5boost9unit_test14runtime_config3getINS0_13output_formatEEERKT_NS0_13basic_cstringIKcEE
FNDA:1,_ZN5boost9unit_test14runtime_config3getINS0_9log_levelEEERKT_NS0_13basic_cstringIKcEE
FNDA:1,_ZN5boost9unit_test14runtime_config3getINSt7__cxx1112basic_stringIcSt11char_traitsIcESaIcEEEEERKT_NS0_13basic_cstringIKcEE
FNDA:2,_ZN5boost9unit_test14runtime_config3getISt6vectorINSt7__cxx1112basic_stringIcSt11char_traitsIcESaIcEEESaIS9_EEEERKT_NS0_13basic_cstringIKcEE
FNDA:206,_ZN5boost9unit_test14runtime_config3getIbEERKT_NS0_13basic_cstringIKcEE
FNDA:2,_ZN5boost9unit_test14runtime_config3getIjEERKT_NS0_13basic_cstringIKcEE
FNDA:1,_ZN5boost9unit_test14runtime_config3getImEERKT_NS0_13basic_cstringIKcEE
FNDA:3,_ZN5boost9unit_test14runtime_config3hasENS0_13basic_cstringIKcEE
FNF:14
FNH:12
DA:82,217
DA:84,217
DA:87,3
DA:89,3
DA:102,2
DA:103,2
DA:105,2
DA:107,1
DA:110,1
DA:111,0
DA:113,1
DA:114,1
DA:115,1
DA:116,0
DA:119,1
DA:122,0
DA:123,0
DA:124,0
DA:125,0
DA:128,0
DA:132,0
DA:133,0
DA:134,0
DA:139,2
DA:143,0
DA:144,0
DA:145,0
DA:146,0
DA:147,0
DA:148,0
DA:149,0
DA:150,0
LF:32
LH:14
end_of_record
TN:
SF:/usr/include/boost/test/unit_test_suite.hpp
FN:390,398,_Z20init_unit_test_suiteiPPc
FNDA:1,_Z20init_unit_test_suiteiPPc
FNF:1
FNH:1
DA:390,1
DA:397,1
LF:2
LH:2
end_of_record
TN:
SF:/usr/include/boost/test/utils/algorithm.hpp
FN:138,148,_ZN5boost9unit_test5utils12find_last_ofIPKcS4_EET_S5_S5_T0_S6_
FN:234,247,_ZN5boost9unit_test5utils26replace_all_occurrences_ofINSt7__cxx1112basic_stringIcSt11char_traitsIcESaIcEEEPKS8_EET_SB_T0_SC_SC_SC_
FNDA:1,_ZN5boost9unit_test5utils12find_last_ofIPKcS4_EET_S5_S5_T0_S6_
FNDA:0,_ZN5boost9unit_test5utils26replace_all_occurrences_ofINSt7__cxx1112basic_stringIcSt11char_traitsIcESaIcEEEPKS8_EET_SB_T0_SC_SC_SC_
FNF:2
FNH:1
DA:138,1
DA:141,1
DA:142,0
DA:144,1
DA:145,12
DA:147,1
DA:234,0
DA:238,0
DA:239,0
DA:240,0
DA:241,0
DA:242,0
DA:246,0
LF:13
LH:5
end_of_record
TN:
SF:/usr/include/boost/test/utils/assign_op.hpp
FN:28,31,_ZN5boost9unit_test9assign_opINS0_12report_levelES2_EEvRT_RKT0_l
FN:28,31,_ZN5boost9unit_test9assign_opINS0_13output_formatES2_EEvRT_RKT0_l
FN:28,31,_ZN5boost9unit_test9assign_opINS0_9log_levelES2_EEvRT_RKT0_l
FN:28,31,_ZN5boost9unit_test9assign_opINS_8functionIFvNS0_13basic_cstringIKcEEEEEZNS0_14runtime_config12_GLOBAL__N_119register_parametersERNS_7runtime16parameters_storeEEUlS5_E_EEvRT_RKT0_l
FN:28,31,_ZN5boost9unit_test9assign_opINSt7__cxx1112basic_stringIcSt11char_traitsIcESaIcEEES7_EEvRT_RKT0_l
FN:28,31,_ZN5boost9unit_test9assign_opIbbEEvRT_RKT0_l
FN:28,31,_ZN5boost9unit_test9assign_opIjjEEvRT_RKT0_l
FN:28,31,_ZN5boost9unit_test9assign_opImlEEvRT_RKT0_l
FNDA:1,_ZN5boost9unit_test9assign_opINS0_12report_levelES2_EEvRT_RKT0_l
FNDA:4,_ZN5boost9unit_test9assign_opINS0_13output_formatES2_EEvRT_RKT0_l
FNDA:1,_ZN5boost9unit_test9assign_opINS0_9log_levelES2_EEvRT_RKT0_l
FNDA:1,_ZN5boost9unit_test9assign_opINS_8functionIFvNS0_13basic_cstringIKcEEEEEZNS0_14runtime_config12_GLOBAL__N_119register_parametersERNS_7runtime16parameters_storeEEUlS5_E_EEvRT_RKT0_l
FNDA:2,_ZN5boost9unit_test9assign_opINSt7__cxx1112basic_stringIcSt11char_traitsIcESaIcEEES7_EEvRT_RKT0_l
FNDA:26,_ZN5boost9unit_test9assign_opIbbEEvRT_RKT0_l
FNDA:2,_ZN5boost9unit_test9assign_opIjjEEvRT_RKT0_l
FNDA:2,_ZN5boost9unit_test9assign_opImlEEvRT_RKT0_l
FNF:8
FNH:8
DA:28,39
DA:30,39
DA:31,39
LF:3
LH:3
end_of_record
TN:
SF:/usr/include/boost/test/utils/basic_cstring/basic_cstring.hpp
FN:142,145,_ZN5boost9unit_test13basic_cstringIKcE6assignIlEERS3_PS2_T_
FN:206,209,_ZN5boost9unit_test13basic_cstringIKcE8null_strEv
FN:215,219,_ZN5boost9unit_test13basic_cstringIKcEC2Ev
FN:225,229,_ZN5boost9unit_test13basic_cstringIKcEC2ERKS3_
FN:235,239,_ZN5boost9unit_test13basic_cstringIKcEC2ERKNSt7__cxx1112basic_stringIcSt11char_traitsIcESaIcEEE
FN:245,249,_ZN5boost9unit_test13basic_cstringIKcEC2EPS2_
FN:255,259,_ZN5boost9unit_test13basic_cstringIKcEC2EPS2_S4_
FN:265,268,_ZNK5boost9unit_test13basic_cstringIKcEixEm
FN:286,289,_ZNK5boost9unit_test13basic_cstringIKcE4sizeEv
FN:286,289,_ZNK5boost9unit_test13basic_cstringIcE4sizeEv
FN:295,298,_ZNK5boost9unit_test13basic_cstringIKcE8is_emptyEv
FN:304,307,_ZNK5boost9unit_test13basic_cstringIKcE5emptyEv
FN:313,316,_ZN5boost9unit_test13basic_cstringIKcE5clearEv
FN:313,316,_ZN5boost9unit_test13basic_cstringIcE5clearEv
FN:332,339,_ZN5boost9unit_test13basic_cstringIKcE9trim_leftEm
FN:332,339,_ZN5boost9unit_test13basic_cstringIcE9trim_leftEm
FN:345,352,_ZN5boost9unit_test13basic_cstringIKcE9trim_leftEPS2_
FN:358,370,_ZN5boost9unit_test13basic_cstringIKcE9trim_leftES3_
FN:389,396,_ZN5boost9unit_test13basic_cstringIKcE10trim_rightEPS2_
FN:402,420,_ZN5boost9unit_test13basic_cstringIKcE10trim_rightES3_
FN:426,432,_ZN5boost9unit_test13basic_cstringIKcE4trimES3_
FN:438,444,_ZN5boost9unit_test13basic_cstringIKcEaSERKS3_
FN:459,462,_ZN5boost9unit_test13basic_cstringIKcEaSEPS2_
FN:486,489,_ZN5boost9unit_test13basic_cstringIKcE6assignEPS2_S4_
FN:512,515,_ZN5boost9unit_test13basic_cstringIKcE5beginEv
FN:512,515,_ZN5boost9unit_test13basic_cstringIcE5beginEv
FN:521,524,_ZNK5boost9unit_test13basic_cstringIKcE5beginEv
FN:530,533,_ZN5boost9unit_test13basic_cstringIKcE3endEv
FN:539,542,_ZNK5boost9unit_test13basic_cstringIKcE3endEv
FN:548,561,_ZNK5boost9unit_test13basic_cstringIKcE4findES3_
FN:588,595,_ZNK5boost9unit_test13basic_cstringIKcE6substrEmm
FN:601,606,_ZN5boost9unit_test13basic_cstringIKcE15default_trim_exEv
FN:616,621,_ZN5boost9unit_testeqIKcS2_EEbRKNS0_13basic_cstringIT_EERKNS3_IT0_EE
FN:627,634,_ZN5boost9unit_testeqIKcS2_EEbRKNS0_13basic_cstringIT_EEPT0_
FN:640,643,_ZN5boost9unit_testeqIKcEEbRKNS0_13basic_cstringIT_EERKNS5_10std_stringE
FN:658,661,_ZN5boost9unit_testeqIKcEEbRKNS0_13basic_cstringIT_E10std_stringERKS5_
FN:685,688,_ZN5boost9unit_testneIKcEEbRKNS0_13basic_cstringIT_EES7_
FN:716,721,_ZN5boost9unit_test10first_charIKcEENS0_13basic_cstringIT_E14value_ret_typeES5_
FN:731,736,_ZN5boost9unit_test9last_charIKcEENS0_13basic_cstringIT_E14value_ret_typeES5_
FN:746,749,_ZN5boost9unit_test9assign_opIcKcEEvRNSt7__cxx1112basic_stringIT_St11char_traitsIS5_ESaIS5_EEENS0_13basic_cstringIT0_EEi
FN:755,759,_ZN5boost9unit_testpLIcKcEERNSt7__cxx1112basic_stringIT_St11char_traitsIS5_ESaIS5_EEESA_RKNS0_13basic_cstringIT0_EE
FN:765,771,_ZN5boost9unit_testplIcKcEENSt7__cxx1112basic_stringIT_St11char_traitsIS5_ESaIS5_EEERKS9_RKNS0_13basic_cstringIT0_EE
FN:83,83,_ZN5boost9unit_test13basic_cstringIKcEC2IiEEPS2_T_
FN:83,83,_ZN5boost9unit_test13basic_cstringIKcEC2IlEEPS2_T_
FN:83,83,_ZN5boost9unit_test13basic_cstringIKcEC2ImEEPS2_T_
FN:83,83,_ZN5boost9unit_test13basic_cstringIcEC2ImEEPcT_
FNDA:200,_ZN5boost9unit_test13basic_cstringIKcE6assignIlEERS3_PS2_T_
FNDA:798,_ZN5boost9unit_test13basic_cstringIKcE8null_strEv
FNDA:774,_ZN5boost9unit_test13basic_cstringIKcEC2Ev
FNDA:3822,_ZN5boost9unit_test13basic_cstringIKcEC2ERKS3_
FNDA:826,_ZN5boost9unit_test13basic_cstringIKcEC2ERKNSt7__cxx1112basic_stringIcSt11char_traitsIcESaIcEEE
FNDA:886,_ZN5boost9unit_test13basic_cstringIKcEC2EPS2_
FNDA:304,_ZN5boost9unit_test13basic_cstringIKcEC2EPS2_S4_
FNDA:46,_ZNK5boost9unit_test13basic_cstringIKcEixEm
FNDA:10471,_ZNK5boost9unit_test13basic_cstringIKcE4sizeEv
FNDA:0,_ZNK5boost9unit_test13basic_cstringIcE4sizeEv
FNDA:1264,_ZNK5boost9unit_test13basic_cstringIKcE8is_emptyEv
FNDA:568,_ZNK5boost9unit_test13basic_cstringIKcE5emptyEv
FNDA:64,_ZN5boost9unit_test13basic_cstringIKcE5clearEv
FNDA:0,_ZN5boost9unit_test13basic_cstringIcE5clearEv
FNDA:3,_ZN5boost9unit_test13basic_cstringIKcE9trim_leftEm
FNDA:0,_ZN5boost9unit_test13basic_cstringIcE9trim_leftEm
FNDA:74,_ZN5boost9unit_test13basic_cstringIKcE9trim_leftEPS2_
FNDA:73,_ZN5boost9unit_test13basic_cstringIKcE9trim_leftES3_
FNDA:56,_ZN5boost9unit_test13basic_cstringIKcE10trim_rightEPS2_
FNDA:73,_ZN5boost9unit_test13basic_cstringIKcE10trim_rightES3_
FNDA:73,_ZN5boost9unit_test13basic_cstringIKcE4trimES3_
FNDA:954,_ZN5boost9unit_test13basic_cstringIKcEaSERKS3_
FNDA:1,_ZN5boost9unit_test13basic_cstringIKcEaSEPS2_
FNDA:303,_ZN5boost9unit_test13basic_cstringIKcE6assignEPS2_S4_
FNDA:2152,_ZN5boost9unit_test13basic_cstringIKcE5beginEv
FNDA:0,_ZN5boost9unit_test13basic_cstringIcE5beginEv
FNDA:2264,_ZNK5boost9unit_test13basic_cstringIKcE5beginEv
FNDA:613,_ZN5boost9unit_test13basic_cstringIKcE3endEv
FNDA:386,_ZNK5boost9unit_test13basic_cstringIKcE3endEv
FNDA:300,_ZNK5boost9unit_test13basic_cstringIKcE4findES3_
FNDA:1,_ZNK5boost9unit_test13basic_cstringIKcE6substrEmm
FNDA:125,_ZN5boost9unit_test13basic_cstringIKcE15default_trim_exEv
FNDA:3,_ZN5boost9unit_testeqIKcS2_EEbRKNS0_13basic_cstringIT_EERKNS3_IT0_EE
FNDA:1,_ZN5boost9unit_testeqIKcS2_EEbRKNS0_13basic_cstringIT_EEPT0_
FNDA:2,_ZN5boost9unit_testeqIKcEEbRKNS0_13basic_cstringIT_EERKNS5_10std_stringE
FNDA:1,_ZN5boost9unit_testeqIKcEEbRKNS0_13basic_cstringIT_E10std_stringERKS5_
FNDA:0,_ZN5boost9unit_testneIKcEEbRKNS0_13basic_cstringIT_EES7_
FNDA:0,_ZN5boost9unit_test10first_charIKcEENS0_13basic_cstringIT_E14value_ret_typeES5_
FNDA:0,_ZN5boost9unit_test9last_charIKcEENS0_13basic_cstringIT_E14value_ret_typeES5_
FNDA:515,_ZN5boost9unit_test9assign_opIcKcEEvRNSt7__cxx1112basic_stringIT_St11char_traitsIS5_ESaIS5_EEENS0_13basic_cstringIT0_EEi
FNDA:0,_ZN5boost9unit_testpLIcKcEERNSt7__cxx1112basic_stringIT_St11char_traitsIS5_ESaIS5_EEESA_RKNS0_13basic_cstringIT0_EE
FNDA:0,_ZN5boost9unit_testplIcKcEENSt7__cxx1112basic_stringIT_St11char_traitsIS5_ESaIS5_EEERKS9_RKNS0_13basic_cstringIT0_EE
FNDA:125,_ZN5boost9unit_test13basic_cstringIKcEC2IiEEPS2_T_
FNDA:200,_ZN5boost9unit_test13basic_cstringIKcEC2IlEEPS2_T_
FNDA:470,_ZN5boost9unit_test13basic_cstringIKcEC2ImEEPS2_T_
FNDA:0,_ZN5boost9unit_test13basic_cstringIcEC2ImEEPcT_
FNF:46
FNH:36
DA:83,795
DA:142,200
DA:144,200
DA:206,798
DA:208,798
DA:215,774
DA:216,774
DA:217,774
DA:219,774
DA:225,3822
DA:226,3822
DA:227,3822
DA:229,3822
DA:235,826
DA:236,826
DA:237,826
DA:239,826
DA:245,886
DA:246,886
DA:247,886
DA:249,886
DA:255,304
DA:256,304
DA:257,304
DA:259,304
DA:265,46
DA:267,46
DA:286,10471
DA:288,10471
DA:295,1264
DA:297,1264
DA:304,568
DA:306,568
DA:313,64
DA:315,64
DA:316,64
DA:332,3
DA:334,3
DA:335,3
DA:336,0
DA:338,3
DA:345,74
DA:347,74
DA:348,74
DA:349,17
DA:351,74
DA:358,73
DA:360,73
DA:361,71
DA:364,90
DA:365,73
DA:366,56
DA:369,73
DA:389,56
DA:391,56
DA:392,56
DA:393,0
DA:395,56
DA:402,73
DA:404,73
DA:405,17
DA:408,56
DA:409,54
DA:411,56
DA:414,56
DA:415,56
DA:416,56
DA:417,0
DA:419,56
DA:426,73
DA:428,73
DA:429,73
DA:431,73
DA:438,954
DA:440,954
DA:441,954
DA:443,954
DA:459,1
DA:461,1
DA:486,303
DA:488,303
DA:512,2152
DA:514,2152
DA:521,2264
DA:523,2264
DA:530,613
DA:532,613
DA:539,386
DA:541,386
DA:548,300
DA:550,300
DA:551,100
DA:553,200
DA:555,900
DA:556,700
DA:557,0
DA:560,200
DA:588,1
DA:590,1
DA:591,1
DA:592,1
DA:593,1
DA:594,0
DA:601,125
DA:605,125
DA:616,3
DA:619,6
DA:620,6
DA:627,1
DA:630,1
DA:640,2
DA:642,2
DA:658,1
DA:660,1
DA:685,0
DA:687,0
DA:716,0
DA:720,0
DA:731,0
DA:735,0
DA:746,515
DA:748,515
DA:749,515
DA:755,0
DA:757,0
DA:758,0
DA:765,0
DA:767,0
DA:769,0
DA:770,0
DA:771,0
LF:131
LH:112
end_of_record
TN:
SF:/usr/include/boost/test/utils/basic_cstring/bcs_char_traits.hpp
FN:60,63,_ZN5boost9unit_test9ut_detail20bcs_char_traits_implIKcE2eqEcc
FN:64,67,_ZN5boost9unit_test9ut_detail20bcs_char_traits_implIKcE2ltEcc
FN:69,80,_ZN5boost9unit_test9ut_detail20bcs_char_traits_implIKcE7compareEPS3_S5_m
FN:82,91,_ZN5boost9unit_test9ut_detail20bcs_char_traits_implIKcE6lengthEPS3_
FN:93,103,_ZN5boost9unit_test9ut_detail20bcs_char_traits_implIKcE4findEPS3_mc
FNDA:22820,_ZN5boost9unit_test9ut_detail20bcs_char_traits_implIKcE2eqEcc
FNDA:959,_ZN5boost9unit_test9ut_detail20bcs_char_traits_implIKcE2ltEcc
FNDA:1639,_ZN5boost9unit_test9ut_detail20bcs_char_traits_implIKcE7compareEPS3_S5_m
FNDA:862,_ZN5boost9unit_test9ut_detail20bcs_char_traits_implIKcE6lengthEPS3_
FNDA:129,_ZN5boost9unit_test9ut_detail20bcs_char_traits_implIKcE4findEPS3_mc
FNF:5
FNH:5
DA:60,22820
DA:62,22820
DA:64,959
DA:66,959
DA:69,1639
DA:71,10200
DA:72,9520
DA:73,959
DA:74,8561
DA:75,8561
DA:76,8561
DA:79,680
DA:82,862
DA:84,862
DA:86,862
DA:87,12955
DA:88,12093
DA:90,862
DA:93,129
DA:95,457
DA:96,345
DA:97,17
DA:99,328
DA:100,328
DA:102,112
LF:25
LH:25
end_of_record
TN:
SF:/usr/include/boost/test/utils/basic_cstring/compare.hpp
FN:102,109,_ZN5boost9unit_testltIKcEEbRKNS0_13basic_cstringIT_EES7_
FN:46,46,_ZN5boost9unit_test9ut_detail8case_insIKcE2eqEcc
FN:47,47,_ZN5boost9unit_test9ut_detail8case_insIKcE2ltEcc
FN:49,56,_ZN5boost9unit_test9ut_detail8case_insIKcE7compareEPS3_S5_m
FN:67,70,_ZN5boost9unit_test11case_ins_eqIKcEEbNS0_13basic_cstringIT_EES5_
FNDA:2229,_ZN5boost9unit_testltIKcEEbRKNS0_13basic_cstringIT_EES7_
FNDA:0,_ZN5boost9unit_test9ut_detail8case_insIKcE2eqEcc
FNDA:0,_ZN5boost9unit_test9ut_detail8case_insIKcE2ltEcc
FNDA:0,_ZN5boost9unit_test9ut_detail8case_insIKcE7compareEPS3_S5_m
FNDA:0,_ZN5boost9unit_test11case_ins_eqIKcEEbNS0_13basic_cstringIT_EES5_
FNF:5
FNH:1
DA:46,0
DA:47,0
DA:49,0
DA:51,0
DA:52,0
DA:53,0
DA:55,0
DA:67,0
DA:69,0
DA:102,2229
DA:106,2229
DA:107,2229
DA:108,2229
LF:13
LH:4
end_of_record
TN:
SF:/usr/include/boost/test/utils/basic_cstring/io.hpp
FN:51,58,_ZN5boost9unit_testlsIcSt11char_traitsIcEKcEERSt13basic_ostreamIT_T0_ES9_RKNS0_13basic_cstringIT1_EE
FNDA:186,_ZN5boost9unit_testlsIcSt11char_traitsIcEKcEERSt13basic_ostreamIT_T0_ES9_RKNS0_13basic_cstringIT1_EE
FNF:1
FNH:1
DA:51,186
DA:53,186
DA:54,186
DA:55,186
DA:57,186
LF:5
LH:5
end_of_record
TN:
SF:/usr/include/boost/test/utils/class_properties.hpp
FN:113,113,_ZN5boost9unit_testeqINS0_9test_unit10run_statusEEEbRKNS0_14class_propertyIT_EERKS5_
FN:113,113,_ZN5boost9unit_testeqINS0_9test_unit10run_statusEEEbRKNS0_14class_propertyIT_EES8_
FN:113,113,_ZN5boost9unit_testeqImEEbRKNS0_14class_propertyIT_EERKS3_
FN:113,113,_ZN5boost9unit_testeqImEEbRKNS0_14class_propertyIT_EES6_
FN:114,114,_ZN5boost9unit_testneImEEbRKNS0_14class_propertyIT_EERKS3_
FN:114,114,_ZN5boost9unit_testneImEEbRKNS0_14class_propertyIT_EES6_
FN:114,114,_ZN5boost9unit_testneImEEbRKT_RKNS0_14class_propertyIS2_EE
FN:130,130,_ZN5boost9unit_test17readonly_propertyISt6vectorINS_8functionIFNS_10test_tools16assertion_resultEmEEESaIS7_EEEC2Ev
FN:130,130,_ZN5boost9unit_test17readonly_propertyISt6vectorINSt7__cxx1112basic_stringIcSt11char_traitsIcESaIcEEESaIS8_EEEC2Ev
FN:130,130,_ZN5boost9unit_test17readonly_propertyISt6vectorImSaImEEEC2Ev
FN:130,130,_ZN5boost9unit_test17readonly_propertyIbEC2Ev
FN:130,130,_ZN5boost9unit_test17readonly_propertyImEC2Ev
FN:131,131,_ZN5boost9unit_test17readonly_propertyINS_8functionIFvvEEEEC2ERKS4_
FN:131,131,_ZN5boost9unit_test17readonly_propertyIbEC2Eb
FN:131,131,_ZN5boost9unit_test17readonly_propertyImEC2Em
FN:134,134,_ZNK5boost9unit_test17readonly_propertyISt6vectorINSt7__cxx1112basic_stringIcSt11char_traitsIcESaIcEEESaIS8_EEEptEv
FN:173,173,_ZN5boost9unit_test18readwrite_propertyINSt7__cxx1112basic_stringIcSt11char_traitsIcESaIcEEEEC2Ev
FN:173,173,_ZN5boost9unit_test18readwrite_propertyISt6vectorINS_10shared_ptrINS0_17test_unit_fixtureEEESaIS5_EEEC2Ev
FN:173,173,_ZN5boost9unit_test18readwrite_propertyISt6vectorINS_10shared_ptrINS0_9decorator4baseEEESaIS6_EEEC2Ev
FN:174,174,_ZN5boost9unit_test18readwrite_propertyINS0_12report_levelEEC2ES2_
FN:174,174,_ZN5boost9unit_test18readwrite_propertyINS0_13output_formatEEC2ES2_
FN:174,174,_ZN5boost9unit_test18readwrite_propertyINS0_9log_levelEEC2ES2_
FN:174,174,_ZN5boost9unit_test18readwrite_propertyINS0_9test_unit10run_statusEEC2ES3_
FN:174,174,_ZN5boost9unit_test18readwrite_propertyINSt7__cxx1112basic_stringIcSt11char_traitsIcESaIcEEEEC2ERKS7_
FN:174,174,_ZN5boost9unit_test18readwrite_propertyISt6vectorINSt7__cxx1112basic_stringIcSt11char_traitsIcESaIcEEESaIS8_EEEC2ERKSA_
FN:174,174,_ZN5boost9unit_test18readwrite_propertyIbEC2Eb
FN:174,174,_ZN5boost9unit_test18readwrite_propertyIjEC2Ej
FN:174,174,_ZN5boost9unit_test18readwrite_propertyImEC2Em
FN:179,179,_ZNK5boost9unit_test18readwrite_propertyINSt7__cxx1112basic_stringIcSt11char_traitsIcESaIcEEEEptEv
FN:53,53,_ZN5boost9unit_test14class_propertyINSt7__cxx1112basic_stringIcSt11char_traitsIcESaIcEEEEC2Ev
FN:53,53,_ZN5boost9unit_test14class_propertyISt6vectorINS_10shared_ptrINS0_17test_unit_fixtureEEESaIS5_EEEC2Ev
FN:53,53,_ZN5boost9unit_test14class_propertyISt6vectorINS_10shared_ptrINS0_9decorator4baseEEESaIS6_EEEC2Ev
FN:53,53,_ZN5boost9unit_test14class_propertyISt6vectorINS_8functionIFNS_10test_tools16assertion_resultEmEEESaIS7_EEEC2Ev
FN:53,53,_ZN5boost9unit_test14class_propertyISt6vectorINSt7__cxx1112basic_stringIcSt11char_traitsIcESaIcEEESaIS8_EEEC2Ev
FN:53,53,_ZN5boost9unit_test14class_propertyISt6vectorImSaImEEEC2Ev
FN:53,53,_ZN5boost9unit_test14class_propertyIbEC2Ev
FN:53,53,_ZN5boost9unit_test14class_propertyImEC2Ev
FN:54,55,_ZN5boost9unit_test14class_propertyINS0_12report_levelEEC2ES2_
FN:54,55,_ZN5boost9unit_test14class_propertyINS0_13output_formatEEC2ES2_
FN:54,55,_ZN5boost9unit_test14class_propertyINS0_9log_levelEEC2ES2_
FN:54,55,_ZN5boost9unit_test14class_propertyINS0_9test_unit10run_statusEEC2ES3_
FN:54,55,_ZN5boost9unit_test14class_propertyINS_8functionIFvvEEEEC2ERKS4_
FN:54,55,_ZN5boost9unit_test14class_propertyINSt7__cxx1112basic_stringIcSt11char_traitsIcESaIcEEEEC2ERKS7_
FN:54,55,_ZN5boost9unit_test14class_propertyISt6vectorINSt7__cxx1112basic_stringIcSt11char_traitsIcESaIcEEESaIS8_EEEC2ERKSA_
FN:54,55,_ZN5boost9unit_test14class_propertyIbEC2Eb
FN:54,55,_ZN5boost9unit_test14class_propertyIjEC2Ej
FN:54,55,_ZN5boost9unit_test14class_propertyImEC2Em
FN:58,58,_ZNK5boost9unit_test14class_propertyINS0_9test_unit10run_statusEEcvRKS3_Ev
FN:58,58,_ZNK5boost9unit_test14class_propertyINS_8functionIFvvEEEEcvRKS4_Ev
FN:58,58,_ZNK5boost9unit_test14class_propertyINSt7__cxx1112basic_stringIcSt11char_traitsIcESaIcEEEEcvRKS7_Ev
FN:58,58,_ZNK5boost9unit_test14class_propertyIbEcvRKbEv
FN:58,58,_ZNK5boost9unit_test14class_propertyIjEcvRKjEv
FN:58,58,_ZNK5boost9unit_test14class_propertyImEcvRKmEv
FN:59,59,_ZNK5boost9unit_test14class_propertyINS0_9test_unit10run_statusEE3getEv
FN:59,59,_ZNK5boost9unit_test14class_propertyINSt7__cxx1112basic_stringIcSt11char_traitsIcESaIcEEEE3getEv
FN:59,59,_ZNK5boost9unit_test14class_propertyISt6vectorINS_10shared_ptrINS0_17test_unit_fixtureEEESaIS5_EEE3getEv
FN:59,59,_ZNK5boost9unit_test14class_propertyISt6vectorINS_10shared_ptrINS0_9decorator4baseEEESaIS6_EEE3getEv
FN:59,59,_ZNK5boost9unit_test14class_propertyISt6vectorINS_8functionIFNS_10test_tools16assertion_resultEmEEESaIS7_EEE3getEv
FN:59,59,_ZNK5boost9unit_test14class_propertyISt6vectorINSt7__cxx1112basic_stringIcSt11char_traitsIcESaIcEEESaIS8_EEE3getEv
FN:59,59,_ZNK5boost9unit_test14class_propertyISt6vectorImSaImEEE3getEv
FN:59,59,_ZNK5boost9unit_test14class_propertyIjE3getEv
FN:59,59,_ZNK5boost9unit_test14class_propertyImE3getEv
FN:60,60,_ZNK5boost9unit_test14class_propertyIbEntEv
FN:82,87,_ZN5boost9unit_testlsIcSt11char_traitsIcENSt7__cxx1112basic_stringIcS3_SaIcEEEEERSt13basic_ostreamIT_T0_ESC_RKNS0_14class_propertyIT1_EE
FN:82,87,_ZN5boost9unit_testlsIcSt11char_traitsIcEjEERSt13basic_ostreamIT_T0_ES8_RKNS0_14class_propertyIT1_EE
FN:82,87,_ZN5boost9unit_testlsIcSt11char_traitsIcEmEERSt13basic_ostreamIT_T0_ES8_RKNS0_14class_propertyIT1_EE
FNDA:467,_ZN5boost9unit_testeqINS0_9test_unit10run_statusEEEbRKNS0_14class_propertyIT_EERKS5_
FNDA:0,_ZN5boost9unit_testeqINS0_9test_unit10run_statusEEEbRKNS0_14class_propertyIT_EES8_
FNDA:55,_ZN5boost9unit_testeqImEEbRKNS0_14class_propertyIT_EERKS3_
FNDA:9,_ZN5boost9unit_testeqImEEbRKNS0_14class_propertyIT_EES6_
FNDA:46,_ZN5boost9unit_testneImEEbRKNS0_14class_propertyIT_EERKS3_
FNDA:0,_ZN5boost9unit_testneImEEbRKNS0_14class_propertyIT_EES6_
FNDA:0,_ZN5boost9unit_testneImEEbRKT_RKNS0_14class_propertyIS2_EE
FNDA:47,_ZN5boost9unit_test17readonly_propertyISt6vectorINS_8functionIFNS_10test_tools16assertion_resultEmEEESaIS7_EEEC2Ev
FNDA:47,_ZN5boost9unit_test17readonly_propertyISt6vectorINSt7__cxx1112basic_stringIcSt11char_traitsIcESaIcEEESaIS8_EEEC2Ev
FNDA:47,_ZN5boost9unit_test17readonly_propertyISt6vectorImSaImEEEC2Ev
FNDA:141,_ZN5boost9unit_test17readonly_propertyIbEC2Ev
FNDA:611,_ZN5boost9unit_test17readonly_propertyImEC2Ev
FNDA:46,_ZN5boost9unit_test17readonly_propertyINS_8functionIFvvEEEEC2ERKS4_
FNDA:141,_ZN5boost9unit_test17readonly_propertyIbEC2Eb
FNDA:95,_ZN5boost9unit_test17readonly_propertyImEC2Em
FNDA:0,_ZNK5boost9unit_test17readonly_propertyISt6vectorINSt7__cxx1112basic_stringIcSt11char_traitsIcESaIcEEESaIS8_EEEptEv
FNDA:48,_ZN5boost9unit_test18readwrite_propertyINSt7__cxx1112basic_stringIcSt11char_traitsIcESaIcEEEEC2Ev
FNDA:47,_ZN5boost9unit_test18readwrite_propertyISt6vectorINS_10shared_ptrINS0_17test_unit_fixtureEEESaIS5_EEEC2Ev
FNDA:47,_ZN5boost9unit_test18readwrite_propertyISt6vectorINS_10shared_ptrINS0_9decorator4baseEEESaIS6_EEEC2Ev
FNDA:1,_ZN5boost9unit_test18readwrite_propertyINS0_12report_levelEEC2ES2_
FNDA:3,_ZN5boost9unit_test18readwrite_propertyINS0_13output_formatEEC2ES2_
FNDA:1,_ZN5boost9unit_test18readwrite_propertyINS0_9log_levelEEC2ES2_
FNDA:94,_ZN5boost9unit_test18readwrite_propertyINS0_9test_unit10run_statusEEC2ES3_
FNDA:48,_ZN5boost9unit_test18readwrite_propertyINSt7__cxx1112basic_stringIcSt11char_traitsIcESaIcEEEEC2ERKS7_
FNDA:2,_ZN5boost9unit_test18readwrite_propertyISt6vectorINSt7__cxx1112basic_stringIcSt11char_traitsIcESaIcEEESaIS8_EEEC2ERKSA_
FNDA:75,_ZN5boost9unit_test18readwrite_propertyIbEC2Eb
FNDA:50,_ZN5boost9unit_test18readwrite_propertyIjEC2Ej
FNDA:97,_ZN5boost9unit_test18readwrite_propertyImEC2Em
FNDA:0,_ZNK5boost9unit_test18readwrite_propertyINSt7__cxx1112basic_stringIcSt11char_traitsIcESaIcEEEEptEv
FNDA:48,_ZN5boost9unit_test14class_propertyINSt7__cxx1112basic_stringIcSt11char_traitsIcESaIcEEEEC2Ev
FNDA:47,_ZN5boost9unit_test14class_propertyISt6vectorINS_10shared_ptrINS0_17test_unit_fixtureEEESaIS5_EEEC2Ev
FNDA:47,_ZN5boost9unit_test14class_propertyISt6vectorINS_10shared_ptrINS0_9decorator4baseEEESaIS6_EEEC2Ev
FNDA:47,_ZN5boost9unit_test14class_propertyISt6vectorINS_8functionIFNS_10test_tools16assertion_resultEmEEESaIS7_EEEC2Ev
FNDA:47,_ZN5boost9unit_test14class_propertyISt6vectorINSt7__cxx1112basic_stringIcSt11char_traitsIcESaIcEEESaIS8_EEEC2Ev
FNDA:47,_ZN5boost9unit_test14class_propertyISt6vectorImSaImEEEC2Ev
FNDA:141,_ZN5boost9unit_test14class_propertyIbEC2Ev
FNDA:611,_ZN5boost9unit_test14class_propertyImEC2Ev
FNDA:1,_ZN5boost9unit_test14class_propertyINS0_12report_levelEEC2ES2_
FNDA:3,_ZN5boost9unit_test14class_propertyINS0_13output_formatEEC2ES2_
FNDA:1,_ZN5boost9unit_test14class_propertyINS0_9log_levelEEC2ES2_
FNDA:94,_ZN5boost9unit_test14class_propertyINS0_9test_unit10run_statusEEC2ES3_
FNDA:46,_ZN5boost9unit_test14class_propertyINS_8functionIFvvEEEEC2ERKS4_
FNDA:48,_ZN5boost9unit_test14class_propertyINSt7__cxx1112basic_stringIcSt11char_traitsIcESaIcEEEEC2ERKS7_
FNDA:2,_ZN5boost9unit_test14class_propertyISt6vectorINSt7__cxx1112basic_stringIcSt11char_traitsIcESaIcEEESaIS8_EEEC2ERKSA_
FNDA:216,_ZN5boost9unit_test14class_propertyIbEC2Eb
FNDA:50,_ZN5boost9unit_test14class_propertyIjEC2Ej
FNDA:192,_ZN5boost9unit_test14class_propertyImEC2Em
FNDA:93,_ZNK5boost9unit_test14class_propertyINS0_9test_unit10run_statusEEcvRKS3_Ev
FNDA:46,_ZNK5boost9unit_test14class_propertyINS_8functionIFvvEEEEcvRKS4_Ev
FNDA:54,_ZNK5boost9unit_test14class_propertyINSt7__cxx1112basic_stringIcSt11char_traitsIcESaIcEEEEcvRKS7_Ev
FNDA:317,_ZNK5boost9unit_test14class_propertyIbEcvRKbEv
FNDA:97,_ZNK5boost9unit_test14class_propertyIjEcvRKjEv
FNDA:1684,_ZNK5boost9unit_test14class_propertyImEcvRKmEv
FNDA:467,_ZNK5boost9unit_test14class_propertyINS0_9test_unit10run_statusEE3getEv
FNDA:94,_ZNK5boost9unit_test14class_propertyINSt7__cxx1112basic_stringIcSt11char_traitsIcESaIcEEEE3getEv
FNDA:564,_ZNK5boost9unit_test14class_propertyISt6vectorINS_10shared_ptrINS0_17test_unit_fixtureEEESaIS5_EEE3getEv
FNDA:282,_ZNK5boost9unit_test14class_propertyISt6vectorINS_10shared_ptrINS0_9decorator4baseEEESaIS6_EEE3getEv
FNDA:282,_ZNK5boost9unit_test14class_propertyISt6vectorINS_8functionIFNS_10test_tools16assertion_resultEmEEESaIS7_EEE3getEv
FNDA:0,_ZNK5boost9unit_test14class_propertyISt6vectorINSt7__cxx1112basic_stringIcSt11char_traitsIcESaIcEEESaIS8_EEE3getEv
FNDA:564,_ZNK5boost9unit_test14class_propertyISt6vectorImSaImEEE3getEv
FNDA:0,_ZNK5boost9unit_test14class_propertyIjE3getEv
FNDA:119,_ZNK5boost9unit_test14class_propertyImE3getEv
FNDA:354,_ZNK5boost9unit_test14class_propertyIbEntEv
FNDA:94,_ZN5boost9unit_testlsIcSt11char_traitsIcENSt7__cxx1112basic_stringIcS3_SaIcEEEEERSt13basic_ostreamIT_T0_ESC_RKNS0_14class_propertyIT1_EE
FNDA:0,_ZN5boost9unit_testlsIcSt11char_traitsIcEjEERSt13basic_ostreamIT_T0_ES8_RKNS0_14class_propertyIT1_EE
FNDA:0,_ZN5boost9unit_testlsIcSt11char_traitsIcEmEERSt13basic_ostreamIT_T0_ES8_RKNS0_14class_propertyIT1_EE
FNF:66
FNH:57
DA:53,1035
DA:54,653
DA:55,653
DA:58,2291
DA:59,2372
DA:60,354
DA:82,94
DA:86,94
DA:113,531
DA:114,46
DA:130,893
DA:131,282
DA:134,0
DA:173,142
DA:174,371
DA:179,0
LF:16
LH:14
end_of_record
TN:
SF:/usr/include/boost/test/utils/custom_manip.hpp
FN:35,35,_ZN5boost9unit_test5utils14custom_printerINS1_12custom_manipINS0_6output12_GLOBAL__N_17quote_tEEEEC2ERSo
FN:35,35,_ZN5boost9unit_test5utils14custom_printerINS1_12custom_manipINS1_12attr_value_tEEEEC2ERSo
FN:35,35,_ZN5boost9unit_test5utils14custom_printerINS1_12custom_manipINS1_7cdata_tEEEEC2ERSo
FN:37,37,_ZNK5boost9unit_test5utils14custom_printerINS1_12custom_manipINS0_6output12_GLOBAL__N_17quote_tEEEEdeEv
FN:37,37,_ZNK5boost9unit_test5utils14custom_printerINS1_12custom_manipINS1_12attr_value_tEEEEdeEv
FN:37,37,_ZNK5boost9unit_test5utils14custom_printerINS1_12custom_manipINS1_7cdata_tEEEEdeEv
FN:51,51,_ZN5boost9unit_test5utilslsINS0_6output12_GLOBAL__N_17quote_tEEENS1_14custom_printerINS1_12custom_manipIT_EEEERSoRKS9_
FN:51,51,_ZN5boost9unit_test5utilslsINS1_12attr_value_tEEENS1_14custom_printerINS1_12custom_manipIT_EEEERSoRKS7_
FN:51,51,_ZN5boost9unit_test5utilslsINS1_7cdata_tEEENS1_14custom_printerINS1_12custom_manipIT_EEEERSoRKS7_
FNDA:0,_ZN5boost9unit_test5utils14custom_printerINS1_12custom_manipINS0_6output12_GLOBAL__N_17quote_tEEEEC2ERSo
FNDA:0,_ZN5boost9unit_test5utils14custom_printerINS1_12custom_manipINS1_12attr_value_tEEEEC2ERSo
FNDA:0,_ZN5boost9unit_test5utils14custom_printerINS1_12custom_manipINS1_7cdata_tEEEEC2ERSo
FNDA:0,_ZNK5boost9unit_test5utils14custom_printerINS1_12custom_manipINS0_6output12_GLOBAL__N_17quote_tEEEEdeEv
FNDA:0,_ZNK5boost9unit_test5utils14custom_printerINS1_12custom_manipINS1_12attr_value_tEEEEdeEv
FNDA:0,_ZNK5boost9unit_test5utils14custom_printerINS1_12custom_manipINS1_7cdata_tEEEEdeEv
FNDA:0,_ZN5boost9unit_test5utilslsINS0_6output12_GLOBAL__N_17quote_tEEENS1_14custom_printerINS1_12custom_manipIT_EEEERSoRKS9_
FNDA:0,_ZN5boost9unit_test5utilslsINS1_12attr_value_tEEENS1_14custom_printerINS1_12custom_manipIT_EEEERSoRKS7_
FNDA:0,_ZN5boost9unit_test5utilslsINS1_7cdata_tEEENS1_14custom_printerINS1_12custom_manipIT_EEEERSoRKS7_
FNF:9
FNH:0
DA:35,0
DA:37,0
DA:51,0
LF:3
LH:0
end_of_record
TN:
SF:/usr/include/boost/test/utils/foreach.hpp
FN:102,105,_ZN5boost9unit_test8for_each5beginISt3mapINS0_13basic_cstringIKcEENS_10shared_ptrINS_7runtime11basic_paramEEENS8_16parameters_store10lg_compareESaISt4pairIKS6_SA_EEEEENS1_10static_anyINT_14const_iteratorEEERKSJ_N4mpl_5bool_ILb1EEE
FN:102,105,_ZN5boost9unit_test8for_each5beginISt6vectorINS0_13basic_cstringIKcEESaIS6_EEEENS1_10static_anyINT_14const_iteratorEEERKSA_N4mpl_5bool_ILb1EEE
FN:102,105,_ZN5boost9unit_test8for_each5beginISt6vectorINS_10shared_ptrINS0_17test_unit_fixtureEEESaIS6_EEEENS1_10static_anyINT_14const_iteratorEEERKSA_N4mpl_5bool_ILb1EEE
FN:102,105,_ZN5boost9unit_test8for_each5beginISt6vectorINS_10shared_ptrINS0_9decorator4baseEEESaIS7_EEEENS1_10static_anyINT_14const_iteratorEEERKSB_N4mpl_5bool_ILb1EEE
FN:102,105,_ZN5boost9unit_test8for_each5beginISt6vectorINS_7runtime16parameter_cla_idESaIS5_EEEENS1_10static_anyINT_14const_iteratorEEERKS9_N4mpl_5bool_ILb1EEE
FN:102,105,_ZN5boost9unit_test8for_each5beginISt6vectorINS_8functionIFNS_10test_tools16assertion_resultEmEEESaIS8_EEEENS1_10static_anyINT_14const_iteratorEEERKSC_N4mpl_5bool_ILb1EEE
FN:102,105,_ZN5boost9unit_test8for_each5beginISt6vectorINSt7__cxx1112basic_stringIcSt11char_traitsIcESaIcEEESaIS9_EEEENS1_10static_anyINT_14const_iteratorEEERKSD_N4mpl_5bool_ILb1EEE
FN:102,105,_ZN5boost9unit_test8for_each5beginISt6vectorImSaImEEEENS1_10static_anyINT_14const_iteratorEEERKS7_N4mpl_5bool_ILb1EEE
FN:102,105,_ZN5boost9unit_test8for_each5beginISt8multimapImmSt4lessImESaISt4pairIKmmEEEEENS1_10static_anyINT_14const_iteratorEEERKSC_N4mpl_5bool_ILb1EEE
FN:115,118,_ZN5boost9unit_test8for_each3endINS0_13basic_cstringIKcEEEENS1_10static_anyINT_8iteratorEEERS7_N4mpl_5bool_ILb0EEE
FN:115,118,_ZN5boost9unit_test8for_each3endISt3mapIcNS_10shared_ptrINS_7runtime3cla13rt_cla_detail14parameter_trieEEESt4lessIcESaISt4pairIKcS9_EEEEENS1_10static_anyINT_8iteratorEEERSI_N4mpl_5bool_ILb0EEE
FN:115,118,_ZN5boost9unit_test8for_each3endISt3setIPNS0_13test_observerENS0_9framework5state14priority_orderESaIS5_EEEENS1_10static_anyINT_8iteratorEEERSC_N4mpl_5bool_ILb0EEE
FN:115,118,_ZN5boost9unit_test8for_each3endISt3setIPNS0_14global_fixtureESt4lessIS5_ESaIS5_EEEENS1_10static_anyINT_8iteratorEEERSB_N4mpl_5bool_ILb0EEE
FN:115,118,_ZN5boost9unit_test8for_each3endISt6vectorINS_10shared_ptrINS_7runtime3cla13rt_cla_detail14parameter_trieEEESaIS9_EEEENS1_10static_anyINT_8iteratorEEERSD_N4mpl_5bool_ILb0EEE
FN:115,118,_ZN5boost9unit_test8for_each3endISt6vectorINS_17reference_wrapperIKNS_7runtime16parameter_cla_idEEESaIS8_EEEENS1_10static_anyINT_8iteratorEEERSC_N4mpl_5bool_ILb0EEE
FN:115,118,_ZN5boost9unit_test8for_each3endISt6vectorINSt7__cxx1112basic_stringIcSt11char_traitsIcESaIcEEESaIS9_EEEENS1_10static_anyINT_8iteratorEEERSD_N4mpl_5bool_ILb0EEE
FN:115,118,_ZN5boost9unit_test8for_each3endISt6vectorImSaImEEEENS1_10static_anyINT_8iteratorEEERS7_N4mpl_5bool_ILb0EEE
FN:124,127,_ZN5boost9unit_test8for_each3endISt3mapINS0_13basic_cstringIKcEENS_10shared_ptrINS_7runtime11basic_paramEEENS8_16parameters_store10lg_compareESaISt4pairIKS6_SA_EEEEENS1_10static_anyINT_14const_iteratorEEERKSJ_N4mpl_5bool_ILb1EEE
FN:124,127,_ZN5boost9unit_test8for_each3endISt6vectorINS0_13basic_cstringIKcEESaIS6_EEEENS1_10static_anyINT_14const_iteratorEEERKSA_N4mpl_5bool_ILb1EEE
FN:124,127,_ZN5boost9unit_test8for_each3endISt6vectorINS_10shared_ptrINS0_17test_unit_fixtureEEESaIS6_EEEENS1_10static_anyINT_14const_iteratorEEERKSA_N4mpl_5bool_ILb1EEE
FN:124,127,_ZN5boost9unit_test8for_each3endISt6vectorINS_10shared_ptrINS0_9decorator4baseEEESaIS7_EEEENS1_10static_anyINT_14const_iteratorEEERKSB_N4mpl_5bool_ILb1EEE
FN:124,127,_ZN5boost9unit_test8for_each3endISt6vectorINS_7runtime16parameter_cla_idESaIS5_EEEENS1_10static_anyINT_14const_iteratorEEERKS9_N4mpl_5bool_ILb1EEE
FN:124,127,_ZN5boost9unit_test8for_each3endISt6vectorINS_8functionIFNS_10test_tools16assertion_resultEmEEESaIS8_EEEENS1_10static_anyINT_14const_iteratorEEERKSC_N4mpl_5bool_ILb1EEE
FN:124,127,_ZN5boost9unit_test8for_each3endISt6vectorINSt7__cxx1112basic_stringIcSt11char_traitsIcESaIcEEESaIS9_EEEENS1_10static_anyINT_14const_iteratorEEERKSD_N4mpl_5bool_ILb1EEE
FN:124,127,_ZN5boost9unit_test8for_each3endISt6vectorImSaImEEEENS1_10static_anyINT_14const_iteratorEEERKS7_N4mpl_5bool_ILb1EEE
FN:124,127,_ZN5boost9unit_test8for_each3endISt8multimapImmSt4lessImESaISt4pairIKmmEEEEENS1_10static_anyINT_14const_iteratorEEERKSC_N4mpl_5bool_ILb1EEE
FN:137,141,_ZN5boost9unit_test8for_each4doneINS0_13basic_cstringIKcEEEEbRKNS1_15static_any_baseES8_RT_N4mpl_5bool_ILb0EEE
FN:137,141,_ZN5boost9unit_test8for_each4doneISt3mapIcNS_10shared_ptrINS_7runtime3cla13rt_cla_detail14parameter_trieEEESt4lessIcESaISt4pairIKcS9_EEEEEbRKNS1_15static_any_baseESJ_RT_N4mpl_5bool_ILb0EEE
FN:137,141,_ZN5boost9unit_test8for_each4doneISt3setIPNS0_13test_observerENS0_9framework5state14priority_orderESaIS5_EEEEbRKNS1_15static_any_baseESD_RT_N4mpl_5bool_ILb0EEE
FN:137,141,_ZN5boost9unit_test8for_each4doneISt3setIPNS0_14global_fixtureESt4lessIS5_ESaIS5_EEEEbRKNS1_15static_any_baseESC_RT_N4mpl_5bool_ILb0EEE
FN:137,141,_ZN5boost9unit_test8for_each4doneISt6vectorINS_10shared_ptrINS_7runtime3cla13rt_cla_detail14parameter_trieEEESaIS9_EEEEbRKNS1_15static_any_baseESE_RT_N4mpl_5bool_ILb0EEE
FN:137,141,_ZN5boost9unit_test8for_each4doneISt6vectorINS_17reference_wrapperIKNS_7runtime16parameter_cla_idEEESaIS8_EEEEbRKNS1_15static_any_baseESD_RT_N4mpl_5bool_ILb0EEE
FN:137,141,_ZN5boost9unit_test8for_each4doneISt6vectorINSt7__cxx1112basic_stringIcSt11char_traitsIcESaIcEEESaIS9_EEEEbRKNS1_15static_any_baseESE_RT_N4mpl_5bool_ILb0EEE
FN:137,141,_ZN5boost9unit_test8for_each4doneISt6vectorImSaImEEEEbRKNS1_15static_any_baseES8_RT_N4mpl_5bool_ILb0EEE
FN:147,151,_ZN5boost9unit_test8for_each4doneISt3mapINS0_13basic_cstringIKcEENS_10shared_ptrINS_7runtime11basic_paramEEENS8_16parameters_store10lg_compareESaISt4pairIKS6_SA_EEEEEbRKNS1_15static_any_baseESK_RKT_N4mpl_5bool_ILb1EEE
FN:147,151,_ZN5boost9unit_test8for_each4doneISt6vectorINS0_13basic_cstringIKcEESaIS6_EEEEbRKNS1_15static_any_baseESB_RKT_N4mpl_5bool_ILb1EEE
FN:147,151,_ZN5boost9unit_test8for_each4doneISt6vectorINS_10shared_ptrINS0_17test_unit_fixtureEEESaIS6_EEEEbRKNS1_15static_any_baseESB_RKT_N4mpl_5bool_ILb1EEE
FN:147,151,_ZN5boost9unit_test8for_each4doneISt6vectorINS_10shared_ptrINS0_9decorator4baseEEESaIS7_EEEEbRKNS1_15static_any_baseESC_RKT_N4mpl_5bool_ILb1EEE
FN:147,151,_ZN5boost9unit_test8for_each4doneISt6vectorINS_7runtime16parameter_cla_idESaIS5_EEEEbRKNS1_15static_any_baseESA_RKT_N4mpl_5bool_ILb1EEE
FN:147,151,_ZN5boost9unit_test8for_each4doneISt6vectorINS_8functionIFNS_10test_tools16assertion_resultEmEEESaIS8_EEEEbRKNS1_15static_any_baseESD_RKT_N4mpl_5bool_ILb1EEE
FN:147,151,_ZN5boost9unit_test8for_each4doneISt6vectorINSt7__cxx1112basic_stringIcSt11char_traitsIcESaIcEEESaIS9_EEEEbRKNS1_15static_any_baseESE_RKT_N4mpl_5bool_ILb1EEE
FN:147,151,_ZN5boost9unit_test8for_each4doneISt6vectorImSaImEEEEbRKNS1_15static_any_baseES8_RKT_N4mpl_5bool_ILb1EEE
FN:147,151,_ZN5boost9unit_test8for_each4doneISt8multimapImmSt4lessImESaISt4pairIKmmEEEEEbRKNS1_15static_any_baseESD_RKT_N4mpl_5bool_ILb1EEE
FN:161,164,_ZN5boost9unit_test8for_each4nextINS0_13basic_cstringIKcEEEEvRKNS1_15static_any_baseERT_N4mpl_5bool_ILb0EEE
FN:161,164,_ZN5boost9unit_test8for_each4nextISt3mapIcNS_10shared_ptrINS_7runtime3cla13rt_cla_detail14parameter_trieEEESt4lessIcESaISt4pairIKcS9_EEEEEvRKNS1_15static_any_baseERT_N4mpl_5bool_ILb0EEE
FN:161,164,_ZN5boost9unit_test8for_each4nextISt3setIPNS0_13test_observerENS0_9framework5state14priority_orderESaIS5_EEEEvRKNS1_15static_any_baseERT_N4mpl_5bool_ILb0EEE
FN:161,164,_ZN5boost9unit_test8for_each4nextISt3setIPNS0_14global_fixtureESt4lessIS5_ESaIS5_EEEEvRKNS1_15static_any_baseERT_N4mpl_5bool_ILb0EEE
FN:161,164,_ZN5boost9unit_test8for_each4nextISt6vectorINS_10shared_ptrINS_7runtime3cla13rt_cla_detail14parameter_trieEEESaIS9_EEEEvRKNS1_15static_any_baseERT_N4mpl_5bool_ILb0EEE
FN:161,164,_ZN5boost9unit_test8for_each4nextISt6vectorINS_17reference_wrapperIKNS_7runtime16parameter_cla_idEEESaIS8_EEEEvRKNS1_15static_any_baseERT_N4mpl_5bool_ILb0EEE
FN:161,164,_ZN5boost9unit_test8for_each4nextISt6vectorINSt7__cxx1112basic_stringIcSt11char_traitsIcESaIcEEESaIS9_EEEEvRKNS1_15static_any_baseERT_N4mpl_5bool_ILb0EEE
FN:161,164,_ZN5boost9unit_test8for_each4nextISt6vectorImSaImEEEEvRKNS1_15static_any_baseERT_N4mpl_5bool_ILb0EEE
FN:170,173,_ZN5boost9unit_test8for_each4nextISt3mapINS0_13basic_cstringIKcEENS_10shared_ptrINS_7runtime11basic_paramEEENS8_16parameters_store10lg_compareESaISt4pairIKS6_SA_EEEEEvRKNS1_15static_any_baseERKT_N4mpl_5bool_ILb1EEE
FN:170,173,_ZN5boost9unit_test8for_each4nextISt6vectorINS0_13basic_cstringIKcEESaIS6_EEEEvRKNS1_15static_any_baseERKT_N4mpl_5bool_ILb1EEE
FN:170,173,_ZN5boost9unit_test8for_each4nextISt6vectorINS_10shared_ptrINS0_17test_unit_fixtureEEESaIS6_EEEEvRKNS1_15static_any_baseERKT_N4mpl_5bool_ILb1EEE
FN:170,173,_ZN5boost9unit_test8for_each4nextISt6vectorINS_10shared_ptrINS0_9decorator4baseEEESaIS7_EEEEvRKNS1_15static_any_baseERKT_N4mpl_5bool_ILb1EEE
FN:170,173,_ZN5boost9unit_test8for_each4nextISt6vectorINS_7runtime16parameter_cla_idESaIS5_EEEEvRKNS1_15static_any_baseERKT_N4mpl_5bool_ILb1EEE
FN:170,173,_ZN5boost9unit_test8for_each4nextISt6vectorINS_8functionIFNS_10test_tools16assertion_resultEmEEESaIS8_EEEEvRKNS1_15static_any_baseERKT_N4mpl_5bool_ILb1EEE
FN:170,173,_ZN5boost9unit_test8for_each4nextISt6vectorINSt7__cxx1112basic_stringIcSt11char_traitsIcESaIcEEESaIS9_EEEEvRKNS1_15static_any_baseERKT_N4mpl_5bool_ILb1EEE
FN:170,173,_ZN5boost9unit_test8for_each4nextISt6vectorImSaImEEEEvRKNS1_15static_any_baseERKT_N4mpl_5bool_ILb1EEE
FN:170,173,_ZN5boost9unit_test8for_each4nextISt8multimapImmSt4lessImESaISt4pairIKmmEEEEEvRKNS1_15static_any_baseERKT_N4mpl_5bool_ILb1EEE
FN:183,186,_ZN5boost9unit_test8for_each4prevISt3setIPNS0_13test_observerENS0_9framework5state14priority_orderESaIS5_EEEEvRKNS1_15static_any_baseERT_N4mpl_5bool_ILb0EEE
FN:192,195,_ZN5boost9unit_test8for_each4prevISt6vectorINS_10shared_ptrINS0_17test_unit_fixtureEEESaIS6_EEEEvRKNS1_15static_any_baseERKT_N4mpl_5bool_ILb1EEE
FN:205,208,_ZN5boost9unit_test8for_each5derefINS_10shared_ptrINS_7runtime3cla13rt_cla_detail14parameter_trieEEESt6vectorIS8_SaIS8_EEEET_RKNS1_15static_any_baseERT0_NS_4typeISC_EEN4mpl_5bool_ILb0EEE
FN:205,208,_ZN5boost9unit_test8for_each5derefIPNS0_13test_observerESt3setIS4_NS0_9framework5state14priority_orderESaIS4_EEEET_RKNS1_15static_any_baseERT0_NS_4typeISB_EEN4mpl_5bool_ILb0EEE
FN:205,208,_ZN5boost9unit_test8for_each5derefIPNS0_14global_fixtureESt3setIS4_St4lessIS4_ESaIS4_EEEET_RKNS1_15static_any_baseERT0_NS_4typeISA_EEN4mpl_5bool_ILb0EEE
FN:205,208,_ZN5boost9unit_test8for_each5derefIPNS0_17test_unit_fixtureESt3setIPNS0_14global_fixtureESt4lessIS7_ESaIS7_EEEET_RKNS1_15static_any_baseERT0_NS_4typeISC_EEN4mpl_5bool_ILb0EEE
FN:205,208,_ZN5boost9unit_test8for_each5derefIRKNS_7runtime16parameter_cla_idESt6vectorINS_17reference_wrapperIS5_EESaIS9_EEEET_RKNS1_15static_any_baseERT0_NS_4typeISC_EEN4mpl_5bool_ILb0EEE
FN:205,208,_ZN5boost9unit_test8for_each5derefIRKNSt7__cxx1112basic_stringIcSt11char_traitsIcESaIcEEESt6vectorIS8_SaIS8_EEEET_RKNS1_15static_any_baseERT0_NS_4typeISE_EEN4mpl_5bool_ILb0EEE
FN:205,208,_ZN5boost9unit_test8for_each5derefIRKSt4pairIKcNS_10shared_ptrINS_7runtime3cla13rt_cla_detail14parameter_trieEEEESt3mapIcSA_St4lessIcESaISB_EEEET_RKNS1_15static_any_baseERT0_NS_4typeISJ_EEN4mpl_5bool_ILb0EEE
FN:205,208,_ZN5boost9unit_test8for_each5derefIcNS0_13basic_cstringIKcEEEET_RKNS1_15static_any_baseERT0_NS_4typeIS6_EEN4mpl_5bool_ILb0EEE
FN:205,208,_ZN5boost9unit_test8for_each5derefImSt6vectorImSaImEEEET_RKNS1_15static_any_baseERT0_NS_4typeIS6_EEN4mpl_5bool_ILb0EEE
FN:214,217,_ZN5boost9unit_test8for_each5derefINS0_13basic_cstringIKcEESt6vectorINSt7__cxx1112basic_stringIcSt11char_traitsIcESaIcEEESaISC_EEEET_RKNS1_15static_any_baseERKT0_NS_4typeISF_EEN4mpl_5bool_ILb1EEE
FN:214,217,_ZN5boost9unit_test8for_each5derefINS0_13basic_cstringIKcEESt6vectorIS5_SaIS5_EEEET_RKNS1_15static_any_baseERKT0_NS_4typeIS9_EEN4mpl_5bool_ILb1EEE
FN:214,217,_ZN5boost9unit_test8for_each5derefINS_10shared_ptrINS0_17test_unit_fixtureEEESt6vectorIS5_SaIS5_EEEET_RKNS1_15static_any_baseERKT0_NS_4typeIS9_EEN4mpl_5bool_ILb1EEE
FN:214,217,_ZN5boost9unit_test8for_each5derefINS_10shared_ptrINS0_9decorator4baseEEESt6vectorIS6_SaIS6_EEEET_RKNS1_15static_any_baseERKT0_NS_4typeISA_EEN4mpl_5bool_ILb1EEE
FN:214,217,_ZN5boost9unit_test8for_each5derefINS_8functionIFNS_10test_tools16assertion_resultEmEEESt6vectorIS7_SaIS7_EEEET_RKNS1_15static_any_baseERKT0_NS_4typeISB_EEN4mpl_5bool_ILb1EEE
FN:214,217,_ZN5boost9unit_test8for_each5derefIRKNS_7runtime16parameter_cla_idESt6vectorIS4_SaIS4_EEEET_RKNS1_15static_any_baseERKT0_NS_4typeISA_EEN4mpl_5bool_ILb1EEE
FN:214,217,_ZN5boost9unit_test8for_each5derefIRKNSt7__cxx1112basic_stringIcSt11char_traitsIcESaIcEEESt6vectorIS8_SaIS8_EEEET_RKNS1_15static_any_baseERKT0_NS_4typeISE_EEN4mpl_5bool_ILb1EEE
FN:214,217,_ZN5boost9unit_test8for_each5derefIRKSt4pairIKNS0_13basic_cstringIKcEENS_10shared_ptrINS_7runtime11basic_paramEEEESt3mapIS6_SB_NS9_16parameters_store10lg_compareESaISC_EEEET_RKNS1_15static_any_baseERKT0_NS_4typeISK_EEN4mpl_5bool_ILb1EEE
FN:214,217,_ZN5boost9unit_test8for_each5derefISt4pairImmESt8multimapImmSt4lessImESaIS3_IKmmEEEEET_RKNS1_15static_any_baseERKT0_NS_4typeISC_EEN4mpl_5bool_ILb1EEE
FN:214,217,_ZN5boost9unit_test8for_each5derefImSt6vectorImSaImEEEET_RKNS1_15static_any_baseERKT0_NS_4typeIS6_EEN4mpl_5bool_ILb1EEE
FN:46,46,_ZNK5boost9unit_test8for_each15static_any_basecvbEv
FN:54,54,_ZN5boost9unit_test8for_each10static_anyIN9__gnu_cxx17__normal_iteratorIPKNS0_13basic_cstringIKcEESt6vectorIS7_SaIS7_EEEEEC2ERKSD_
FN:54,54,_ZN5boost9unit_test8for_each10static_anyIN9__gnu_cxx17__normal_iteratorIPKNS_10shared_ptrINS0_17test_unit_fixtureEEESt6vectorIS7_SaIS7_EEEEEC2ERKSD_
FN:54,54,_ZN5boost9unit_test8for_each10static_anyIN9__gnu_cxx17__normal_iteratorIPKNS_10shared_ptrINS0_9decorator4baseEEESt6vectorIS8_SaIS8_EEEEEC2ERKSE_
FN:54,54,_ZN5boost9unit_test8for_each10static_anyIN9__gnu_cxx17__normal_iteratorIPKNS_7runtime16parameter_cla_idESt6vectorIS6_SaIS6_EEEEEC2ERKSC_
FN:54,54,_ZN5boost9unit_test8for_each10static_anyIN9__gnu_cxx17__normal_iteratorIPKNS_8functionIFNS_10test_tools16assertion_resultEmEEESt6vectorIS9_SaIS9_EEEEEC2ERKSF_
FN:54,54,_ZN5boost9unit_test8for_each10static_anyIN9__gnu_cxx17__normal_iteratorIPKNSt7__cxx1112basic_stringIcSt11char_traitsIcESaIcEEESt6vectorISA_SaISA_EEEEEC2ERKSG_
FN:54,54,_ZN5boost9unit_test8for_each10static_anyIN9__gnu_cxx17__normal_iteratorIPKmSt6vectorImSaImEEEEEC2ERKSA_
FN:54,54,_ZN5boost9unit_test8for_each10static_anyIN9__gnu_cxx17__normal_iteratorIPNS_10shared_ptrINS_7runtime3cla13rt_cla_detail14parameter_trieEEESt6vectorISA_SaISA_EEEEEC2ERKSF_
FN:54,54,_ZN5boost9unit_test8for_each10static_anyIN9__gnu_cxx17__normal_iteratorIPNS_17reference_wrapperIKNS_7runtime16parameter_cla_idEEESt6vectorIS9_SaIS9_EEEEEC2ERKSE_
FN:54,54,_ZN5boost9unit_test8for_each10static_anyIN9__gnu_cxx17__normal_iteratorIPNSt7__cxx1112basic_stringIcSt11char_traitsIcESaIcEEESt6vectorISA_SaISA_EEEEEC2ERKSF_
FN:54,54,_ZN5boost9unit_test8for_each10static_anyIN9__gnu_cxx17__normal_iteratorIPmSt6vectorImSaImEEEEEC2ERKS9_
FN:54,54,_ZN5boost9unit_test8for_each10static_anyIPKcEC2ERKS4_
FN:54,54,_ZN5boost9unit_test8for_each10static_anyISt17_Rb_tree_iteratorISt4pairIKcNS_10shared_ptrINS_7runtime3cla13rt_cla_detail14parameter_trieEEEEEEC2ERKSD_
FN:54,54,_ZN5boost9unit_test8for_each10static_anyISt23_Rb_tree_const_iteratorIPNS0_13test_observerEEEC2ERKS6_
FN:54,54,_ZN5boost9unit_test8for_each10static_anyISt23_Rb_tree_const_iteratorIPNS0_14global_fixtureEEEC2ERKS6_
FN:54,54,_ZN5boost9unit_test8for_each10static_anyISt23_Rb_tree_const_iteratorISt4pairIKNS0_13basic_cstringIKcEENS_10shared_ptrINS_7runtime11basic_paramEEEEEEC2ERKSE_
FN:54,54,_ZN5boost9unit_test8for_each10static_anyISt23_Rb_tree_const_iteratorISt4pairIKmmEEEC2ERKS7_
FN:67,70,_ZN5boost9unit_test8for_each15static_any_castIN9__gnu_cxx17__normal_iteratorIPKNS0_13basic_cstringIKcEESt6vectorIS7_SaIS7_EEEEEERT_RKNS1_15static_any_baseEPSE_
FN:67,70,_ZN5boost9unit_test8for_each15static_any_castIN9__gnu_cxx17__normal_iteratorIPKNS_10shared_ptrINS0_17test_unit_fixtureEEESt6vectorIS7_SaIS7_EEEEEERT_RKNS1_15static_any_baseEPSE_
FN:67,70,_ZN5boost9unit_test8for_each15static_any_castIN9__gnu_cxx17__normal_iteratorIPKNS_10shared_ptrINS0_9decorator4baseEEESt6vectorIS8_SaIS8_EEEEEERT_RKNS1_15static_any_baseEPSF_
FN:67,70,_ZN5boost9unit_test8for_each15static_any_castIN9__gnu_cxx17__normal_iteratorIPKNS_7runtime16parameter_cla_idESt6vectorIS6_SaIS6_EEEEEERT_RKNS1_15static_any_baseEPSD_
FN:67,70,_ZN5boost9unit_test8for_each15static_any_castIN9__gnu_cxx17__normal_iteratorIPKNS_8functionIFNS_10test_tools16assertion_resultEmEEESt6vectorIS9_SaIS9_EEEEEERT_RKNS1_15static_any_baseEPSG_
FN:67,70,_ZN5boost9unit_test8for_each15static_any_castIN9__gnu_cxx17__normal_iteratorIPKNSt7__cxx1112basic_stringIcSt11char_traitsIcESaIcEEESt6vectorISA_SaISA_EEEEEERT_RKNS1_15static_any_baseEPSH_
FN:67,70,_ZN5boost9unit_test8for_each15static_any_castIN9__gnu_cxx17__normal_iteratorIPKmSt6vectorImSaImEEEEEERT_RKNS1_15static_any_baseEPSB_
FN:67,70,_ZN5boost9unit_test8for_each15static_any_castIN9__gnu_cxx17__normal_iteratorIPNS_10shared_ptrINS_7runtime3cla13rt_cla_detail14parameter_trieEEESt6vectorISA_SaISA_EEEEEERT_RKNS1_15static_any_baseEPSG_
FN:67,70,_ZN5boost9unit_test8for_each15static_any_castIN9__gnu_cxx17__normal_iteratorIPNS_17reference_wrapperIKNS_7runtime16parameter_cla_idEEESt6vectorIS9_SaIS9_EEEEEERT_RKNS1_15static_any_baseEPSF_
FN:67,70,_ZN5boost9unit_test8for_each15static_any_castIN9__gnu_cxx17__normal_iteratorIPNSt7__cxx1112basic_stringIcSt11char_traitsIcESaIcEEESt6vectorISA_SaISA_EEEEEERT_RKNS1_15static_any_baseEPSG_
FN:67,70,_ZN5boost9unit_test8for_each15static_any_castIN9__gnu_cxx17__normal_iteratorIPmSt6vectorImSaImEEEEEERT_RKNS1_15static_any_baseEPSA_
FN:67,70,_ZN5boost9unit_test8for_each15static_any_castIPKcEERT_RKNS1_15static_any_baseEPS5_
FN:67,70,_ZN5boost9unit_test8for_each15static_any_castISt17_Rb_tree_iteratorISt4pairIKcNS_10shared_ptrINS_7runtime3cla13rt_cla_detail14parameter_trieEEEEEEERT_RKNS1_15static_any_baseEPSE_
FN:67,70,_ZN5boost9unit_test8for_each15static_any_castISt23_Rb_tree_const_iteratorIPNS0_13test_observerEEEERT_RKNS1_15static_any_baseEPS7_
FN:67,70,_ZN5boost9unit_test8for_each15static_any_castISt23_Rb_tree_const_iteratorIPNS0_14global_fixtureEEEERT_RKNS1_15static_any_baseEPS7_
FN:67,70,_ZN5boost9unit_test8for_each15static_any_castISt23_Rb_tree_const_iteratorISt4pairIKNS0_13basic_cstringIKcEENS_10shared_ptrINS_7runtime11basic_paramEEEEEEERT_RKNS1_15static_any_baseEPSF_
FN:67,70,_ZN5boost9unit_test8for_each15static_any_castISt23_Rb_tree_const_iteratorISt4pairIKmmEEEERT_RKNS1_15static_any_baseEPS8_
FN:80,83,_ZN5boost9unit_test8for_each13is_const_collIKSt3mapINS0_13basic_cstringIKcEENS_10shared_ptrINS_7runtime11basic_paramEEENS8_16parameters_store10lg_compareESaISt4pairIKS6_SA_EEEEENS_8is_constIT_EERSK_
FN:80,83,_ZN5boost9unit_test8for_each13is_const_collIKSt6vectorINS0_13basic_cstringIKcEESaIS6_EEEENS_8is_constIT_EERSB_
FN:80,83,_ZN5boost9unit_test8for_each13is_const_collIKSt6vectorINS_10shared_ptrINS0_17test_unit_fixtureEEESaIS6_EEEENS_8is_constIT_EERSB_
FN:80,83,_ZN5boost9unit_test8for_each13is_const_collIKSt6vectorINS_10shared_ptrINS0_9decorator4baseEEESaIS7_EEEENS_8is_constIT_EERSC_
FN:80,83,_ZN5boost9unit_test8for_each13is_const_collIKSt6vectorINS_7runtime16parameter_cla_idESaIS5_EEEENS_8is_constIT_EERSA_
FN:80,83,_ZN5boost9unit_test8for_each13is_const_collIKSt6vectorINS_8functionIFNS_10test_tools16assertion_resultEmEEESaIS8_EEEENS_8is_constIT_EERSD_
FN:80,83,_ZN5boost9unit_test8for_each13is_const_collIKSt6vectorINSt7__cxx1112basic_stringIcSt11char_traitsIcESaIcEEESaIS9_EEEENS_8is_constIT_EERSE_
FN:80,83,_ZN5boost9unit_test8for_each13is_const_collIKSt6vectorImSaImEEEENS_8is_constIT_EERS8_
FN:80,83,_ZN5boost9unit_test8for_each13is_const_collIKSt8multimapImmSt4lessImESaISt4pairIKmmEEEEENS_8is_constIT_EERSD_
FN:80,83,_ZN5boost9unit_test8for_each13is_const_collINS0_13basic_cstringIKcEEEENS_8is_constIT_EERS7_
FN:80,83,_ZN5boost9unit_test8for_each13is_const_collISt3mapIcNS_10shared_ptrINS_7runtime3cla13rt_cla_detail14parameter_trieEEESt4lessIcESaISt4pairIKcS9_EEEEENS_8is_constIT_EERSI_
FN:80,83,_ZN5boost9unit_test8for_each13is_const_collISt3setIPNS0_13test_observerENS0_9framework5state14priority_orderESaIS5_EEEENS_8is_constIT_EERSC_
FN:80,83,_ZN5boost9unit_test8for_each13is_const_collISt3setIPNS0_14global_fixtureESt4lessIS5_ESaIS5_EEEENS_8is_constIT_EERSB_
FN:80,83,_ZN5boost9unit_test8for_each13is_const_collISt6vectorINS_10shared_ptrINS_7runtime3cla13rt_cla_detail14parameter_trieEEESaIS9_EEEENS_8is_constIT_EERSD_
FN:80,83,_ZN5boost9unit_test8for_each13is_const_collISt6vectorINS_17reference_wrapperIKNS_7runtime16parameter_cla_idEEESaIS8_EEEENS_8is_constIT_EERSC_
FN:80,83,_ZN5boost9unit_test8for_each13is_const_collISt6vectorINSt7__cxx1112basic_stringIcSt11char_traitsIcESaIcEEESaIS9_EEEENS_8is_constIT_EERSD_
FN:80,83,_ZN5boost9unit_test8for_each13is_const_collISt6vectorImSaImEEEENS_8is_constIT_EERS7_
FN:93,96,_ZN5boost9unit_test8for_each5beginINS0_13basic_cstringIKcEEEENS1_10static_anyINT_8iteratorEEERS7_N4mpl_5bool_ILb0EEE
FN:93,96,_ZN5boost9unit_test8for_each5beginISt3mapIcNS_10shared_ptrINS_7runtime3cla13rt_cla_detail14parameter_trieEEESt4lessIcESaISt4pairIKcS9_EEEEENS1_10static_anyINT_8iteratorEEERSI_N4mpl_5bool_ILb0EEE
FN:93,96,_ZN5boost9unit_test8for_each5beginISt3setIPNS0_13test_observerENS0_9framework5state14priority_orderESaIS5_EEEENS1_10static_anyINT_8iteratorEEERSC_N4mpl_5bool_ILb0EEE
FN:93,96,_ZN5boost9unit_test8for_each5beginISt3setIPNS0_14global_fixtureESt4lessIS5_ESaIS5_EEEENS1_10static_anyINT_8iteratorEEERSB_N4mpl_5bool_ILb0EEE
FN:93,96,_ZN5boost9unit_test8for_each5beginISt6vectorINS_10shared_ptrINS_7runtime3cla13rt_cla_detail14parameter_trieEEESaIS9_EEEENS1_10static_anyINT_8iteratorEEERSD_N4mpl_5bool_ILb0EEE
FN:93,96,_ZN5boost9unit_test8for_each5beginISt6vectorINS_17reference_wrapperIKNS_7runtime16parameter_cla_idEEESaIS8_EEEENS1_10static_anyINT_8iteratorEEERSC_N4mpl_5bool_ILb0EEE
FN:93,96,_ZN5boost9unit_test8for_each5beginISt6vectorINSt7__cxx1112basic_stringIcSt11char_traitsIcESaIcEEESaIS9_EEEENS1_10static_anyINT_8iteratorEEERSD_N4mpl_5bool_ILb0EEE
FN:93,96,_ZN5boost9unit_test8for_each5beginISt6vectorImSaImEEEENS1_10static_anyINT_8iteratorEEERS7_N4mpl_5bool_ILb0EEE
FNDA:3,_ZN5boost9unit_test8for_each5beginISt3mapINS0_13basic_cstringIKcEENS_10shared_ptrINS_7runtime11basic_paramEEENS8_16parameters_store10lg_compareESaISt4pairIKS6_SA_EEEEENS1_10static_anyINT_14const_iteratorEEERKSJ_N4mpl_5bool_ILb1EEE
FNDA:0,_ZN5boost9unit_test8for_each5beginISt6vectorINS0_13basic_cstringIKcEESaIS6_EEEENS1_10static_anyINT_14const_iteratorEEERKSA_N4mpl_5bool_ILb1EEE
FNDA:94,_ZN5boost9unit_test8for_each5beginISt6vectorINS_10shared_ptrINS0_17test_unit_fixtureEEESaIS6_EEEENS1_10static_anyINT_14const_iteratorEEERKSA_N4mpl_5bool_ILb1EEE
FNDA:47,_ZN5boost9unit_test8for_each5beginISt6vectorINS_10shared_ptrINS0_9decorator4baseEEESaIS7_EEEENS1_10static_anyINT_14const_iteratorEEERKSB_N4mpl_5bool_ILb1EEE
FNDA:28,_ZN5boost9unit_test8for_each5beginISt6vectorINS_7runtime16parameter_cla_idESaIS5_EEEENS1_10static_anyINT_14const_iteratorEEERKS9_N4mpl_5bool_ILb1EEE
FNDA:47,_ZN5boost9unit_test8for_each5beginISt6vectorINS_8functionIFNS_10test_tools16assertion_resultEmEEESaIS8_EEEENS1_10static_anyINT_14const_iteratorEEERKSC_N4mpl_5bool_ILb1EEE
FNDA:0,_ZN5boost9unit_test8for_each5beginISt6vectorINSt7__cxx1112basic_stringIcSt11char_traitsIcESaIcEEESaIS9_EEEENS1_10static_anyINT_14const_iteratorEEERKSD_N4mpl_5bool_ILb1EEE
FNDA:142,_ZN5boost9unit_test8for_each5beginISt6vectorImSaImEEEENS1_10static_anyINT_14const_iteratorEEERKS7_N4mpl_5bool_ILb1EEE
FNDA:1,_ZN5boost9unit_test8for_each5beginISt8multimapImmSt4lessImESaISt4pairIKmmEEEEENS1_10static_anyINT_14const_iteratorEEERKSC_N4mpl_5bool_ILb1EEE
FNDA:1,_ZN5boost9unit_test8for_each3endINS0_13basic_cstringIKcEEEENS1_10static_anyINT_8iteratorEEERS7_N4mpl_5bool_ILb0EEE
FNDA:0,_ZN5boost9unit_test8for_each3endISt3mapIcNS_10shared_ptrINS_7runtime3cla13rt_cla_detail14parameter_trieEEESt4lessIcESaISt4pairIKcS9_EEEEENS1_10static_anyINT_8iteratorEEERSI_N4mpl_5bool_ILb0EEE
FNDA:191,_ZN5boost9unit_test8for_each3endISt3setIPNS0_13test_observerENS0_9framework5state14priority_orderESaIS5_EEEENS1_10static_anyINT_8iteratorEEERSC_N4mpl_5bool_ILb0EEE
FNDA:2,_ZN5boost9unit_test8for_each3endISt3setIPNS0_14global_fixtureESt4lessIS5_ESaIS5_EEEENS1_10static_anyINT_8iteratorEEERSB_N4mpl_5bool_ILb0EEE
FNDA:0,_ZN5boost9unit_test8for_each3endISt6vectorINS_10shared_ptrINS_7runtime3cla13rt_cla_detail14parameter_trieEEESaIS9_EEEENS1_10static_anyINT_8iteratorEEERSD_N4mpl_5bool_ILb0EEE
FNDA:0,_ZN5boost9unit_test8for_each3endISt6vectorINS_17reference_wrapperIKNS_7runtime16parameter_cla_idEEESaIS8_EEEENS1_10static_anyINT_8iteratorEEERSC_N4mpl_5bool_ILb0EEE
FNDA:0,_ZN5boost9unit_test8for_each3endISt6vectorINSt7__cxx1112basic_stringIcSt11char_traitsIcESaIcEEESaIS9_EEEENS1_10static_anyINT_8iteratorEEERSD_N4mpl_5bool_ILb0EEE
FNDA:2,_ZN5boost9unit_test8for_each3endISt6vectorImSaImEEEENS1_10static_anyINT_8iteratorEEERS7_N4mpl_5bool_ILb0EEE
FNDA:3,_ZN5boost9unit_test8for_each3endISt3mapINS0_13basic_cstringIKcEENS_10shared_ptrINS_7runtime11basic_paramEEENS8_16parameters_store10lg_compareESaISt4pairIKS6_SA_EEEEENS1_10static_anyINT_14const_iteratorEEERKSJ_N4mpl_5bool_ILb1EEE
FNDA:0,_ZN5boost9unit_test8for_each3endISt6vectorINS0_13basic_cstringIKcEESaIS6_EEEENS1_10static_anyINT_14const_iteratorEEERKSA_N4mpl_5bool_ILb1EEE
FNDA:94,_ZN5boost9unit_test8for_each3endISt6vectorINS_10shared_ptrINS0_17test_unit_fixtureEEESaIS6_EEEENS1_10static_anyINT_14const_iteratorEEERKSA_N4mpl_5bool_ILb1EEE
FNDA:47,_ZN5boost9unit_test8for_each3endISt6vectorINS_10shared_ptrINS0_9decorator4baseEEESaIS7_EEEENS1_10static_anyINT_14const_iteratorEEERKSB_N4mpl_5bool_ILb1EEE
FNDA:28,_ZN5boost9unit_test8for_each3endISt6vectorINS_7runtime16parameter_cla_idESaIS5_EEEENS1_10static_anyINT_14const_iteratorEEERKS9_N4mpl_5bool_ILb1EEE
FNDA:47,_ZN5boost9unit_test8for_each3endISt6vectorINS_8functionIFNS_10test_tools16assertion_resultEmEEESaIS8_EEEENS1_10static_anyINT_14const_iteratorEEERKSC_N4mpl_5bool_ILb1EEE
FNDA:0,_ZN5boost9unit_test8for_each3endISt6vectorINSt7__cxx1112basic_stringIcSt11char_traitsIcESaIcEEESaIS9_EEEENS1_10static_anyINT_14const_iteratorEEERKSD_N4mpl_5bool_ILb1EEE
FNDA:142,_ZN5boost9unit_test8for_each3endISt6vectorImSaImEEEENS1_10static_anyINT_14const_iteratorEEERKS7_N4mpl_5bool_ILb1EEE
FNDA:1,_ZN5boost9unit_test8for_each3endISt8multimapImmSt4lessImESaISt4pairIKmmEEEEENS1_10static_anyINT_14const_iteratorEEERKSC_N4mpl_5bool_ILb1EEE
FNDA:10,_ZN5boost9unit_test8for_each4doneINS0_13basic_cstringIKcEEEEbRKNS1_15static_any_baseES8_RT_N4mpl_5bool_ILb0EEE
FNDA:0,_ZN5boost9unit_test8for_each4doneISt3mapIcNS_10shared_ptrINS_7runtime3cla13rt_cla_detail14parameter_trieEEESt4lessIcESaISt4pairIKcS9_EEEEEbRKNS1_15static_any_baseESJ_RT_N4mpl_5bool_ILb0EEE
FNDA:575,_ZN5boost9unit_test8for_each4doneISt3setIPNS0_13test_observerENS0_9framework5state14priority_orderESaIS5_EEEEbRKNS1_15static_any_baseESD_RT_N4mpl_5bool_ILb0EEE
FNDA:2,_ZN5boost9unit_test8for_each4doneISt3setIPNS0_14global_fixtureESt4lessIS5_ESaIS5_EEEEbRKNS1_15static_any_baseESC_RT_N4mpl_5bool_ILb0EEE
FNDA:0,_ZN5boost9unit_test8for_each4doneISt6vectorINS_10shared_ptrINS_7runtime3cla13rt_cla_detail14parameter_trieEEESaIS9_EEEEbRKNS1_15static_any_baseESE_RT_N4mpl_5bool_ILb0EEE
FNDA:0,_ZN5boost9unit_test8for_each4doneISt6vectorINS_17reference_wrapperIKNS_7runtime16parameter_cla_idEEESaIS8_EEEEbRKNS1_15static_any_baseESD_RT_N4mpl_5bool_ILb0EEE
FNDA:0,_ZN5boost9unit_test8for_each4doneISt6vectorINSt7__cxx1112basic_stringIcSt11char_traitsIcESaIcEEESaIS9_EEEEbRKNS1_15static_any_baseESE_RT_N4mpl_5bool_ILb0EEE
FNDA:94,_ZN5boost9unit_test8for_each4doneISt6vectorImSaImEEEEbRKNS1_15static_any_baseES8_RT_N4mpl_5bool_ILb0EEE
FNDA:87,_ZN5boost9unit_test8for_each4doneISt3mapINS0_13basic_cstringIKcEENS_10shared_ptrINS_7runtime11basic_paramEEENS8_16parameters_store10lg_compareESaISt4pairIKS6_SA_EEEEEbRKNS1_15static_any_baseESK_RKT_N4mpl_5bool_ILb1EEE
FNDA:0,_ZN5boost9unit_test8for_each4doneISt6vectorINS0_13basic_cstringIKcEESaIS6_EEEEbRKNS1_15static_any_baseESB_RKT_N4mpl_5bool_ILb1EEE
FNDA:94,_ZN5boost9unit_test8for_each4doneISt6vectorINS_10shared_ptrINS0_17test_unit_fixtureEEESaIS6_EEEEbRKNS1_15static_any_baseESB_RKT_N4mpl_5bool_ILb1EEE
FNDA:47,_ZN5boost9unit_test8for_each4doneISt6vectorINS_10shared_ptrINS0_9decorator4baseEEESaIS7_EEEEbRKNS1_15static_any_baseESC_RKT_N4mpl_5bool_ILb1EEE
FNDA:99,_ZN5boost9unit_test8for_each4doneISt6vectorINS_7runtime16parameter_cla_idESaIS5_EEEEbRKNS1_15static_any_baseESA_RKT_N4mpl_5bool_ILb1EEE
FNDA:47,_ZN5boost9unit_test8for_each4doneISt6vectorINS_8functionIFNS_10test_tools16assertion_resultEmEEESaIS8_EEEEbRKNS1_15static_any_baseESD_RKT_N4mpl_5bool_ILb1EEE
FNDA:0,_ZN5boost9unit_test8for_each4doneISt6vectorINSt7__cxx1112basic_stringIcSt11char_traitsIcESaIcEEESaIS9_EEEEbRKNS1_15static_any_baseESE_RKT_N4mpl_5bool_ILb1EEE
FNDA:234,_ZN5boost9unit_test8for_each4doneISt6vectorImSaImEEEEbRKNS1_15static_any_baseES8_RKT_N4mpl_5bool_ILb1EEE
FNDA:47,_ZN5boost9unit_test8for_each4doneISt8multimapImmSt4lessImESaISt4pairIKmmEEEEEbRKNS1_15static_any_baseESD_RKT_N4mpl_5bool_ILb1EEE
FNDA:9,_ZN5boost9unit_test8for_each4nextINS0_13basic_cstringIKcEEEEvRKNS1_15static_any_baseERT_N4mpl_5bool_ILb0EEE
FNDA:0,_ZN5boost9unit_test8for_each4nextISt3mapIcNS_10shared_ptrINS_7runtime3cla13rt_cla_detail14parameter_trieEEESt4lessIcESaISt4pairIKcS9_EEEEEvRKNS1_15static_any_baseERT_N4mpl_5bool_ILb0EEE
